ASxxxx Linker V03.00 + NoICE + sdld,  page 1.
Hexadecimal  [32-Bits]

Area                       Addr        Size        Decimal Bytes (Attributes)
--------------------       ----        ----        ------- ----- ------------
.  .ABS.               00000000    00000000 =           0. bytes (ABS,CON)

        Value  Global            Value  Global            Value  Global    
        -----  ------            -----  ------            -----  ------    
     00000000  .__.ABS.  |    00000000  l__CABS   |    00000000  l__DABS  
     00000000  l__GSFINA |    00000000  l__HOME   |    00000000  l__VECT0 
     00000000  l__VECT1  |    00000000  l__VECT2  |    00000000  l__VECT3 
     00000000  l__VECT4  |    00000000  l__VECT5  |    00000000  l__VECT6 
     00000000  l__VECT7  |    00000000  l__VECT_N |    00000000  s__CABS  
     00000000  s__CODE   |    00000000  s__DABS   |    00000000  s__VECT0 
     00000000  s__VECT00 |    00000000  s__VECT1  |    00000000  s__VECT11
     00000000  s__VECT2  |    00000000  s__VECT22 |    00000000  s__VECT3 
     00000000  s__VECT33 |    00000000  s__VECT4  |    00000000  s__VECT44
     00000000  s__VECT5  |    00000000  s__VECT55 |    00000000  s__VECT6 
     00000000  s__VECT66 |    00000000  s__VECT7  |    00000000  s__VECT77
     00000000  s__VECT_N |    00000000  s__VECT_N |    00000002  l__VECT11
     00000002  l__VECT22 |    00000002  l__VECT33 |    00000002  l__VECT44
     00000002  l__VECT55 |    00000002  l__VECT66 |    00000005  l__INITIA
     00000005  l__INITIA |    00000006  l__VECT00 |    00000018  l__GSINIT
     00000026  l__VECT_N |    0000002D  l__VECT77 |    00000121  l__SYSTEM
     0000047F  l__DATA   |    0000159A  l__CODE   |    0000159A  s__INITIA
     0000159F  s__INITIA |    000015A4  s__GSINIT |    000015BC  s__SYSTEM
     000016DD  s__DATA   |    00001B5C  s__GSFINA |    00001B5C  s__HOME  
ASxxxx Linker V03.00 + NoICE + sdld,  page 2.
Hexadecimal  [32-Bits]

Area                       Addr        Size        Decimal Bytes (Attributes)
--------------------       ----        ----        ------- ----- ------------
_CODE                  00000000    0000159A =        5530. bytes (REL,CON)

        Value  Global            Value  Global            Value  Global    
        -----  ------            -----  ------            -----  ------    
     0000008C  A$hdmi$66 |    0000008C  C$hdmi.c$ |    0000008C  C$hdmi.c$
     0000008C  G$i2cWait |    0000008C  _i2cWait  |    0000008E  A$hdmi$67
     0000008F  A$hdmi$68 |    00000090  A$hdmi$69 |    00000093  A$hdmi$70
     00000094  A$hdmi$71 |    00000096  A$hdmi$72 |    00000098  A$hdmi$77
     00000098  C$hdmi.c$ |    00000098  XG$i2cWai |    00000099  A$hdmi$90
     00000099  C$hdmi.c$ |    00000099  C$hdmi.c$ |    00000099  G$hdmi_in
     00000099  _hdmi_ini |    0000009C  A$hdmi$91 |    0000009D  A$hdmi$92
     0000009E  A$hdmi$93 |    000000A0  A$hdmi$94 |    000000A3  A$hdmi$95
     000000A4  A$hdmi$96 |    000000A7  A$hdmi$97 |    000000A8  A$hdmi$10
     000000A8  C$hdmi.c$ |    000000AB  A$hdmi$10 |    000000AC  A$hdmi$10
     000000AF  A$hdmi$10 |    000000B0  A$hdmi$10 |    000000B0  C$hdmi.c$
     000000B3  A$hdmi$11 |    000000B4  A$hdmi$11 |    000000B5  A$hdmi$11
     000000B7  A$hdmi$11 |    000000BA  A$hdmi$11 |    000000BB  A$hdmi$11
     000000BE  A$hdmi$11 |    000000BF  A$hdmi$12 |    000000BF  C$hdmi.c$
     000000C2  A$hdmi$12 |    000000C3  A$hdmi$12 |    000000C6  A$hdmi$12
     000000C6  C$hdmi.c$ |    000000C9  A$hdmi$12 |    000000CA  A$hdmi$12
     000000CD  A$hdmi$13 |    000000CE  A$hdmi$13 |    000000CE  C$hdmi.c$
     000000CE  C$hdmi.c$ |    000000CE  XG$hdmi_i |    000000D1  Fhdmi$__s
     000000E6  Fhdmi$__s |    00000100  A$hdmi$15 |    00000100  C$hdmi.c$
     00000100  G$hdmi_re |    00000100  _hdmi_rea |    00000101  A$hdmi$16
     00000101  C$hdmi.c$ |    00000105  A$hdmi$16 |    00000107  A$hdmi$16
     0000010B  A$hdmi$16 |    0000010B  C$hdmi.c$ |    0000010E  A$hdmi$16
     0000010F  A$hdmi$16 |    00000112  A$hdmi$17 |    00000112  C$hdmi.c$
     00000115  A$hdmi$17 |    00000116  A$hdmi$17 |    00000119  A$hdmi$17
     00000119  C$hdmi.c$ |    0000011C  A$hdmi$17 |    0000011D  A$hdmi$18
     00000120  A$hdmi$18 |    00000120  C$hdmi.c$ |    00000123  A$hdmi$18
     00000124  A$hdmi$18 |    00000127  A$hdmi$18 |    00000128  A$hdmi$19
     00000128  C$hdmi.c$ |    0000012A  A$hdmi$19 |    0000012B  A$hdmi$19
     0000012C  A$hdmi$19 |    0000012F  A$hdmi$19 |    00000130  A$hdmi$19
     00000132  A$hdmi$19 |    00000134  A$hdmi$20 |    00000134  C$hdmi.c$
     00000136  A$hdmi$20 |    00000137  A$hdmi$20 |    00000138  A$hdmi$20
     0000013B  A$hdmi$20 |    0000013C  A$hdmi$20 |    0000013D  A$hdmi$20
     0000013F  A$hdmi$20 |    00000140  A$hdmi$21 |    00000141  A$hdmi$21
     00000142  A$hdmi$21 |    00000142  C$hdmi.c$ |    00000143  A$hdmi$21
     00000145  A$hdmi$22 |    00000145  C$hdmi.c$ |    00000148  A$hdmi$22
     00000149  A$hdmi$22 |    0000014A  A$hdmi$22 |    0000014C  A$hdmi$22
     0000014D  A$hdmi$22 |    00000150  A$hdmi$22 |    00000150  C$hdmi.c$
     00000153  A$hdmi$23 |    00000154  A$hdmi$23 |    00000157  A$hdmi$23
     00000158  A$hdmi$23 |    00000158  C$hdmi.c$ |    0000015A  A$hdmi$23
     0000015B  A$hdmi$23 |    0000015C  A$hdmi$24 |    0000015F  A$hdmi$24
     00000160  A$hdmi$24 |    00000162  A$hdmi$24 |    00000164  A$hdmi$24
     00000164  C$hdmi.c$ |    00000167  A$hdmi$24 |    00000168  A$hdmi$24
     0000016B  A$hdmi$25 |    0000016B  C$hdmi.c$ |    0000016E  A$hdmi$25
     0000016F  A$hdmi$25 |    00000172  A$hdmi$25 |    00000172  C$hdmi.c$
     00000175  A$hdmi$26 |    00000176  A$hdmi$26 |    00000179  A$hdmi$26
     0000017A  A$hdmi$26 |    0000017A  C$hdmi.c$ |    0000017C  A$hdmi$26
     0000017D  A$hdmi$26 |    0000017E  A$hdmi$27 |    00000181  A$hdmi$27
     00000182  A$hdmi$27 |    00000184  A$hdmi$27 |    00000186  A$hdmi$27
     00000186  C$hdmi.c$ |    00000189  A$hdmi$27 |    0000018A  A$hdmi$27
     0000018D  A$hdmi$28 |    0000018E  A$hdmi$28 |    0000018E  C$hdmi.c$
ASxxxx Linker V03.00 + NoICE + sdld,  page 3.
Hexadecimal  [32-Bits]

Area                       Addr        Size        Decimal Bytes (Attributes)
--------------------       ----        ----        ------- ----- ------------
_CODE                  00000000    0000159A =        5530. bytes (REL,CON)

        Value  Global            Value  Global            Value  Global    
        -----  ------            -----  ------            -----  ------    
     00000190  A$hdmi$28 |    00000191  A$hdmi$28 |    00000192  A$hdmi$28
     00000195  A$hdmi$28 |    00000196  A$hdmi$29 |    00000198  A$hdmi$29
     0000019A  A$hdmi$29 |    0000019A  C$hdmi.c$ |    0000019C  A$hdmi$29
     0000019D  A$hdmi$29 |    0000019E  A$hdmi$29 |    000001A1  A$hdmi$29
     000001A2  A$hdmi$30 |    000001A6  A$hdmi$30 |    000001A8  A$hdmi$30
     000001AB  A$hdmi$30 |    000001AB  C$hdmi.c$ |    000001AE  A$hdmi$30
     000001AF  A$hdmi$30 |    000001B2  A$hdmi$31 |    000001B3  A$hdmi$31
     000001B3  C$hdmi.c$ |    000001B5  A$hdmi$31 |    000001B6  A$hdmi$31
     000001B7  A$hdmi$31 |    000001BA  A$hdmi$31 |    000001BB  A$hdmi$32
     000001BD  A$hdmi$32 |    000001BF  A$hdmi$32 |    000001BF  C$hdmi.c$
     000001C2  A$hdmi$32 |    000001C3  A$hdmi$32 |    000001C6  A$hdmi$32
     000001C7  A$hdmi$33 |    000001C7  C$hdmi.c$ |    000001CA  A$hdmi$33
     000001CB  A$hdmi$33 |    000001CC  A$hdmi$33 |    000001CD  A$hdmi$33
     000001CF  A$hdmi$33 |    000001D2  A$hdmi$33 |    000001D3  A$hdmi$33
     000001D4  A$hdmi$34 |    000001D6  A$hdmi$34 |    000001D9  A$hdmi$34
     000001DA  A$hdmi$34 |    000001DD  A$hdmi$34 |    000001DE  A$hdmi$34
     000001DE  C$hdmi.c$ |    000001E2  A$hdmi$35 |    000001E4  A$hdmi$35
     000001E7  A$hdmi$35 |    000001E8  A$hdmi$35 |    000001E8  C$hdmi.c$
     000001E8  XG$hdmi_r |    000001E9  Fhdmi$__s |    000001F9  A$hdmi$37
     000001F9  C$hdmi.c$ |    000001F9  G$hdmi_wr |    000001F9  _hdmi_wri
     000001FA  A$hdmi$37 |    000001FA  C$hdmi.c$ |    000001FD  A$hdmi$37
     000001FE  A$hdmi$37 |    00000201  A$hdmi$38 |    00000201  C$hdmi.c$
     00000204  A$hdmi$38 |    00000205  A$hdmi$38 |    00000208  A$hdmi$38
     00000208  C$hdmi.c$ |    0000020B  A$hdmi$38 |    0000020C  A$hdmi$38
     0000020F  A$hdmi$39 |    0000020F  C$hdmi.c$ |    00000212  A$hdmi$39
     00000213  A$hdmi$39 |    00000216  A$hdmi$39 |    00000217  A$hdmi$40
     00000217  C$hdmi.c$ |    00000219  A$hdmi$40 |    0000021A  A$hdmi$40
     0000021B  A$hdmi$40 |    0000021E  A$hdmi$40 |    0000021F  A$hdmi$40
     00000221  A$hdmi$40 |    00000223  A$hdmi$41 |    00000223  C$hdmi.c$
     00000225  A$hdmi$41 |    00000226  A$hdmi$41 |    00000227  A$hdmi$41
     0000022A  A$hdmi$41 |    0000022B  A$hdmi$41 |    0000022C  A$hdmi$41
     0000022E  A$hdmi$41 |    0000022F  A$hdmi$41 |    00000230  A$hdmi$42
     00000231  A$hdmi$42 |    00000231  C$hdmi.c$ |    00000232  A$hdmi$42
     00000234  A$hdmi$42 |    00000234  C$hdmi.c$ |    00000237  A$hdmi$43
     00000238  A$hdmi$43 |    00000239  A$hdmi$43 |    0000023B  A$hdmi$43
     0000023C  A$hdmi$43 |    0000023F  A$hdmi$43 |    0000023F  C$hdmi.c$
     00000242  A$hdmi$43 |    00000243  A$hdmi$44 |    00000246  A$hdmi$44
     00000247  A$hdmi$44 |    00000247  C$hdmi.c$ |    00000249  A$hdmi$44
     0000024A  A$hdmi$44 |    0000024B  A$hdmi$44 |    0000024E  A$hdmi$45
     0000024F  A$hdmi$45 |    00000251  A$hdmi$45 |    00000253  A$hdmi$45
     00000253  C$hdmi.c$ |    00000256  A$hdmi$45 |    00000257  A$hdmi$45
     00000258  A$hdmi$45 |    0000025A  A$hdmi$46 |    0000025B  A$hdmi$46
     0000025E  A$hdmi$46 |    0000025E  C$hdmi.c$ |    00000261  A$hdmi$46
     00000262  A$hdmi$46 |    00000265  A$hdmi$46 |    00000266  A$hdmi$47
     00000266  C$hdmi.c$ |    00000268  A$hdmi$47 |    00000269  A$hdmi$47
     0000026A  A$hdmi$47 |    0000026D  A$hdmi$47 |    0000026E  A$hdmi$47
     00000270  A$hdmi$47 |    00000272  A$hdmi$48 |    00000272  C$hdmi.c$
     00000274  A$hdmi$48 |    00000275  A$hdmi$48 |    00000276  A$hdmi$48
     00000279  A$hdmi$48 |    0000027A  A$hdmi$48 |    0000027B  A$hdmi$48
     0000027D  A$hdmi$49 |    0000027E  A$hdmi$49 |    0000027F  A$hdmi$49
     00000280  A$hdmi$49 |    00000280  C$hdmi.c$ |    00000283  A$hdmi$49
ASxxxx Linker V03.00 + NoICE + sdld,  page 4.
Hexadecimal  [32-Bits]

Area                       Addr        Size        Decimal Bytes (Attributes)
--------------------       ----        ----        ------- ----- ------------
_CODE                  00000000    0000159A =        5530. bytes (REL,CON)

        Value  Global            Value  Global            Value  Global    
        -----  ------            -----  ------            -----  ------    
     00000284  A$hdmi$49 |    00000287  A$hdmi$50 |    00000288  A$hdmi$50
     00000288  C$hdmi.c$ |    0000028A  A$hdmi$50 |    0000028B  A$hdmi$50
     0000028C  A$hdmi$50 |    0000028F  A$hdmi$50 |    00000290  A$hdmi$51
     00000292  A$hdmi$51 |    00000294  A$hdmi$51 |    00000294  C$hdmi.c$
     00000297  A$hdmi$51 |    00000298  A$hdmi$51 |    0000029B  A$hdmi$51
     0000029C  A$hdmi$52 |    0000029C  C$hdmi.c$ |    0000029F  A$hdmi$52
     000002A0  A$hdmi$52 |    000002A1  A$hdmi$52 |    000002A2  A$hdmi$52
     000002A4  A$hdmi$52 |    000002A7  A$hdmi$52 |    000002A8  A$hdmi$52
     000002A9  A$hdmi$53 |    000002AB  A$hdmi$53 |    000002AE  A$hdmi$53
     000002AF  A$hdmi$53 |    000002B2  A$hdmi$53 |    000002B3  A$hdmi$53
     000002B4  A$hdmi$54 |    000002B4  C$hdmi.c$ |    000002B4  XG$hdmi_w
     000002B5  Fhdmi$__s |    000002C5  A$hdmi$55 |    000002C5  C$hdmi.c$
     000002C5  C$hdmi.c$ |    000002C5  G$hdmi_po |    000002C5  _hdmi_pow
     000002C8  A$hdmi$55 |    000002C9  A$hdmi$56 |    000002CC  A$hdmi$56
     000002CC  C$hdmi.c$ |    000002CF  A$hdmi$56 |    000002D0  A$hdmi$56
     000002D3  A$hdmi$57 |    000002D3  C$hdmi.c$ |    000002D6  A$hdmi$57
     000002D7  A$hdmi$57 |    000002DA  A$hdmi$57 |    000002DA  C$hdmi.c$
     000002DD  A$hdmi$57 |    000002DE  A$hdmi$57 |    000002E1  A$hdmi$58
     000002E1  C$hdmi.c$ |    000002E4  A$hdmi$58 |    000002E5  A$hdmi$58
     000002E8  A$hdmi$58 |    000002E8  C$hdmi.c$ |    000002EB  A$hdmi$58
     000002EC  A$hdmi$59 |    000002EF  A$hdmi$59 |    000002EF  C$hdmi.c$
     000002F2  A$hdmi$59 |    000002F3  A$hdmi$59 |    000002F6  A$hdmi$60
     000002F6  C$hdmi.c$ |    000002F9  A$hdmi$60 |    000002FA  A$hdmi$60
     000002FD  A$hdmi$60 |    000002FD  C$hdmi.c$ |    00000300  A$hdmi$60
     00000301  A$hdmi$60 |    00000304  A$hdmi$61 |    00000304  C$hdmi.c$
     00000307  A$hdmi$61 |    00000308  A$hdmi$61 |    0000030B  A$hdmi$61
     0000030B  C$hdmi.c$ |    0000030E  A$hdmi$61 |    0000030F  A$hdmi$62
     00000312  A$hdmi$62 |    00000312  C$hdmi.c$ |    00000315  A$hdmi$62
     00000316  A$hdmi$62 |    00000319  A$hdmi$63 |    00000319  C$hdmi.c$
     0000031C  A$hdmi$63 |    0000031D  A$hdmi$63 |    00000320  A$hdmi$63
     00000320  C$hdmi.c$ |    00000323  A$hdmi$63 |    00000324  A$hdmi$63
     00000327  A$hdmi$64 |    00000327  C$hdmi.c$ |    0000032A  A$hdmi$64
     0000032B  A$hdmi$64 |    0000032E  A$hdmi$64 |    0000032F  A$hdmi$65
     0000032F  C$hdmi.c$ |    0000032F  XG$hdmi_p |    00000330  A$hdmi$66
     00000330  C$hdmi.c$ |    00000330  C$hdmi.c$ |    00000330  G$hdmi_po
     00000330  _hdmi_pow |    00000332  A$hdmi$66 |    00000333  A$hdmi$66
     00000334  A$hdmi$66 |    00000337  A$hdmi$66 |    00000338  A$hdmi$66
     00000339  A$hdmi$66 |    0000033B  A$hdmi$67 |    0000033C  A$hdmi$67
     0000033D  A$hdmi$67 |    0000033E  A$hdmi$67 |    00000340  A$hdmi$67
     00000341  A$hdmi$67 |    00000342  A$hdmi$67 |    00000345  A$hdmi$67
     00000346  A$hdmi$68 |    00000346  C$hdmi.c$ |    00000346  XG$hdmi_p
     00000347  A$hdmi$69 |    00000347  C$hdmi.c$ |    00000347  C$hdmi.c$
     00000347  G$hdmiPro |    00000347  _hdmiProc |    00000349  A$hdmi$69
     0000034A  A$hdmi$69 |    0000034B  A$hdmi$69 |    0000034E  A$hdmi$69
     0000034F  A$hdmi$70 |    00000350  A$hdmi$70 |    00000352  A$hdmi$70
     00000354  A$hdmi$70 |    00000356  A$hdmi$70 |    00000358  A$hdmi$70
     00000359  A$hdmi$70 |    0000035A  A$hdmi$70 |    0000035D  A$hdmi$70
     0000035E  A$hdmi$70 |    00000360  A$hdmi$71 |    00000362  A$hdmi$71
     00000362  C$hdmi.c$ |    00000365  A$hdmi$71 |    00000365  C$hdmi.c$
     00000368  A$hdmi$71 |    00000369  A$hdmi$72 |    0000036A  A$hdmi$72
     0000036B  A$hdmi$72 |    0000036E  A$hdmi$72 |    0000036F  A$hdmi$72
ASxxxx Linker V03.00 + NoICE + sdld,  page 5.
Hexadecimal  [32-Bits]

Area                       Addr        Size        Decimal Bytes (Attributes)
--------------------       ----        ----        ------- ----- ------------
_CODE                  00000000    0000159A =        5530. bytes (REL,CON)

        Value  Global            Value  Global            Value  Global    
        -----  ------            -----  ------            -----  ------    
     00000372  A$hdmi$72 |    00000373  A$hdmi$72 |    00000373  C$hdmi.c$
     00000374  A$hdmi$73 |    00000374  C$hdmi.c$ |    00000376  A$hdmi$73
     00000377  A$hdmi$73 |    00000378  A$hdmi$73 |    0000037B  A$hdmi$73
     0000037C  A$hdmi$73 |    0000037D  A$hdmi$74 |    0000037F  A$hdmi$74
     00000381  A$hdmi$74 |    00000382  A$hdmi$74 |    00000382  C$hdmi.c$
     00000384  A$hdmi$74 |    00000385  A$hdmi$74 |    00000386  A$hdmi$74
     00000389  A$hdmi$75 |    0000038A  A$hdmi$75 |    0000038C  A$hdmi$75
     0000038E  A$hdmi$75 |    0000038E  C$hdmi.c$ |    00000390  A$hdmi$75
     00000391  A$hdmi$75 |    00000392  A$hdmi$75 |    00000395  A$hdmi$76
     00000396  A$hdmi$76 |    00000398  A$hdmi$76 |    00000399  A$hdmi$76
     00000399  C$hdmi.c$ |    0000039C  A$hdmi$77 |    0000039C  C$hdmi.c$
     0000039F  A$hdmi$77 |    000003A0  A$hdmi$77 |    000003A1  A$hdmi$77
     000003A2  A$hdmi$77 |    000003A5  A$hdmi$77 |    000003A6  A$hdmi$77
     000003A9  A$hdmi$77 |    000003AA  A$hdmi$78 |    000003AA  C$hdmi.c$
     000003AA  XG$hdmiPr |    000003AB  Fhdmi$__s |    000003BF  Fhdmi$__s
     000003D1  A$interru |    000003D1  C$interru |    000003D1  C$interru
     000003D1  G$nmi_han |    000003D1  XG$nmi_ha |    000003D1  _nmi_hand
     000003D2  A$interru |    000003D2  C$interru |    000003D2  C$interru
     000003D2  G$int_han |    000003D2  _int_hand |    000003D4  A$interru
     000003D5  A$interru |    000003D6  A$interru |    000003D9  A$interru
     000003DA  A$interru |    000003DA  C$interru |    000003DC  A$interru
     000003DD  A$interru |    000003DD  C$spi.h$8 |    000003DF  A$interru
     000003E0  A$interru |    000003E1  A$interru |    000003E4  A$interru
     000003E5  A$interru |    000003E7  A$interru |    000003E8  A$interru
     000003E8  C$interru |    000003EB  A$interru |    000003EC  A$interru
     000003ED  A$interru |    000003EE  A$interru |    000003EE  C$interru
     000003EF  A$interru |    000003F0  A$interru |    000003F1  A$interru
     000003F4  A$interru |    000003F5  A$interru |    000003F5  C$interru
     000003F6  A$interru |    000003F7  A$interru |    000003F8  A$interru
     000003FB  A$interru |    000003FC  A$interru |    000003FC  C$interru
     000003FC  XG$int_ha |    000003FD  A$library |    000003FD  C$library
     000003FD  C$library |    000003FD  G$globals |    000003FD  _globals 
     00000400  A$library |    00000400  C$library |    00000400  XG$global
     00000401  A$library |    00000401  C$library |    00000401  C$library
     00000401  G$process |    00000401  _process_ |    00000404  A$library
     00000404  C$library |    00000404  C$library |    00000404  XG$proces
     00000407  A$library |    00000407  C$library |    00000407  G$console
     00000407  _console  |    00000409  A$library |    0000040D  A$library
     0000040F  A$library |    00000410  A$library |    00000411  A$library
     00000411  C$library |    00000414  A$library |    00000415  A$library
     00000416  A$library |    00000419  A$library |    0000041C  A$library
     0000041E  A$library |    00000422  A$library |    00000425  A$library
     00000427  A$library |    0000042A  A$library |    0000042C  A$library
     0000042F  A$library |    00000431  A$library |    00000434  A$library
     00000437  A$library |    0000043A  A$library |    0000043B  A$library
     0000043E  A$library |    00000441  A$library |    00000442  A$library
     00000445  A$library |    00000448  A$library |    00000449  A$library
     0000044C  A$library |    0000044D  A$library |    00000450  A$library
     00000453  A$library |    00000454  A$library |    00000455  A$library
     00000457  A$library |    00000459  A$library |    00000459  C$library
     00000459  XG$consol |    0000045A  Flibrary$ |    00000466  A$library
ASxxxx Linker V03.00 + NoICE + sdld,  page 6.
Hexadecimal  [32-Bits]

Area                       Addr        Size        Decimal Bytes (Attributes)
--------------------       ----        ----        ------- ----- ------------
_CODE                  00000000    0000159A =        5530. bytes (REL,CON)

        Value  Global            Value  Global            Value  Global    
        -----  ------            -----  ------            -----  ------    
     00000466  C$library |    00000466  C$library |    00000466  G$ul$0$0 
     00000466  _ul       |    00000469  A$library |    0000046A  A$library
     0000046C  A$library |    0000046D  A$library |    0000046E  A$library
     00000471  A$library |    00000472  A$library |    00000473  A$library
     00000474  A$library |    00000475  A$library |    00000477  A$library
     00000478  A$library |    00000479  A$library |    0000047A  A$library
     0000047B  A$library |    0000047D  A$library |    0000047F  A$library
     0000047F  C$library |    00000481  A$library |    00000482  A$library
     00000483  A$library |    00000486  A$library |    00000487  A$library
     00000487  C$library |    00000487  XG$ul$0$0 |    00000488  A$main$69
     00000488  C$main.c$ |    00000488  C$main.c$ |    00000488  G$init$0$
     00000488  _init     |    0000048B  A$main$70 |    0000048D  A$main$71
     0000048E  A$main$72 |    0000048F  A$main$73 |    00000490  A$main$74
     00000493  A$main$75 |    00000495  A$main$79 |    00000495  C$main.c$
     00000498  A$main$87 |    00000498  C$main.c$ |    00000498  C$main.c$
     00000498  XG$init$0 |    0000049B  A$main$97 |    0000049B  C$main.c$
     0000049B  G$main$0$ |    0000049B  _main     |    0000049D  A$main$98
     000004A0  A$main$99 |    000004A1  A$main$10 |    000004A2  A$main$10
     000004A2  C$main.c$ |    000004A5  A$main$10 |    000004A5  C$main.c$
     000004A8  A$main$11 |    000004A9  A$main$11 |    000004AA  A$main$11
     000004AC  A$main$11 |    000004AF  A$main$11 |    000004B1  A$main$11
     000004B1  C$main.c$ |    000004B4  A$main$12 |    000004B5  A$main$12
     000004B8  A$main$12 |    000004B9  A$main$12 |    000004BC  A$main$12
     000004BC  C$main.c$ |    000004BE  A$main$12 |    000004BF  A$main$12
     000004C0  A$main$13 |    000004C3  A$main$13 |    000004C4  A$main$13
     000004C5  A$main$13 |    000004C7  A$main$13 |    000004C8  A$main$13
     000004CA  A$main$13 |    000004CB  A$main$13 |    000004CC  A$main$13
     000004CF  A$main$13 |    000004D0  A$main$14 |    000004D1  A$main$14
     000004D2  A$main$14 |    000004D4  A$main$14 |    000004D7  A$main$14
     000004D8  A$main$14 |    000004D9  A$main$14 |    000004DB  A$main$14
     000004DC  A$main$14 |    000004DD  A$main$14 |    000004DE  A$main$15
     000004E1  A$main$15 |    000004E2  A$main$15 |    000004E4  A$main$15
     000004E7  A$main$15 |    000004EA  A$main$15 |    000004EB  A$main$15
     000004EC  A$main$15 |    000004EF  A$main$16 |    000004EF  C$main.c$
     000004F2  A$main$16 |    000004F3  A$main$16 |    000004F6  A$main$16
     000004F6  C$main.c$ |    000004F8  A$main$16 |    000004F9  A$main$16
     000004FA  A$main$17 |    000004FD  A$main$17 |    000004FE  A$main$17
     000004FE  C$main.c$ |    00000501  A$main$17 |    00000502  A$main$17
     00000503  A$main$17 |    00000505  A$main$18 |    00000508  A$main$18
     0000050A  A$main$18 |    0000050A  C$main.c$ |    0000050D  A$main$18
     0000050E  A$main$18 |    0000050F  A$main$18 |    00000510  A$main$19
     00000513  A$main$19 |    00000514  A$main$19 |    00000514  C$main.c$
     00000514  XG$main$0 |    00000516  Fmain$__s |    0000054A  Fmain$__s
     00000564  Fmain$__s |    00000571  A$spi$70  |    00000571  C$spi.c$3
     00000571  C$spi.c$3 |    00000571  G$spiSetH |    00000571  _spiSetHa
     00000574  A$spi$71  |    00000578  A$spi$72  |    0000057A  A$spi$73 
     0000057D  A$spi$74  |    0000057E  A$spi$75  |    0000057F  A$spi$76 
     00000581  A$spi$77  |    00000582  A$spi$78  |    00000586  A$spi$79 
     00000588  A$spi$80  |    0000058B  A$spi$81  |    0000058C  A$spi$82 
     0000058D  A$spi$83  |    00000590  A$spi$84  |    00000591  A$spi$89 
     00000591  C$spi.c$3 |    00000591  XG$spiSet |    00000592  A$spi$99 
ASxxxx Linker V03.00 + NoICE + sdld,  page 7.
Hexadecimal  [32-Bits]

Area                       Addr        Size        Decimal Bytes (Attributes)
--------------------       ----        ----        ------- ----- ------------
_CODE                  00000000    0000159A =        5530. bytes (REL,CON)

        Value  Global            Value  Global            Value  Global    
        -----  ------            -----  ------            -----  ------    
     00000592  C$spi.c$3 |    00000592  G$spiProc |    00000592  _spiProce
     00000594  A$spi$100 |    00000598  A$spi$101 |    0000059A  A$spi$102
     0000059B  A$spi$106 |    0000059B  C$spi.c$4 |    0000059E  A$spi$110
     0000059E  C$spi.c$4 |    000005A1  A$spi$111 |    000005A2  A$spi$112
     000005A3  A$spi$113 |    000005A6  A$spi$117 |    000005A6  C$spi.c$4
     000005A9  A$spi$118 |    000005AA  A$spi$119 |    000005AB  A$spi$120
     000005AE  A$spi$124 |    000005AE  C$spi.c$5 |    000005B1  A$spi$125
     000005B2  A$spi$129 |    000005B2  C$spi.c$5 |    000005B3  A$spi$130
     000005B5  A$spi$131 |    000005B6  A$spi$132 |    000005B7  A$spi$133
     000005B8  A$spi$134 |    000005B9  A$spi$135 |    000005BA  A$spi$136
     000005BB  A$spi$137 |    000005BE  A$spi$138 |    000005BF  A$spi$139
     000005C0  A$spi$140 |    000005C1  A$spi$144 |    000005C1  C$spi.c$5
     000005C2  A$spi$145 |    000005C3  A$spi$146 |    000005C4  A$spi$147
     000005C5  A$spi$148 |    000005C6  A$spi$149 |    000005C7  A$spi$150
     000005C9  A$spi$151 |    000005CA  A$spi$152 |    000005CB  A$spi$153
     000005CC  A$spi$154 |    000005CD  A$spi$155 |    000005CE  A$spi$156
     000005CF  A$spi$157 |    000005D2  A$spi$158 |    000005D3  A$spi$159
     000005D4  A$spi$160 |    000005D5  A$spi$161 |    000005D6  A$spi$165
     000005D6  C$spi.c$5 |    000005DA  A$spi$166 |    000005DC  A$spi$167
     000005DD  A$spi$168 |    000005DE  A$spi$169 |    000005E0  A$spi$170
     000005E1  A$spi$171 |    000005E2  A$spi$172 |    000005E4  A$spi$173
     000005E5  A$spi$174 |    000005E6  A$spi$175 |    000005E7  A$spi$176
     000005EA  A$spi$177 |    000005EB  A$spi$178 |    000005EC  A$spi$179
     000005ED  A$spi$180 |    000005EE  A$spi$184 |    000005EE  C$spi.c$6
     000005EF  A$spi$185 |    000005F2  A$spi$189 |    000005F2  C$spi.c$6
     000005F3  A$spi$190 |    000005F4  A$spi$191 |    000005F5  A$spi$195
     000005F5  C$spi.c$6 |    000005F8  A$spi$196 |    000005FA  A$spi$197
     000005FC  A$spi$198 |    000005FD  A$spi$199 |    000005FE  A$spi$200
     000005FF  A$spi$201 |    00000601  A$spi$205 |    00000601  C$spi.c$6
     00000602  A$spi$206 |    00000603  A$spi$207 |    00000606  A$spi$208
     00000607  A$spi$209 |    00000608  A$spi$210 |    0000060B  A$spi$211
     0000060C  A$spi$212 |    0000060D  A$spi$213 |    0000060E  A$spi$214
     0000060F  A$spi$215 |    00000610  A$spi$216 |    00000612  A$spi$217
     00000613  A$spi$218 |    00000614  A$spi$219 |    00000615  A$spi$220
     00000616  A$spi$221 |    00000617  A$spi$222 |    00000619  A$spi$223
     0000061A  A$spi$224 |    0000061B  A$spi$225 |    0000061E  A$spi$226
     0000061F  A$spi$227 |    00000620  A$spi$228 |    00000621  A$spi$229
     00000622  A$spi$230 |    00000623  A$spi$231 |    00000624  A$spi$232
     00000626  A$spi$233 |    00000627  A$spi$234 |    00000628  A$spi$235
     00000629  A$spi$236 |    0000062A  A$spi$237 |    0000062B  A$spi$238
     0000062C  A$spi$239 |    0000062D  A$spi$240 |    0000062E  A$spi$241
     0000062F  A$spi$242 |    00000632  A$spi$243 |    00000633  A$spi$244
     00000634  A$spi$249 |    00000634  C$spi.c$6 |    00000636  A$spi$250
     00000637  A$spi$251 |    00000638  A$spi$252 |    0000063B  A$spi$253
     0000063C  A$spi$254 |    0000063E  A$spi$259 |    0000063E  C$spi.h$7
     00000640  A$spi$260 |    00000641  A$spi$261 |    00000642  A$spi$262
     00000645  A$spi$263 |    00000646  A$spi$264 |    00000648  A$spi$265
     0000064A  A$spi$269 |    0000064A  C$spi.c$7 |    0000064B  A$spi$270
     0000064C  A$spi$271 |    0000064D  A$spi$272 |    00000650  A$spi$273
     00000651  A$spi$274 |    00000652  A$spi$275 |    00000653  A$spi$276
     00000655  A$spi$277 |    00000658  A$spi$278 |    00000659  A$spi$279
ASxxxx Linker V03.00 + NoICE + sdld,  page 8.
Hexadecimal  [32-Bits]

Area                       Addr        Size        Decimal Bytes (Attributes)
--------------------       ----        ----        ------- ----- ------------
_CODE                  00000000    0000159A =        5530. bytes (REL,CON)

        Value  Global            Value  Global            Value  Global    
        -----  ------            -----  ------            -----  ------    
     0000065C  A$spi$280 |    0000065D  A$spi$282 |    0000065E  A$spi$283
     00000660  A$spi$288 |    00000660  C$spi.c$7 |    00000660  XG$spiPro
     00000661  A$spi$301 |    00000661  C$spi.c$8 |    00000661  C$spi.c$8
     00000661  G$spiGetI |    00000661  _spiGetIn |    00000664  A$spi$302
     00000667  A$spi$303 |    00000668  A$spi$304 |    00000669  A$spi$305
     0000066A  A$spi$306 |    0000066C  A$spi$307 |    0000066E  A$spi$308
     0000066F  A$spi$310 |    00000671  A$spi$315 |    00000671  C$spi.c$8
     00000671  XG$spiGet |    00000672  A$spi$328 |    00000672  C$spi.c$9
     00000672  C$spi.c$9 |    00000672  G$spiGetP |    00000672  _spiGetPr
     00000675  A$spi$329 |    00000678  A$spi$330 |    00000679  A$spi$331
     0000067A  A$spi$332 |    0000067B  A$spi$333 |    0000067D  A$spi$334
     0000067F  A$spi$335 |    00000681  A$spi$337 |    00000682  A$spi$339
     00000683  A$spi$344 |    00000683  C$spi.c$9 |    00000683  XG$spiGet
     00000684  A$spi$357 |    00000684  C$spi.c$1 |    00000684  C$spi.c$9
     00000684  G$spiSetI |    00000684  _spiSetIn |    00000687  A$spi$358
     0000068A  A$spi$359 |    0000068B  A$spi$360 |    0000068F  A$spi$361
     00000691  A$spi$362 |    00000694  A$spi$363 |    00000695  A$spi$364
     00000697  A$spi$365 |    00000698  A$spi$366 |    0000069A  A$spi$368
     0000069C  A$spi$370 |    0000069D  A$spi$375 |    0000069D  C$spi.c$1
     0000069D  XG$spiSet |    0000069E  A$spi$388 |    0000069E  C$spi.c$1
     0000069E  C$spi.c$1 |    0000069E  G$spiSetP |    0000069E  _spiSetPr
     000006A1  A$spi$389 |    000006A4  A$spi$390 |    000006A5  A$spi$391
     000006A9  A$spi$392 |    000006AB  A$spi$393 |    000006AE  A$spi$394
     000006AF  A$spi$395 |    000006B1  A$spi$396 |    000006B3  A$spi$397
     000006B5  A$spi$399 |    000006B7  A$spi$401 |    000006B8  A$spi$406
     000006B8  C$spi.c$1 |    000006B8  XG$spiSet |    000006B9  A$spi$419
     000006B9  C$spi.c$1 |    000006B9  C$spi.c$1 |    000006B9  G$spiLock
     000006B9  _spiLock  |    000006BC  A$spi$420 |    000006BD  A$spi$421
     000006BE  A$spi$425 |    000006BE  C$spi.c$1 |    000006BF  A$spi$426
     000006C1  A$spi$427 |    000006C4  A$spi$428 |    000006C5  A$spi$429
     000006C7  A$spi$430 |    000006C9  A$spi$431 |    000006CA  A$spi$436
     000006CA  C$spi.c$1 |    000006CD  A$spi$437 |    000006CE  A$spi$438
     000006D2  A$spi$439 |    000006D4  A$spi$440 |    000006D7  A$spi$441
     000006D8  A$spi$445 |    000006D8  C$spi.c$1 |    000006DA  A$spi$446
     000006DB  A$spi$447 |    000006DC  A$spi$448 |    000006DF  A$spi$449
     000006E0  A$spi$453 |    000006E0  C$spi.c$1 |    000006E1  A$spi$454
     000006E2  A$spi$455 |    000006E3  A$spi$456 |    000006E6  A$spi$457
     000006E7  A$spi$461 |    000006E7  C$spi.c$1 |    000006E9  A$spi$466
     000006E9  C$spi.c$1 |    000006E9  XG$spiLoc |    000006EA  A$spi$479
     000006EA  C$spi.c$1 |    000006EA  C$spi.c$1 |    000006EA  G$spiGetO
     000006EA  _spiGetOu |    000006ED  A$spi$480 |    000006F0  A$spi$481
     000006F1  A$spi$482 |    000006F2  A$spi$483 |    000006F3  A$spi$488
     000006F3  C$spi.c$1 |    000006F3  XG$spiGet |    000006F4  A$spi$501
     000006F4  C$spi.c$1 |    000006F4  C$spi.c$1 |    000006F4  G$spiGetI
     000006F4  _spiGetIn |    000006F7  A$spi$502 |    000006FA  A$spi$503
     000006FB  A$spi$504 |    000006FC  A$spi$505 |    000006FD  A$spi$510
     000006FD  C$spi.c$1 |    000006FD  XG$spiGet |    000006FE  A$spi$520
     000006FE  C$spi.c$1 |    000006FE  G$spiExch |    000006FE  _spiExcha
     00000700  A$spi$521 |    00000704  A$spi$522 |    00000706  A$spi$526
     00000706  C$spi.c$1 |    00000709  A$spi$527 |    0000070A  A$spi$528
     0000070B  A$spi$532 |    0000070B  C$spi.c$1 |    0000070E  A$spi$533
ASxxxx Linker V03.00 + NoICE + sdld,  page 9.
Hexadecimal  [32-Bits]

Area                       Addr        Size        Decimal Bytes (Attributes)
--------------------       ----        ----        ------- ----- ------------
_CODE                  00000000    0000159A =        5530. bytes (REL,CON)

        Value  Global            Value  Global            Value  Global    
        -----  ------            -----  ------            -----  ------    
     0000070F  A$spi$534 |    00000710  A$spi$535 |    00000713  A$spi$536
     00000714  A$spi$540 |    00000714  C$spi.c$1 |    00000717  A$spi$541
     00000718  A$spi$542 |    0000071B  A$spi$543 |    0000071C  A$spi$547
     0000071C  C$spi.h$6 |    0000071D  A$spi$548 |    0000071E  A$spi$549
     00000721  A$spi$550 |    00000722  A$spi$551 |    00000725  A$spi$552
     00000726  A$spi$553 |    00000727  A$spi$554 |    00000729  A$spi$555
     0000072A  A$spi$556 |    0000072B  A$spi$557 |    0000072C  A$spi$558
     0000072D  A$spi$559 |    0000072E  A$spi$560 |    0000072F  A$spi$561
     00000732  A$spi$562 |    00000733  A$spi$563 |    00000734  A$spi$564
     00000735  A$spi$568 |    00000735  C$spi.c$1 |    00000738  A$spi$569
     00000739  A$spi$570 |    0000073A  A$spi$571 |    0000073B  A$spi$572
     0000073D  A$spi$573 |    0000073E  A$spi$574 |    0000073F  A$spi$575
     00000740  A$spi$576 |    00000741  A$spi$577 |    00000742  A$spi$578
     00000743  A$spi$579 |    00000746  A$spi$580 |    00000747  A$spi$581
     00000748  A$spi$582 |    00000749  A$spi$586 |    00000749  C$spi.c$1
     0000074C  A$spi$587 |    0000074D  A$spi$588 |    0000074E  A$spi$589
     0000074F  A$spi$590 |    00000751  A$spi$591 |    00000752  A$spi$592
     00000753  A$spi$593 |    00000754  A$spi$594 |    00000755  A$spi$595
     00000756  A$spi$596 |    00000757  A$spi$597 |    0000075A  A$spi$598
     0000075B  A$spi$602 |    0000075B  C$spi.h$6 |    0000075E  A$spi$603
     0000075F  A$spi$604 |    00000762  A$spi$605 |    00000763  A$spi$613
     00000763  C$spi.c$8 |    00000766  A$spi$614 |    00000769  A$spi$615
     0000076A  A$spi$616 |    0000076B  A$spi$617 |    0000076C  A$spi$618
     0000076E  A$spi$622 |    0000076E  C$spi.c$1 |    00000771  A$spi$623
     00000773  A$spi$625 |    00000775  A$spi$630 |    00000775  C$spi.c$1
     00000775  XG$spiExc |    00000776  A$stdio_s |    00000776  C$stdio_s
     00000776  G$stdio_c |    00000776  _stdio_ch |    00000778  A$stdio_s
     0000077C  A$stdio_s |    0000077E  A$stdio_s |    0000077F  A$stdio_s
     0000077F  C$stdio_s |    00000782  A$stdio_s |    00000783  A$stdio_s
     00000785  A$stdio_s |    00000785  C$stdio_s |    00000788  A$stdio_s
     0000078B  A$stdio_s |    0000078C  A$stdio_s |    0000078D  A$stdio_s
     0000078F  A$stdio_s |    00000791  A$stdio_s |    00000791  C$stdio_s
     00000794  A$stdio_s |    00000796  A$stdio_s |    00000796  C$stdio_s
     00000799  A$stdio_s |    0000079B  A$stdio_s |    0000079B  C$stdio_s
     0000079E  A$stdio_s |    000007A0  A$stdio_s |    000007A0  C$stdio_s
     000007A3  A$stdio_s |    000007A3  C$stdio_s |    000007A4  A$stdio_s
     000007A6  A$stdio_s |    000007A8  A$stdio_s |    000007A8  C$stdio_s
     000007AB  A$stdio_s |    000007AD  A$stdio_s |    000007AD  C$stdio_s
     000007B0  A$stdio_s |    000007B2  A$stdio_s |    000007B2  C$stdio_s
     000007B5  A$stdio_s |    000007B7  A$stdio_s |    000007B7  C$stdio_s
     000007B9  A$stdio_s |    000007B9  C$stdio_s |    000007BC  A$stdio_s
     000007BE  A$stdio_s |    000007C0  A$stdio_s |    000007C2  A$stdio_s
     000007C4  A$stdio_s |    000007C4  C$stdio_s |    000007C7  A$stdio_s
     000007C8  A$stdio_s |    000007CA  A$stdio_s |    000007CC  A$stdio_s
     000007CD  A$stdio_s |    000007CE  A$stdio_s |    000007D0  A$stdio_s
     000007D1  A$stdio_s |    000007D2  A$stdio_s |    000007D5  A$stdio_s
     000007D7  A$stdio_s |    000007D8  A$stdio_s |    000007D9  A$stdio_s
     000007DA  A$stdio_s |    000007DD  A$stdio_s |    000007DF  A$stdio_s
     000007E2  A$stdio_s |    000007E5  A$stdio_s |    000007E7  A$stdio_s
     000007E8  A$stdio_s |    000007EA  A$stdio_s |    000007ED  A$stdio_s
     000007F0  A$stdio_s |    000007F0  C$stdio_s |    000007F3  A$stdio_s
ASxxxx Linker V03.00 + NoICE + sdld,  page 10.
Hexadecimal  [32-Bits]

Area                       Addr        Size        Decimal Bytes (Attributes)
--------------------       ----        ----        ------- ----- ------------
_CODE                  00000000    0000159A =        5530. bytes (REL,CON)

        Value  Global            Value  Global            Value  Global    
        -----  ------            -----  ------            -----  ------    
     000007F6  A$stdio_s |    000007F8  A$stdio_s |    000007F9  A$stdio_s
     000007FC  A$stdio_s |    000007FF  A$stdio_s |    00000802  A$stdio_s
     00000804  A$stdio_s |    00000805  A$stdio_s |    00000806  A$stdio_s
     00000807  A$stdio_s |    0000080A  A$stdio_s |    0000080D  A$stdio_s
     0000080E  A$stdio_s |    0000080F  A$stdio_s |    0000080F  C$stdio_s
     00000812  A$stdio_s |    00000813  A$stdio_s |    00000816  A$stdio_s
     00000817  A$stdio_s |    00000817  C$stdio_s |    00000819  A$stdio_s
     0000081D  A$stdio_s |    00000820  A$stdio_s |    00000822  A$stdio_s
     00000826  A$stdio_s |    00000828  A$stdio_s |    0000082A  A$stdio_s
     0000082A  C$stdio_s |    0000082A  XG$stdio_ |    0000082B  A$stdio_s
     0000082B  C$stdio_s |    0000082B  C$stdio_s |    0000082B  G$stdio_i
     0000082B  _stdio_in |    0000082E  A$stdio_s |    0000082F  A$stdio_s
     00000830  A$stdio_s |    00000831  A$stdio_s |    00000832  A$stdio_s
     00000835  A$stdio_s |    00000836  A$stdio_s |    00000837  A$stdio_s
     00000837  C$stdio_s |    0000083A  A$stdio_s |    0000083C  A$stdio_s
     0000083C  C$stdio_s |    0000083F  A$stdio_s |    00000841  A$stdio_s
     00000841  C$stdio_s |    00000842  A$stdio_s |    00000843  A$stdio_s
     00000844  A$stdio_s |    00000847  A$stdio_s |    00000848  A$stdio_s
     00000848  C$stdio_s |    0000084A  A$stdio_s |    0000084B  A$stdio_s
     0000084C  A$stdio_s |    0000084F  A$stdio_s |    00000850  A$stdio_s
     00000850  C$stdio_s |    00000853  A$stdio_s |    00000855  A$stdio_s
     00000855  C$stdio_s |    00000855  XG$stdio_ |    00000856  A$stdio_s
     00000856  C$stdio_s |    00000856  G$spi_put |    00000856  _spi_puts
     00000857  A$stdio_s |    00000857  C$stdio_s |    0000085A  A$stdio_s
     0000085B  A$stdio_s |    0000085C  A$stdio_s |    0000085D  A$stdio_s
     0000085E  A$stdio_s |    0000085F  A$stdio_s |    00000862  A$stdio_s
     00000863  A$stdio_s |    00000864  A$stdio_s |    00000865  A$stdio_s
     00000866  A$stdio_s |    00000866  C$stdio_s |    00000867  A$stdio_s
     00000868  A$stdio_s |    00000869  A$stdio_s |    0000086C  A$stdio_s
     0000086D  A$stdio_s |    0000086E  A$stdio_s |    0000086F  A$stdio_s
     00000871  A$stdio_s |    00000874  A$stdio_s |    00000876  A$stdio_s
     00000876  C$stdio_s |    00000879  A$stdio_s |    0000087A  A$stdio_s
     0000087B  A$stdio_s |    0000087C  A$stdio_s |    00000880  A$stdio_s
     00000882  A$stdio_s |    00000885  A$stdio_s |    00000888  A$stdio_s
     00000889  A$stdio_s |    0000088A  A$stdio_s |    0000088D  A$stdio_s
     00000890  A$stdio_s |    00000891  A$stdio_s |    00000892  A$stdio_s
     00000892  C$stdio_s |    00000895  A$stdio_s |    00000896  A$stdio_s
     00000897  A$stdio_s |    00000898  A$stdio_s |    00000899  A$stdio_s
     0000089A  A$stdio_s |    0000089B  A$stdio_s |    0000089C  A$stdio_s
     0000089F  A$stdio_s |    000008A0  A$stdio_s |    000008A1  A$stdio_s
     000008A1  C$stdio_s |    000008A1  XG$spi_pu |    000008A2  A$stdio_s
     000008A2  C$stdio_s |    000008A2  G$putchar |    000008A2  _putchari
     000008A5  A$stdio_s |    000008A6  A$stdio_s |    000008A7  A$stdio_s
     000008A8  A$stdio_s |    000008A9  A$stdio_s |    000008AC  A$stdio_s
     000008AD  A$stdio_s |    000008AD  C$stdio_s |    000008AD  XG$putcha
     000008B0  A$stdio_s |    000008B0  C$stdio_s |    000008B0  G$putchar
     000008B0  _putchar  |    000008B2  A$stdio_s |    000008B6  A$stdio_s
     000008B8  A$stdio_s |    000008B8  C$stdio_s |    000008BB  A$stdio_s
     000008BC  A$stdio_s |    000008BE  A$stdio_s |    000008BE  C$stdio_s
     000008C1  A$stdio_s |    000008C5  A$stdio_s |    000008C8  A$stdio_s
     000008CB  A$stdio_s |    000008CC  A$stdio_s |    000008CE  A$stdio_s
ASxxxx Linker V03.00 + NoICE + sdld,  page 11.
Hexadecimal  [32-Bits]

Area                       Addr        Size        Decimal Bytes (Attributes)
--------------------       ----        ----        ------- ----- ------------
_CODE                  00000000    0000159A =        5530. bytes (REL,CON)

        Value  Global            Value  Global            Value  Global    
        -----  ------            -----  ------            -----  ------    
     000008CF  A$stdio_s |    000008D2  A$stdio_s |    000008D3  A$stdio_s
     000008D3  C$stdio_s |    000008D6  A$stdio_s |    000008D8  A$stdio_s
     000008DA  A$stdio_s |    000008DC  A$stdio_s |    000008DE  A$stdio_s
     000008DF  A$stdio_s |    000008E0  A$stdio_s |    000008E1  A$stdio_s
     000008E3  A$stdio_s |    000008E7  A$stdio_s |    000008EA  A$stdio_s
     000008ED  A$stdio_s |    000008EE  A$stdio_s |    000008F0  A$stdio_s
     000008F1  A$stdio_s |    000008F3  A$stdio_s |    000008F3  C$stdio_s
     000008F4  A$stdio_s |    000008F5  A$stdio_s |    000008F7  A$stdio_s
     000008FA  A$stdio_s |    000008FC  A$stdio_s |    000008FE  A$stdio_s
     00000901  A$stdio_s |    00000903  A$stdio_s |    00000903  C$stdio_s
     00000903  XG$putcha |    00000904  A$stdio_s |    00000904  C$stdio_s
     00000904  C$stdio_s |    00000904  G$outboun |    00000904  _outbound
     00000907  A$stdio_s |    0000090A  A$stdio_s |    0000090C  A$stdio_s
     0000090D  A$stdio_s |    0000090F  A$stdio_s |    0000090F  C$stdio_s
     00000910  A$stdio_s |    00000913  A$stdio_s |    00000914  A$stdio_s
     00000914  C$stdio_s |    00000917  A$stdio_s |    00000919  A$stdio_s
     00000919  C$stdio_s |    00000919  XG$outbou |    0000091A  A$stdio_s
     0000091A  C$stdio_s |    0000091A  C$stdio_s |    0000091A  G$spi_ava
     0000091A  _spi_avai |    0000091E  A$stdio_s |    00000921  A$stdio_s
     00000921  C$stdio_s |    00000921  XG$spi_av |    00000922  A$stdio_s
     00000922  C$stdio_s |    00000922  C$stdio_s |    00000922  G$getchar
     00000922  _getchar  |    00000925  A$stdio_s |    00000926  A$stdio_s
     00000927  A$stdio_s |    00000927  C$stdio_s |    0000092A  A$stdio_s
     0000092B  A$stdio_s |    0000092D  A$stdio_s |    0000092E  A$stdio_s
     0000092F  A$stdio_s |    0000092F  C$stdio_s |    00000931  A$stdio_s
     00000935  A$stdio_s |    00000938  A$stdio_s |    0000093A  A$stdio_s
     0000093A  C$stdio_s |    0000093B  A$stdio_s |    0000093E  A$stdio_s
     00000940  A$stdio_s |    00000941  A$stdio_s |    00000942  A$stdio_s
     00000943  A$stdio_s |    00000946  A$stdio_s |    00000947  A$stdio_s
     0000094A  A$stdio_s |    0000094D  A$stdio_s |    0000094E  A$stdio_s
     0000094F  A$stdio_s |    00000950  A$stdio_s |    00000950  C$stdio_s
     00000953  A$stdio_s |    00000954  A$stdio_s |    00000954  C$stdio_s
     00000955  A$stdio_s |    00000955  C$stdio_s |    00000955  XG$getcha
     00000956  A$stdio_s |    00000956  C$stdio_s |    00000956  C$stdio_s
     00000956  G$inbound |    00000956  _inbound_ |    00000959  A$stdio_s
     0000095B  A$stdio_s |    0000095B  C$stdio_s |    0000095B  XG$inboun
     0000095C  A$stdio_s |    0000095C  C$stdio_s |    0000095C  C$stdio_s
     0000095C  G$spi_con |    0000095C  _spi_conn |    00000960  A$stdio_s
     00000963  A$stdio_s |    00000963  C$stdio_s |    00000963  XG$spi_co
     00000984  _vsprintf |    000009B9  _sprintf  |    000009EE  ___sdcc_c
     000009EF  _puts     |    00000A2C  _vprintf  |    00000A4C  _printf  
     00000A69  _strlen   |    00000B7B  __print_f
ASxxxx Linker V03.00 + NoICE + sdld,  page 12.
Hexadecimal  [32-Bits]

Area                       Addr        Size        Decimal Bytes (Attributes)
--------------------       ----        ----        ------- ----- ------------
_VECT00                00000000    00000006 =           6. bytes (ABS,CON)

        Value  Global            Value  Global            Value  Global    
        -----  ------            -----  ------            -----  ------    
     00000000  A$_boot$2 |    00000003  A$_boot$2
ASxxxx Linker V03.00 + NoICE + sdld,  page 13.
Hexadecimal  [32-Bits]

Area                       Addr        Size        Decimal Bytes (Attributes)
--------------------       ----        ----        ------- ----- ------------
_VECT11                00000000    00000002 =           2. bytes (ABS,CON)

        Value  Global            Value  Global            Value  Global    
        -----  ------            -----  ------            -----  ------    
     00000008  A$_boot$3
ASxxxx Linker V03.00 + NoICE + sdld,  page 14.
Hexadecimal  [32-Bits]

Area                       Addr        Size        Decimal Bytes (Attributes)
--------------------       ----        ----        ------- ----- ------------
_VECT22                00000000    00000002 =           2. bytes (ABS,CON)

        Value  Global            Value  Global            Value  Global    
        -----  ------            -----  ------            -----  ------    
     00000010  A$_boot$3
ASxxxx Linker V03.00 + NoICE + sdld,  page 15.
Hexadecimal  [32-Bits]

Area                       Addr        Size        Decimal Bytes (Attributes)
--------------------       ----        ----        ------- ----- ------------
_VECT33                00000000    00000002 =           2. bytes (ABS,CON)

        Value  Global            Value  Global            Value  Global    
        -----  ------            -----  ------            -----  ------    
     00000018  A$_boot$4
ASxxxx Linker V03.00 + NoICE + sdld,  page 16.
Hexadecimal  [32-Bits]

Area                       Addr        Size        Decimal Bytes (Attributes)
--------------------       ----        ----        ------- ----- ------------
_VECT44                00000000    00000002 =           2. bytes (ABS,CON)

        Value  Global            Value  Global            Value  Global    
        -----  ------            -----  ------            -----  ------    
     00000020  A$_boot$4
ASxxxx Linker V03.00 + NoICE + sdld,  page 17.
Hexadecimal  [32-Bits]

Area                       Addr        Size        Decimal Bytes (Attributes)
--------------------       ----        ----        ------- ----- ------------
_VECT55                00000000    00000002 =           2. bytes (ABS,CON)

        Value  Global            Value  Global            Value  Global    
        -----  ------            -----  ------            -----  ------    
     00000028  A$_boot$4
ASxxxx Linker V03.00 + NoICE + sdld,  page 18.
Hexadecimal  [32-Bits]

Area                       Addr        Size        Decimal Bytes (Attributes)
--------------------       ----        ----        ------- ----- ------------
_VECT66                00000000    00000002 =           2. bytes (ABS,CON)

        Value  Global            Value  Global            Value  Global    
        -----  ------            -----  ------            -----  ------    
     00000030  A$_boot$5
ASxxxx Linker V03.00 + NoICE + sdld,  page 19.
Hexadecimal  [32-Bits]

Area                       Addr        Size        Decimal Bytes (Attributes)
--------------------       ----        ----        ------- ----- ------------
_VECT77                00000000    0000002D =          45. bytes (ABS,CON)

        Value  Global            Value  Global            Value  Global    
        -----  ------            -----  ------            -----  ------    
     00000038  A$_boot$5 |    0000003C  A$_boot$5 |    0000003F  A$_boot$5
     00000040  A$_boot$6 |    00000041  A$_boot$6 |    00000044  A$_boot$6
     00000045  A$_boot$6 |    00000046  A$_boot$6 |    0000004A  A$_boot$6
     0000004B  A$_boot$6
ASxxxx Linker V03.00 + NoICE + sdld,  page 20.
Hexadecimal  [32-Bits]

Area                       Addr        Size        Decimal Bytes (Attributes)
--------------------       ----        ----        ------- ----- ------------
_VECT_NMI8             00000000    00000026 =          38. bytes (ABS,CON)

        Value  Global            Value  Global            Value  Global    
        -----  ------            -----  ------            -----  ------    
     00000066  A$_boot$7 |    0000006A  A$_boot$7 |    0000006D  A$_boot$7
     0000006E  A$_boot$7 |    0000006F  A$_boot$8 |    00000072  A$_boot$8
     00000073  A$_boot$8 |    00000074  A$_boot$8 |    00000078  A$_boot$8
ASxxxx Linker V03.00 + NoICE + sdld,  page 21.
Hexadecimal  [32-Bits]

Area                       Addr        Size        Decimal Bytes (Attributes)
--------------------       ----        ----        ------- ----- ------------
_INITIALIZER           0000159A    00000005 =           5. bytes (REL,CON)

        Value  Global            Value  Global            Value  Global    
        -----  ------            -----  ------            -----  ------    
     0000159A  Flibrary$ |    0000159E  Fstdio_sp
ASxxxx Linker V03.00 + NoICE + sdld,  page 22.
Hexadecimal  [32-Bits]

Area                       Addr        Size        Decimal Bytes (Attributes)
--------------------       ----        ----        ------- ----- ------------
_INITIALIZED           0000159F    00000005 =           5. bytes (REL,CON)

        Value  Global            Value  Global            Value  Global    
        -----  ------            -----  ------            -----  ------    
     0000159F  Flibrary$ |    000015A3  Fstdio_sp
ASxxxx Linker V03.00 + NoICE + sdld,  page 23.
Hexadecimal  [32-Bits]

Area                       Addr        Size        Decimal Bytes (Attributes)
--------------------       ----        ----        ------- ----- ------------
_GSINIT                000015A4    00000018 =          24. bytes (REL,CON)

        Value  Global            Value  Global            Value  Global    
        -----  ------            -----  ------            -----  ------    
     000015A4  A$_boot$1 |    000015A7  A$_boot$1 |    000015AA  A$_boot$1
     000015AC  A$_boot$1 |    000015AD  A$_boot$1 |    000015AE  A$_boot$1
     000015AF  A$_boot$1 |    000015B0  A$_boot$1 |    000015B1  A$_boot$1
     000015B3  A$_boot$1 |    000015B6  A$_boot$1 |    000015B9  A$_boot$1
     000015BB  A$_boot$1
ASxxxx Linker V03.00 + NoICE + sdld,  page 24.
Hexadecimal  [32-Bits]

Area                       Addr        Size        Decimal Bytes (Attributes)
--------------------       ----        ----        ------- ----- ------------
_SYSTEM_CODE           000015BC    00000121 =         289. bytes (REL,CON)

        Value  Global            Value  Global            Value  Global    
        -----  ------            -----  ------            -----  ------    
     000015BC  A$_boot$1 |    000015BF  A$_boot$1 |    000015C1  A$_boot$1
     000015C4  A$_boot$1 |    000015C6  A$_boot$1 |    000015C8  A$_boot$1
     000015CB  A$_boot$1 |    000015CD  A$_boot$1 |    000015D0  A$_boot$1
     000015D3  A$_boot$1 |    000015D6  A$_boot$1 |    000015D7  A$_boot$1
     000015D8  A$_boot$1 |    000015D9  A$_boot$1 |    000015DC  A$_boot$1
     000015DF  A$_boot$1 |    000015E2  A$_boot$1 |    000015E3  A$_boot$1
     000015E4  A$_boot$1 |    000015E8  A$_boot$1 |    000015EC  A$_boot$1
     000015ED  A$_boot$1 |    000015EE  A$_boot$1 |    000015EE  _OUT     
     000015EF  A$_boot$1 |    000015F0  A$_boot$1 |    000015F2  A$_boot$1
     000015F6  A$_boot$1 |    000015F8  A$_boot$1 |    000015FB  A$_boot$1
     000015FE  A$_boot$1 |    00001600  A$_boot$1 |    00001602  A$_boot$1
     00001603  A$_boot$1 |    00001604  A$_boot$1 |    00001605  A$_boot$1
     00001605  _IN       |    00001606  A$_boot$1 |    00001607  A$_boot$1
     00001609  A$_boot$1 |    0000160D  A$_boot$1 |    0000160F  A$_boot$1
     00001612  A$_boot$1 |    00001614  A$_boot$1 |    00001616  A$_boot$1
     00001617  A$_boot$1 |    00001619  A$_boot$1 |    0000161A  A$_boot$1
     0000161B  A$_boot$1 |    0000161C  A$_boot$2 |    0000161C  _OUTI    
     0000161D  A$_boot$2 |    0000161E  A$_boot$2 |    0000161F  A$_boot$2
     00001621  A$_boot$2 |    00001625  A$_boot$2 |    00001627  A$_boot$2
     0000162A  A$_boot$2 |    0000162D  A$_boot$2 |    00001630  A$_boot$2
     00001633  A$_boot$2 |    00001635  A$_boot$2 |    00001637  A$_boot$2
     00001638  A$_boot$2 |    00001639  A$_boot$2 |    0000163A  A$_boot$2
     0000163B  A$_boot$2 |    0000163B  _INI      |    0000163C  A$_boot$2
     0000163D  A$_boot$2 |    0000163E  A$_boot$2 |    00001640  A$_boot$2
     00001644  A$_boot$2 |    00001646  A$_boot$2 |    00001649  A$_boot$2
     0000164C  A$_boot$2 |    0000164F  A$_boot$2 |    00001652  A$_boot$2
     00001654  A$_boot$2 |    00001656  A$_boot$2 |    00001657  A$_boot$2
     00001658  A$_boot$2 |    00001659  A$_boot$2 |    0000165A  A$_boot$2
     0000165A  _memset   |    0000165B  A$_boot$2 |    0000165C  A$_boot$2
     0000165D  A$_boot$2 |    0000165E  A$_boot$2 |    00001660  A$_boot$2
     00001664  A$_boot$2 |    00001666  A$_boot$2 |    00001669  A$_boot$2
     0000166C  A$_boot$2 |    0000166F  A$_boot$2 |    00001672  A$_boot$2
     00001675  A$_boot$2 |    00001678  A$_boot$2 |    0000167B  A$_boot$2
     0000167C  A$_boot$2 |    0000167D  A$_boot$2 |    0000167E  A$_boot$2
     0000167F  A$_boot$2 |    00001680  A$_boot$2 |    00001682  A$_boot$2
     00001684  A$_boot$2 |    00001686  A$_boot$2 |    00001686  _memcpy  
     00001687  A$_boot$2 |    00001688  A$_boot$2 |    00001689  A$_boot$2
     0000168A  A$_boot$2 |    0000168C  A$_boot$2 |    00001690  A$_boot$2
     00001692  A$_boot$2 |    00001695  A$_boot$2 |    00001698  A$_boot$2
     0000169B  A$_boot$2 |    0000169E  A$_boot$2 |    000016A1  A$_boot$2
     000016A4  A$_boot$2 |    000016A5  A$_boot$2 |    000016A6  A$_boot$2
     000016A8  A$_boot$2 |    000016AA  A$_boot$2 |    000016AC  A$_boot$2
     000016AD  A$_boot$2 |    000016AE  A$_boot$2 |    000016AF  A$_boot$2
     000016B0  A$_boot$2 |    000016B1  A$_boot$2 |    000016B1  debug    
     000016B4  A$_boot$2 |    000016B6  A$_boot$3 |    000016B9  A$_boot$3
     000016BB  A$_boot$3 |    000016BC  A$_boot$3 |    000016BE  A$_boot$3
     000016BF  A$_boot$3 |    000016C1  A$_boot$3 |    000016C2  A$_boot$3
     000016C4  A$_boot$3 |    000016C7  A$_boot$3 |    000016C9  A$_boot$3
     000016CB  A$_boot$3 |    000016CD  A$_boot$3 |    000016CF  A$_boot$3
     000016D1  A$_boot$3 |    000016D3  A$_boot$3 |    000016D5  A$_boot$3
ASxxxx Linker V03.00 + NoICE + sdld,  page 25.
Hexadecimal  [32-Bits]

Area                       Addr        Size        Decimal Bytes (Attributes)
--------------------       ----        ----        ------- ----- ------------
_SYSTEM_CODE           000015BC    00000121 =         289. bytes (REL,CON)

        Value  Global            Value  Global            Value  Global    
        -----  ------            -----  ------            -----  ------    
     000016D7  A$_boot$3 |    000016D9  A$_boot$3 |    000016DB  A$_boot$3
ASxxxx Linker V03.00 + NoICE + sdld,  page 26.
Hexadecimal  [32-Bits]

Area                       Addr        Size        Decimal Bytes (Attributes)
--------------------       ----        ----        ------- ----- ------------
_DATA                  000016DD    0000047F =        1151. bytes (REL,CON)

        Value  Global            Value  Global            Value  Global    
        -----  ------            -----  ------            -----  ------    
     000016DD  Flibrary$ |    00001B00  Fstdio_sp |    00001B08  Fstdio_sp
     00001B5A  Fstdio_sp |    00001B5B  Fstdio_sp
ASxxxx Linker V03.00 + NoICE + sdld,  page 27.

Files Linked                              [ module(s) ]

_boot.rel                                 [ bootblk ]
hdmi.rel                                  [ hdmi ]
interrupt.rel                             [ interrupt ]
library.rel                               [ library ]
main.rel                                  [ main ]
spi.rel                                   [ spi ]
stdio_spi.rel                             [ stdio_spi ]


Libraries Linked                          [ object file ]

/usr/share/sdcc/lib/z80/z80.lib           [ sprintf.rel ]
/usr/share/sdcc/lib/z80/z80.lib           [ __sdcc_call_hl.rel ]
/usr/share/sdcc/lib/z80/z80.lib           [ puts.rel ]
/usr/share/sdcc/lib/z80/z80.lib           [ vprintf.rel ]
/usr/share/sdcc/lib/z80/z80.lib           [ strlen.rel ]
/usr/share/sdcc/lib/z80/z80.lib           [ printf_large.rel ]


