ASxxxx Linker V03.00 + NoICE + sdld,  page 1.
Hexadecimal  [32-Bits]

Area                       Addr        Size        Decimal Bytes (Attributes)
--------------------       ----        ----        ------- ----- ------------
.  .ABS.               00000000    00000000 =           0. bytes (ABS,CON)

        Value  Global            Value  Global            Value  Global    
        -----  ------            -----  ------            -----  ------    
     00000000  .__.ABS.  |    00000000  l__CABS   |    00000000  l__DABS  
     00000000  l__GSFINA |    00000000  l__VECT0  |    00000000  l__VECT1 
     00000000  l__VECT2  |    00000000  l__VECT3  |    00000000  l__VECT4 
     00000000  l__VECT5  |    00000000  l__VECT6  |    00000000  l__VECT7 
     00000000  l__VECT_N |    00000000  s__CABS   |    00000000  s__CODE  
     00000000  s__DABS   |    00000000  s__VECT0  |    00000000  s__VECT00
     00000000  s__VECT1  |    00000000  s__VECT11 |    00000000  s__VECT2 
     00000000  s__VECT22 |    00000000  s__VECT3  |    00000000  s__VECT33
     00000000  s__VECT4  |    00000000  s__VECT44 |    00000000  s__VECT5 
     00000000  s__VECT55 |    00000000  s__VECT6  |    00000000  s__VECT66
     00000000  s__VECT7  |    00000000  s__VECT77 |    00000000  s__VECT_N
     00000000  s__VECT_N |    00000002  l__VECT11 |    00000002  l__VECT22
     00000002  l__VECT33 |    00000002  l__VECT44 |    00000002  l__VECT55
     00000002  l__VECT66 |    00000006  l__VECT00 |    00000017  l__GSINIT
     00000026  l__VECT_N |    0000002D  l__VECT77 |    00000100  l__END_IN
     00000140  l__INITIA |    00000140  l__INITIA |    000001D8  l__SYSTEM
     00000213  l__HOME   |    00001573  l__DATA   |    000084DB  l__CODE  
     000084DB  s__SYSTEM |    000086B3  s__GSINIT |    000086CA  s__INITIA
     0000880A  s__END_IN |    0000890A  s__DATA   |    00009E7D  s__INITIA
     00009FBD  s__HOME   |    0000A1D0  s__GSFINA
ASxxxx Linker V03.00 + NoICE + sdld,  page 2.
Hexadecimal  [32-Bits]

Area                       Addr        Size        Decimal Bytes (Attributes)
--------------------       ----        ----        ------- ----- ------------
_CODE                  00000000    000084DB =       34011. bytes (REL,CON)

        Value  Global            Value  Global            Value  Global    
        -----  ------            -----  ------            -----  ------    
     0000008C  A$asmi$65 |    0000008C  C$asmi.c$ |    0000008C  C$asmi.c$
     0000008C  G$asmiAdd |    0000008C  _asmiAddr |    0000008F  A$asmi$66
     00000090  A$asmi$67 |    00000091  A$asmi$68 |    00000092  A$asmi$69
     00000093  A$asmi$70 |    00000095  A$asmi$71 |    00000096  A$asmi$72
     00000097  A$asmi$73 |    0000009A  A$asmi$74 |    0000009B  A$asmi$78
     0000009B  C$asmi.c$ |    0000009C  A$asmi$79 |    0000009D  A$asmi$80
     0000009E  A$asmi$81 |    0000009F  A$asmi$82 |    000000A1  A$asmi$83
     000000A2  A$asmi$84 |    000000A3  A$asmi$85 |    000000A5  A$asmi$86
     000000A6  A$asmi$87 |    000000A7  A$asmi$88 |    000000AA  A$asmi$89
     000000AB  A$asmi$93 |    000000AB  C$asmi.c$ |    000000AF  A$asmi$94
     000000B1  A$asmi$95 |    000000B4  A$asmi$96 |    000000B7  A$asmi$97
     000000B8  A$asmi$98 |    000000B9  A$asmi$99 |    000000BB  A$asmi$10
     000000BC  A$asmi$10 |    000000BD  A$asmi$10 |    000000C0  A$asmi$10
     000000C1  A$asmi$10 |    000000C1  C$asmi.c$ |    000000C4  A$asmi$10
     000000C5  A$asmi$10 |    000000C6  A$asmi$11 |    000000C8  A$asmi$11
     000000C9  A$asmi$11 |    000000CA  A$asmi$11 |    000000CC  A$asmi$11
     000000CD  A$asmi$11 |    000000CE  A$asmi$11 |    000000D1  A$asmi$11
     000000D2  A$asmi$12 |    000000D2  C$asmi.c$ |    000000D2  XG$asmiAd
     000000D3  A$asmi$13 |    000000D3  C$asmi.c$ |    000000D3  C$asmi.c$
     000000D3  G$asmiRea |    000000D3  _asmiRead |    000000D6  A$asmi$13
     000000D7  A$asmi$14 |    000000DA  A$asmi$14 |    000000DB  A$asmi$14
     000000DB  C$asmi.c$ |    000000DE  A$asmi$14 |    000000DF  A$asmi$14
     000000E1  A$asmi$14 |    000000E2  A$asmi$15 |    000000E4  A$asmi$15
     000000E5  A$asmi$15 |    000000E6  A$asmi$15 |    000000E7  A$asmi$15
     000000E8  A$asmi$15 |    000000E9  A$asmi$15 |    000000EA  A$asmi$15
     000000EC  A$asmi$15 |    000000ED  A$asmi$15 |    000000EF  A$asmi$16
     000000EF  C$asmi.c$ |    000000F1  A$asmi$16 |    000000F2  A$asmi$16
     000000F3  A$asmi$16 |    000000F6  A$asmi$16 |    000000F7  A$asmi$17
     000000F7  C$asmi.c$ |    000000F7  XG$asmiRe |    000000F8  A$asmi$18
     000000F8  C$asmi.c$ |    000000F8  C$asmi.c$ |    000000F8  G$asmiSta
     000000F8  _asmiStat |    000000FA  A$asmi$19 |    000000FB  A$asmi$19
     000000FC  A$asmi$19 |    000000FF  A$asmi$19 |    00000100  A$asmi$20
     00000100  C$asmi.c$ |    00000100  XG$asmiSt |    00000101  A$asmi$21
     00000101  C$asmi.c$ |    00000101  G$asmiCop |    00000101  _asmiCopy
     00000103  A$asmi$21 |    00000107  A$asmi$21 |    00000109  A$asmi$21
     0000010C  A$asmi$21 |    0000010D  A$asmi$21 |    0000010E  A$asmi$22
     0000010E  C$asmi.c$ |    00000111  A$asmi$22 |    00000114  A$asmi$22
     00000117  A$asmi$22 |    00000117  C$asmi.c$ |    00000119  A$asmi$22
     0000011C  A$asmi$23 |    0000011C  C$asmi.c$ |    0000011F  A$asmi$23
     0000011F  C$asmi.c$ |    00000121  A$asmi$23 |    00000124  A$asmi$24
     00000124  C$asmi.c$ |    00000127  A$asmi$24 |    00000127  C$asmi.c$
     0000012A  A$asmi$24 |    0000012C  A$asmi$24 |    0000012F  A$asmi$24
     00000131  A$asmi$24 |    00000132  A$asmi$25 |    00000134  A$asmi$25
     00000136  A$asmi$25 |    00000138  A$asmi$25 |    0000013B  A$asmi$25
     0000013E  A$asmi$25 |    0000013F  A$asmi$25 |    00000141  A$asmi$25
     00000144  A$asmi$25 |    00000145  A$asmi$25 |    00000147  A$asmi$26
     0000014A  A$asmi$26 |    0000014A  C$asmi.c$ |    0000014D  A$asmi$26
     0000014F  A$asmi$26 |    00000150  A$asmi$26 |    00000153  A$asmi$26
     00000154  A$asmi$26 |    00000155  A$asmi$27 |    00000158  A$asmi$27
     0000015B  A$asmi$27 |    0000015C  A$asmi$27 |    0000015F  A$asmi$27
ASxxxx Linker V03.00 + NoICE + sdld,  page 3.
Hexadecimal  [32-Bits]

Area                       Addr        Size        Decimal Bytes (Attributes)
--------------------       ----        ----        ------- ----- ------------
_CODE                  00000000    000084DB =       34011. bytes (REL,CON)

        Value  Global            Value  Global            Value  Global    
        -----  ------            -----  ------            -----  ------    
     00000162  A$asmi$27 |    00000163  A$asmi$27 |    00000166  A$asmi$27
     00000167  A$asmi$27 |    00000168  A$asmi$27 |    0000016B  A$asmi$28
     0000016E  A$asmi$28 |    0000016F  A$asmi$28 |    00000170  A$asmi$28
     00000170  C$asmi.c$ |    00000173  A$asmi$28 |    00000174  A$asmi$28
     00000177  A$asmi$28 |    00000178  A$asmi$29 |    00000178  C$asmi.c$
     0000017B  A$asmi$29 |    0000017E  A$asmi$29 |    0000017F  A$asmi$29
     00000182  A$asmi$29 |    00000185  A$asmi$29 |    00000186  A$asmi$29
     00000189  A$asmi$30 |    0000018A  A$asmi$30 |    0000018A  C$asmi.c$
     0000018C  A$asmi$30 |    0000018D  A$asmi$30 |    0000018E  A$asmi$30
     00000191  A$asmi$30 |    00000192  A$asmi$30 |    00000194  A$asmi$31
     00000195  A$asmi$31 |    00000196  A$asmi$31 |    00000199  A$asmi$31
     0000019A  A$asmi$31 |    0000019C  A$asmi$31 |    0000019D  A$asmi$31
     0000019E  A$asmi$31 |    000001A1  A$asmi$31 |    000001A2  A$asmi$31
     000001A4  A$asmi$32 |    000001A5  A$asmi$32 |    000001A6  A$asmi$32
     000001A9  A$asmi$32 |    000001AA  A$asmi$32 |    000001AA  C$asmi.c$
     000001AD  A$asmi$32 |    000001AE  A$asmi$32 |    000001AF  A$asmi$33
     000001B2  A$asmi$33 |    000001B3  A$asmi$33 |    000001B3  C$asmi.c$
     000001B5  A$asmi$34 |    000001B5  C$asmi.c$ |    000001B8  A$asmi$34
     000001BB  A$asmi$34 |    000001BE  A$asmi$34 |    000001BF  A$asmi$34
     000001C0  A$asmi$34 |    000001C1  A$asmi$34 |    000001C2  A$asmi$34
     000001C5  A$asmi$34 |    000001C6  A$asmi$35 |    000001C7  A$asmi$35
     000001C8  A$asmi$35 |    000001C9  A$asmi$35 |    000001CA  A$asmi$35
     000001CB  A$asmi$35 |    000001CC  A$asmi$35 |    000001CE  A$asmi$35
     000001D0  A$asmi$36 |    000001D0  C$asmi.c$ |    000001D1  A$asmi$36
     000001D4  A$asmi$36 |    000001D5  A$asmi$36 |    000001D8  A$asmi$36
     000001DB  A$asmi$36 |    000001DC  A$asmi$36 |    000001DF  A$asmi$36
     000001E0  A$asmi$36 |    000001E1  A$asmi$37 |    000001E2  A$asmi$37
     000001E2  C$asmi.c$ |    000001E3  A$asmi$37 |    000001E4  A$asmi$37
     000001E6  A$asmi$37 |    000001E8  A$asmi$38 |    000001EA  A$asmi$38
     000001EC  A$asmi$38 |    000001EC  C$asmi.c$ |    000001EC  XG$asmiCo
     000001ED  Fasmi$__s |    0000021F  Fasmi$__s |    0000025D  Fasmi$__s
     00000280  Fasmi$__s |    000002A2  A$config$ |    000002A2  C$config.
     000002A2  G$configI |    000002A2  _configIn |    000002A4  A$config$
     000002A8  A$config$ |    000002AA  A$config$ |    000002AB  A$config$
     000002AB  C$config. |    000002AE  A$config$ |    000002B1  A$config$
     000002B2  A$config$ |    000002B3  A$config$ |    000002B3  C$config.
     000002B6  A$config$ |    000002B7  A$config$ |    000002B9  A$config$
     000002B9  C$config. |    000002BA  A$config$ |    000002BB  A$config$
     000002BC  A$config$ |    000002BD  A$config$ |    000002C0  A$config$
     000002C1  A$config$ |    000002C4  A$config$ |    000002C7  A$config$
     000002C8  A$config$ |    000002CB  A$config$ |    000002CC  A$config$
     000002CD  A$config$ |    000002CE  A$config$ |    000002CF  A$config$
     000002D0  A$config$ |    000002D2  A$config$ |    000002D2  C$config.
     000002D3  A$config$ |    000002D6  A$config$ |    000002D7  A$config$
     000002DA  A$config$ |    000002DB  A$config$ |    000002DC  A$config$
     000002DE  A$config$ |    000002DE  C$config. |    000002DF  A$config$
     000002E2  A$config$ |    000002E3  A$config$ |    000002E6  A$config$
     000002E7  A$config$ |    000002E8  A$config$ |    000002E8  C$config.
     000002E9  A$config$ |    000002EA  A$config$ |    000002EB  A$config$
     000002EC  A$config$ |    000002ED  A$config$ |    000002EE  A$config$
     000002EF  A$config$ |    000002F0  A$config$ |    000002F1  A$config$
ASxxxx Linker V03.00 + NoICE + sdld,  page 4.
Hexadecimal  [32-Bits]

Area                       Addr        Size        Decimal Bytes (Attributes)
--------------------       ----        ----        ------- ----- ------------
_CODE                  00000000    000084DB =       34011. bytes (REL,CON)

        Value  Global            Value  Global            Value  Global    
        -----  ------            -----  ------            -----  ------    
     000002F2  A$config$ |    000002F3  A$config$ |    000002F4  A$config$
     000002F6  A$config$ |    000002F8  A$config$ |    000002F9  A$config$
     000002FB  A$config$ |    000002FD  A$config$ |    000002FE  A$config$
     00000300  A$config$ |    00000302  A$config$ |    00000303  A$config$
     00000305  A$config$ |    00000307  A$config$ |    00000307  C$config.
     00000308  A$config$ |    0000030B  A$config$ |    0000030C  A$config$
     0000030F  A$config$ |    00000310  A$config$ |    00000313  A$config$
     00000314  A$config$ |    00000314  C$config. |    00000317  A$config$
     00000318  A$config$ |    00000319  A$config$ |    0000031A  A$config$
     0000031B  A$config$ |    0000031C  A$config$ |    0000031D  A$config$
     00000320  A$config$ |    00000321  A$config$ |    00000322  A$config$
     00000324  A$config$ |    00000326  A$config$ |    00000326  C$config.
     00000326  XG$config |    00000327  Fconfig$_ |    00000343  Fconfig$_
     0000035B  Fconfig$_ |    0000037C  A$config$ |    0000037C  C$config.
     0000037C  G$configN |    0000037C  _configNe |    0000037E  A$config$
     00000382  A$config$ |    00000384  A$config$ |    00000384  C$config.
     00000387  A$config$ |    0000038A  A$config$ |    0000038C  A$config$
     0000038E  A$config$ |    0000038F  A$config$ |    00000391  A$config$
     00000391  C$config. |    00000394  A$config$ |    00000397  A$config$
     00000398  A$config$ |    00000399  A$config$ |    0000039B  A$config$
     0000039C  A$config$ |    0000039E  A$config$ |    0000039F  A$config$
     000003A1  A$config$ |    000003A2  A$config$ |    000003A4  A$config$
     000003A4  C$config. |    000003A7  A$config$ |    000003A8  A$config$
     000003A9  A$config$ |    000003AC  A$config$ |    000003AD  A$config$
     000003AE  A$config$ |    000003AF  A$config$ |    000003B0  A$config$
     000003B1  A$config$ |    000003B1  C$config. |    000003B3  A$config$
     000003B4  A$config$ |    000003B5  A$config$ |    000003B7  A$config$
     000003B8  A$config$ |    000003B8  C$config. |    000003BB  A$config$
     000003BC  A$config$ |    000003BE  A$config$ |    000003C0  A$config$
     000003C0  C$config. |    000003C0  XG$config |    000003C1  A$fat2l$8
     000003C1  C$fat2l.c |    000003C1  C$fat2l.c |    000003C1  G$bitCoun
     000003C1  _bitCount |    000003C4  A$fat2l$9 |    000003C4  C$fat2l.c
     000003C7  A$fat2l$9 |    000003C8  A$fat2l$9 |    000003CA  A$fat2l$9
     000003CC  A$fat2l$9 |    000003CD  A$fat2l$1 |    000003CD  C$fat2l.c
     000003D1  A$fat2l$1 |    000003D3  A$fat2l$1 |    000003D7  A$fat2l$1
     000003D8  A$fat2l$1 |    000003D9  A$fat2l$1 |    000003DA  A$fat2l$1
     000003DA  C$fat2l.c |    000003DB  A$fat2l$1 |    000003DD  A$fat2l$1
     000003DD  C$fat2l.c |    000003DE  A$fat2l$1 |    000003DE  C$fat2l.c
     000003DE  XG$bitCou |    000003DF  G$_NOINIT |    000003DF  __NOINIT_
     000003E6  G$_NOFILE |    000003E6  __NOFILE_ |    000003ED  A$fat2l$1
     000003ED  C$fat2l.c |    000003ED  C$fat2l.c |    000003ED  G$returnE
     000003ED  _returnEr |    000003EF  A$fat2l$1 |    000003EF  C$fat2l.c
     000003EF  XG$return |    000003F0  Ffat2l$__ |    00000402  A$fat2l$1
     00000402  C$fat2l.c |    00000402  G$fatInit |    00000402  _fatInit 
     00000404  A$fat2l$1 |    00000408  A$fat2l$1 |    0000040A  A$fat2l$1
     0000040D  A$fat2l$1 |    0000040E  A$fat2l$1 |    0000040F  A$fat2l$1
     0000040F  C$fat2l.c |    00000412  A$fat2l$1 |    00000415  A$fat2l$1
     00000416  A$fat2l$1 |    00000416  C$fat2l.c |    00000419  A$fat2l$1
     0000041C  A$fat2l$1 |    0000041D  A$fat2l$1 |    0000041E  A$fat2l$1
     0000041F  A$fat2l$1 |    00000422  A$fat2l$1 |    00000425  A$fat2l$1
     00000425  C$fat2l.c |    00000428  A$fat2l$1 |    00000429  A$fat2l$1
ASxxxx Linker V03.00 + NoICE + sdld,  page 5.
Hexadecimal  [32-Bits]

Area                       Addr        Size        Decimal Bytes (Attributes)
--------------------       ----        ----        ------- ----- ------------
_CODE                  00000000    000084DB =       34011. bytes (REL,CON)

        Value  Global            Value  Global            Value  Global    
        -----  ------            -----  ------            -----  ------    
     0000042C  A$fat2l$1 |    0000042F  A$fat2l$1 |    00000431  A$fat2l$1
     00000432  A$fat2l$1 |    00000433  A$fat2l$1 |    00000434  A$fat2l$1
     00000435  A$fat2l$1 |    00000436  A$fat2l$2 |    00000437  A$fat2l$2
     00000438  A$fat2l$2 |    0000043B  A$fat2l$2 |    0000043D  A$fat2l$2
     0000043E  A$fat2l$2 |    00000441  A$fat2l$2 |    00000443  A$fat2l$2
     00000444  A$fat2l$2 |    00000446  A$fat2l$2 |    00000447  A$fat2l$2
     00000448  A$fat2l$2 |    00000449  A$fat2l$2 |    0000044A  A$fat2l$2
     0000044B  A$fat2l$2 |    0000044C  A$fat2l$2 |    0000044D  A$fat2l$2
     00000450  A$fat2l$2 |    00000452  A$fat2l$2 |    00000453  A$fat2l$2
     00000456  A$fat2l$2 |    00000458  A$fat2l$2 |    00000459  A$fat2l$2
     0000045B  A$fat2l$2 |    0000045C  A$fat2l$2 |    0000045D  A$fat2l$2
     0000045E  A$fat2l$2 |    0000045F  A$fat2l$2 |    00000460  A$fat2l$2
     00000461  A$fat2l$2 |    00000462  A$fat2l$2 |    00000465  A$fat2l$2
     00000467  A$fat2l$2 |    00000468  A$fat2l$2 |    0000046B  A$fat2l$2
     0000046D  A$fat2l$2 |    0000046E  A$fat2l$2 |    00000470  A$fat2l$2
     00000471  A$fat2l$2 |    00000472  A$fat2l$2 |    00000473  A$fat2l$2
     00000474  A$fat2l$2 |    00000475  A$fat2l$2 |    00000476  A$fat2l$2
     00000477  A$fat2l$2 |    0000047A  A$fat2l$2 |    0000047C  A$fat2l$2
     0000047D  A$fat2l$2 |    00000480  A$fat2l$2 |    00000482  A$fat2l$2
     00000483  A$fat2l$2 |    00000485  A$fat2l$2 |    00000486  A$fat2l$2
     00000487  A$fat2l$2 |    00000488  A$fat2l$2 |    00000489  A$fat2l$2
     0000048A  A$fat2l$2 |    0000048B  A$fat2l$2 |    0000048C  A$fat2l$2
     0000048F  A$fat2l$2 |    00000491  A$fat2l$2 |    00000492  A$fat2l$2
     00000495  A$fat2l$2 |    00000497  A$fat2l$2 |    00000498  A$fat2l$2
     0000049A  A$fat2l$2 |    0000049B  A$fat2l$2 |    0000049D  A$fat2l$2
     0000049E  A$fat2l$2 |    0000049F  A$fat2l$2 |    000004A0  A$fat2l$2
     000004A1  A$fat2l$2 |    000004A2  A$fat2l$2 |    000004A5  A$fat2l$2
     000004A7  A$fat2l$2 |    000004A8  A$fat2l$2 |    000004AB  A$fat2l$2
     000004AD  A$fat2l$2 |    000004AE  A$fat2l$2 |    000004AF  A$fat2l$2
     000004B0  A$fat2l$2 |    000004B1  A$fat2l$2 |    000004B2  A$fat2l$2
     000004B3  A$fat2l$2 |    000004B5  A$fat2l$2 |    000004B6  A$fat2l$2
     000004B8  A$fat2l$2 |    000004BB  A$fat2l$2 |    000004BD  A$fat2l$2
     000004BE  A$fat2l$2 |    000004C1  A$fat2l$2 |    000004C3  A$fat2l$2
     000004C4  A$fat2l$2 |    000004C6  A$fat2l$2 |    000004C7  A$fat2l$2
     000004C9  A$fat2l$2 |    000004CA  A$fat2l$2 |    000004CB  A$fat2l$2
     000004CC  A$fat2l$2 |    000004CD  A$fat2l$2 |    000004CE  A$fat2l$3
     000004D1  A$fat2l$3 |    000004D3  A$fat2l$3 |    000004D4  A$fat2l$3
     000004D7  A$fat2l$3 |    000004D9  A$fat2l$3 |    000004DA  A$fat2l$3
     000004DC  A$fat2l$3 |    000004DD  A$fat2l$3 |    000004DF  A$fat2l$3
     000004E0  A$fat2l$3 |    000004E2  A$fat2l$3 |    000004E3  A$fat2l$3
     000004E5  A$fat2l$3 |    000004E5  C$fat2l.c |    000004E8  A$fat2l$3
     000004EB  A$fat2l$3 |    000004ED  A$fat2l$3 |    000004ED  C$fat2l.c
     000004F0  A$fat2l$3 |    000004F3  A$fat2l$3 |    000004F6  A$fat2l$3
     000004F9  A$fat2l$3 |    000004FC  A$fat2l$3 |    000004FF  A$fat2l$3
     00000500  A$fat2l$3 |    00000501  A$fat2l$3 |    00000504  A$fat2l$3
     00000507  A$fat2l$3 |    00000508  A$fat2l$3 |    0000050B  A$fat2l$3
     0000050C  A$fat2l$3 |    0000050F  A$fat2l$3 |    00000510  A$fat2l$3
     00000511  A$fat2l$3 |    00000514  A$fat2l$3 |    00000515  A$fat2l$3
     00000516  A$fat2l$3 |    00000517  A$fat2l$3 |    00000518  A$fat2l$3
     00000519  A$fat2l$3 |    0000051A  A$fat2l$3 |    0000051C  A$fat2l$3
     0000051C  C$fat2l.c |    0000051F  A$fat2l$3 |    00000520  A$fat2l$3
ASxxxx Linker V03.00 + NoICE + sdld,  page 6.
Hexadecimal  [32-Bits]

Area                       Addr        Size        Decimal Bytes (Attributes)
--------------------       ----        ----        ------- ----- ------------
_CODE                  00000000    000084DB =       34011. bytes (REL,CON)

        Value  Global            Value  Global            Value  Global    
        -----  ------            -----  ------            -----  ------    
     00000523  A$fat2l$3 |    00000524  A$fat2l$3 |    00000527  A$fat2l$3
     00000527  C$fat2l.c |    0000052A  A$fat2l$3 |    0000052D  A$fat2l$3
     00000530  A$fat2l$3 |    00000531  A$fat2l$3 |    00000532  A$fat2l$3
     00000535  A$fat2l$3 |    00000537  A$fat2l$3 |    0000053A  A$fat2l$3
     0000053C  A$fat2l$3 |    0000053E  A$fat2l$3 |    00000541  A$fat2l$3
     00000543  A$fat2l$3 |    00000545  A$fat2l$3 |    00000548  A$fat2l$3
     0000054A  A$fat2l$3 |    0000054C  A$fat2l$3 |    0000054F  A$fat2l$3
     00000551  A$fat2l$3 |    00000553  A$fat2l$3 |    00000556  A$fat2l$3
     00000558  A$fat2l$3 |    0000055A  A$fat2l$3 |    0000055D  A$fat2l$3
     0000055F  A$fat2l$3 |    00000561  A$fat2l$3 |    00000564  A$fat2l$3
     00000566  A$fat2l$3 |    00000568  A$fat2l$3 |    0000056B  A$fat2l$3
     0000056D  A$fat2l$3 |    00000570  A$fat2l$3 |    00000570  C$fat2l.c
     00000573  A$fat2l$3 |    00000574  A$fat2l$3 |    00000577  A$fat2l$3
     00000578  A$fat2l$4 |    00000578  C$fat2l.c |    0000057B  A$fat2l$4
     0000057E  A$fat2l$4 |    00000580  A$fat2l$4 |    00000581  A$fat2l$4
     00000582  A$fat2l$4 |    00000583  A$fat2l$4 |    00000586  A$fat2l$4
     00000588  A$fat2l$4 |    00000588  C$fat2l.c |    0000058B  A$fat2l$4
     0000058D  A$fat2l$4 |    0000058E  A$fat2l$4 |    00000591  A$fat2l$4
     00000593  A$fat2l$4 |    00000594  A$fat2l$4 |    00000595  A$fat2l$4
     00000598  A$fat2l$4 |    0000059B  A$fat2l$4 |    0000059E  A$fat2l$4
     000005A1  A$fat2l$4 |    000005A2  A$fat2l$4 |    000005A3  A$fat2l$4
     000005A4  A$fat2l$4 |    000005A5  A$fat2l$4 |    000005A6  A$fat2l$4
     000005A7  A$fat2l$4 |    000005A8  A$fat2l$4 |    000005AA  A$fat2l$4
     000005AD  A$fat2l$4 |    000005AF  A$fat2l$4 |    000005B0  A$fat2l$4
     000005B3  A$fat2l$4 |    000005B5  A$fat2l$4 |    000005B6  A$fat2l$4
     000005BA  A$fat2l$4 |    000005BA  C$fat2l.c |    000005BD  A$fat2l$4
     000005BE  A$fat2l$4 |    000005BF  A$fat2l$4 |    000005C0  A$fat2l$4
     000005C1  A$fat2l$4 |    000005C3  A$fat2l$4 |    000005C4  A$fat2l$4
     000005C6  A$fat2l$4 |    000005C7  A$fat2l$4 |    000005C9  A$fat2l$4
     000005CC  A$fat2l$4 |    000005CD  A$fat2l$4 |    000005CE  A$fat2l$4
     000005CF  A$fat2l$4 |    000005D0  A$fat2l$4 |    000005D1  A$fat2l$4
     000005D2  A$fat2l$4 |    000005D3  A$fat2l$4 |    000005D6  A$fat2l$4
     000005D9  A$fat2l$4 |    000005DA  A$fat2l$4 |    000005DB  A$fat2l$4
     000005DC  A$fat2l$4 |    000005DD  A$fat2l$4 |    000005DE  A$fat2l$4
     000005DF  A$fat2l$4 |    000005E0  A$fat2l$4 |    000005E1  A$fat2l$4
     000005E2  A$fat2l$4 |    000005E3  A$fat2l$4 |    000005E6  A$fat2l$4
     000005E7  A$fat2l$4 |    000005E8  A$fat2l$4 |    000005EB  A$fat2l$4
     000005EC  A$fat2l$4 |    000005ED  A$fat2l$4 |    000005F0  A$fat2l$4
     000005F1  A$fat2l$4 |    000005F2  A$fat2l$4 |    000005F5  A$fat2l$4
     000005F6  A$fat2l$4 |    000005F7  A$fat2l$4 |    000005FA  A$fat2l$4
     000005FD  A$fat2l$4 |    00000600  A$fat2l$4 |    00000603  A$fat2l$4
     00000606  A$fat2l$4 |    00000609  A$fat2l$4 |    0000060C  A$fat2l$4
     0000060F  A$fat2l$4 |    0000060F  C$fat2l.c |    00000612  A$fat2l$4
     00000615  A$fat2l$4 |    00000617  A$fat2l$5 |    00000619  A$fat2l$5
     00000619  C$fat2l.c |    0000061C  A$fat2l$5 |    0000061F  A$fat2l$5
     00000621  A$fat2l$5 |    00000622  A$fat2l$5 |    00000624  A$fat2l$5
     00000625  A$fat2l$5 |    00000627  A$fat2l$5 |    00000628  A$fat2l$5
     0000062A  A$fat2l$5 |    0000062B  A$fat2l$5 |    0000062D  A$fat2l$5
     0000062E  A$fat2l$5 |    00000630  A$fat2l$5 |    00000631  A$fat2l$5
     00000633  A$fat2l$5 |    00000634  A$fat2l$5 |    00000636  A$fat2l$5
     00000636  C$fat2l.c |    00000639  A$fat2l$5 |    0000063B  A$fat2l$5
ASxxxx Linker V03.00 + NoICE + sdld,  page 7.
Hexadecimal  [32-Bits]

Area                       Addr        Size        Decimal Bytes (Attributes)
--------------------       ----        ----        ------- ----- ------------
_CODE                  00000000    000084DB =       34011. bytes (REL,CON)

        Value  Global            Value  Global            Value  Global    
        -----  ------            -----  ------            -----  ------    
     0000063C  A$fat2l$5 |    0000063F  A$fat2l$5 |    00000641  A$fat2l$5
     00000642  A$fat2l$5 |    00000643  A$fat2l$5 |    00000644  A$fat2l$5
     00000647  A$fat2l$5 |    0000064A  A$fat2l$5 |    0000064D  A$fat2l$5
     00000650  A$fat2l$5 |    00000653  A$fat2l$5 |    00000654  A$fat2l$5
     00000657  A$fat2l$5 |    00000658  A$fat2l$5 |    0000065B  A$fat2l$5
     0000065D  A$fat2l$5 |    0000065E  A$fat2l$5 |    0000065E  C$fat2l.c
     00000661  A$fat2l$5 |    00000663  A$fat2l$5 |    00000664  A$fat2l$5
     00000667  A$fat2l$5 |    00000669  A$fat2l$5 |    0000066A  A$fat2l$5
     0000066C  A$fat2l$5 |    0000066D  A$fat2l$5 |    0000066F  A$fat2l$5
     0000066F  C$fat2l.c |    00000670  A$fat2l$5 |    00000671  A$fat2l$5
     00000674  A$fat2l$5 |    00000675  A$fat2l$5 |    00000676  A$fat2l$5
     00000677  A$fat2l$5 |    00000678  A$fat2l$5 |    00000679  A$fat2l$5
     0000067A  A$fat2l$5 |    0000067B  A$fat2l$5 |    0000067C  A$fat2l$5
     0000067F  A$fat2l$5 |    00000680  A$fat2l$5 |    00000681  A$fat2l$5
     00000684  A$fat2l$5 |    00000685  A$fat2l$5 |    00000686  A$fat2l$5
     00000689  A$fat2l$5 |    0000068A  A$fat2l$5 |    0000068B  A$fat2l$5
     0000068E  A$fat2l$5 |    0000068F  A$fat2l$5 |    00000690  A$fat2l$5
     00000693  A$fat2l$5 |    00000694  A$fat2l$5 |    00000697  A$fat2l$5
     00000698  A$fat2l$5 |    00000699  A$fat2l$5 |    0000069A  A$fat2l$5
     0000069D  A$fat2l$5 |    0000069E  A$fat2l$5 |    0000069F  A$fat2l$5
     000006A0  A$fat2l$5 |    000006A1  A$fat2l$5 |    000006A4  A$fat2l$5
     000006A5  A$fat2l$5 |    000006A6  A$fat2l$5 |    000006A7  A$fat2l$5
     000006A8  A$fat2l$5 |    000006AA  A$fat2l$5 |    000006AB  A$fat2l$5
     000006AC  A$fat2l$6 |    000006AE  A$fat2l$6 |    000006AF  A$fat2l$6
     000006AF  C$fat2l.c |    000006B0  A$fat2l$6 |    000006B2  A$fat2l$6
     000006B5  A$fat2l$6 |    000006B8  A$fat2l$6 |    000006BB  A$fat2l$6
     000006BE  A$fat2l$6 |    000006BE  C$fat2l.c |    000006C1  A$fat2l$6
     000006C3  A$fat2l$6 |    000006C6  A$fat2l$6 |    000006C9  A$fat2l$6
     000006CB  A$fat2l$6 |    000006CE  A$fat2l$6 |    000006D1  A$fat2l$6
     000006D3  A$fat2l$6 |    000006D6  A$fat2l$6 |    000006D8  A$fat2l$6
     000006DB  A$fat2l$6 |    000006DD  A$fat2l$6 |    000006DF  A$fat2l$6
     000006E3  A$fat2l$6 |    000006E7  A$fat2l$6 |    000006EB  A$fat2l$6
     000006EF  A$fat2l$6 |    000006F1  A$fat2l$6 |    000006F4  A$fat2l$6
     000006F5  A$fat2l$6 |    000006F6  A$fat2l$6 |    000006F9  A$fat2l$6
     000006FA  A$fat2l$6 |    000006FD  A$fat2l$6 |    000006FF  A$fat2l$6
     00000702  A$fat2l$6 |    00000705  A$fat2l$6 |    00000708  A$fat2l$6
     0000070B  A$fat2l$6 |    0000070C  A$fat2l$6 |    0000070D  A$fat2l$6
     0000070E  A$fat2l$6 |    0000070E  C$fat2l.c |    00000711  A$fat2l$6
     00000713  A$fat2l$6 |    00000714  A$fat2l$6 |    00000717  A$fat2l$6
     00000719  A$fat2l$6 |    0000071A  A$fat2l$6 |    0000071D  A$fat2l$6
     0000071E  A$fat2l$6 |    0000071F  A$fat2l$6 |    00000722  A$fat2l$6
     00000723  A$fat2l$6 |    00000724  A$fat2l$6 |    00000724  C$fat2l.c
     00000727  A$fat2l$6 |    0000072A  A$fat2l$6 |    0000072B  A$fat2l$6
     0000072C  A$fat2l$6 |    0000072F  A$fat2l$6 |    00000732  A$fat2l$6
     00000733  A$fat2l$6 |    00000736  A$fat2l$6 |    00000737  A$fat2l$6
     0000073A  A$fat2l$6 |    0000073B  A$fat2l$6 |    0000073C  A$fat2l$6
     0000073F  A$fat2l$6 |    00000740  A$fat2l$6 |    00000741  A$fat2l$6
     00000742  A$fat2l$6 |    00000743  A$fat2l$6 |    00000744  A$fat2l$6
     00000745  A$fat2l$6 |    00000747  A$fat2l$6 |    00000747  C$fat2l.c
     0000074A  A$fat2l$6 |    0000074B  A$fat2l$6 |    0000074E  A$fat2l$6
     0000074F  A$fat2l$6 |    00000752  A$fat2l$6 |    00000752  C$fat2l.c
ASxxxx Linker V03.00 + NoICE + sdld,  page 8.
Hexadecimal  [32-Bits]

Area                       Addr        Size        Decimal Bytes (Attributes)
--------------------       ----        ----        ------- ----- ------------
_CODE                  00000000    000084DB =       34011. bytes (REL,CON)

        Value  Global            Value  Global            Value  Global    
        -----  ------            -----  ------            -----  ------    
     00000755  A$fat2l$6 |    00000758  A$fat2l$7 |    00000759  A$fat2l$7
     0000075C  A$fat2l$7 |    0000075D  A$fat2l$7 |    0000075D  C$fat2l.c
     00000760  A$fat2l$7 |    00000762  A$fat2l$7 |    00000763  A$fat2l$7
     00000766  A$fat2l$7 |    00000768  A$fat2l$7 |    00000769  A$fat2l$7
     0000076B  A$fat2l$7 |    0000076C  A$fat2l$7 |    0000076D  A$fat2l$7
     0000076E  A$fat2l$7 |    00000771  A$fat2l$7 |    00000773  A$fat2l$7
     00000773  C$fat2l.c |    00000776  A$fat2l$7 |    00000779  A$fat2l$7
     0000077A  A$fat2l$7 |    0000077D  A$fat2l$7 |    0000077D  C$fat2l.c
     00000780  A$fat2l$7 |    00000781  A$fat2l$7 |    00000784  A$fat2l$7
     00000785  A$fat2l$7 |    00000785  C$fat2l.c |    00000788  A$fat2l$7
     0000078B  A$fat2l$7 |    0000078C  A$fat2l$7 |    0000078F  A$fat2l$7
     00000790  A$fat2l$7 |    00000790  C$fat2l.c |    00000793  A$fat2l$7
     00000796  A$fat2l$7 |    00000797  A$fat2l$7 |    0000079A  A$fat2l$7
     0000079B  A$fat2l$7 |    0000079B  C$fat2l.c |    0000079E  A$fat2l$7
     000007A1  A$fat2l$7 |    000007A2  A$fat2l$7 |    000007A4  A$fat2l$7
     000007A4  C$fat2l.c |    000007A7  A$fat2l$7 |    000007A9  A$fat2l$7
     000007AC  A$fat2l$7 |    000007AF  A$fat2l$7 |    000007B1  A$fat2l$7
     000007B4  A$fat2l$7 |    000007B7  A$fat2l$7 |    000007BA  A$fat2l$7
     000007BB  A$fat2l$7 |    000007BC  A$fat2l$7 |    000007BD  A$fat2l$7
     000007C0  A$fat2l$7 |    000007C0  C$fat2l.c |    000007C1  A$fat2l$7
     000007C2  A$fat2l$7 |    000007C5  A$fat2l$7 |    000007C6  A$fat2l$7
     000007C9  A$fat2l$7 |    000007CA  A$fat2l$7 |    000007CD  A$fat2l$7
     000007CE  A$fat2l$7 |    000007CF  A$fat2l$7 |    000007D0  A$fat2l$7
     000007D1  A$fat2l$7 |    000007D4  A$fat2l$7 |    000007D7  A$fat2l$7
     000007DA  A$fat2l$7 |    000007DD  A$fat2l$7 |    000007DD  C$fat2l.c
     000007E0  A$fat2l$7 |    000007E2  A$fat2l$7 |    000007E3  A$fat2l$7
     000007E6  A$fat2l$7 |    000007E8  A$fat2l$7 |    000007E9  A$fat2l$7
     000007EA  A$fat2l$7 |    000007EB  A$fat2l$8 |    000007EC  A$fat2l$8
     000007ED  A$fat2l$8 |    000007EE  A$fat2l$8 |    000007F1  A$fat2l$8
     000007F2  A$fat2l$8 |    000007F3  A$fat2l$8 |    000007F4  A$fat2l$8
     000007F7  A$fat2l$8 |    000007FA  A$fat2l$8 |    000007FB  A$fat2l$8
     000007FE  A$fat2l$8 |    00000801  A$fat2l$8 |    00000802  A$fat2l$8
     00000805  A$fat2l$8 |    00000806  A$fat2l$8 |    00000807  A$fat2l$8
     00000808  A$fat2l$8 |    00000809  A$fat2l$8 |    0000080A  A$fat2l$8
     0000080D  A$fat2l$8 |    00000810  A$fat2l$8 |    00000810  C$fat2l.c
     00000813  A$fat2l$8 |    00000815  A$fat2l$8 |    00000818  A$fat2l$8
     0000081B  A$fat2l$8 |    0000081D  A$fat2l$8 |    00000820  A$fat2l$8
     00000823  A$fat2l$8 |    00000826  A$fat2l$8 |    00000827  A$fat2l$8
     00000828  A$fat2l$8 |    00000829  A$fat2l$8 |    0000082C  A$fat2l$8
     0000082C  C$fat2l.c |    0000082D  A$fat2l$8 |    0000082E  A$fat2l$8
     0000082F  A$fat2l$8 |    00000832  A$fat2l$8 |    00000833  A$fat2l$8
     00000836  A$fat2l$8 |    00000837  A$fat2l$8 |    0000083A  A$fat2l$8
     0000083B  A$fat2l$8 |    0000083C  A$fat2l$8 |    0000083D  A$fat2l$8
     0000083E  A$fat2l$8 |    0000083F  A$fat2l$8 |    00000842  A$fat2l$8
     00000845  A$fat2l$8 |    00000848  A$fat2l$8 |    0000084B  A$fat2l$8
     0000084B  C$fat2l.c |    0000084E  A$fat2l$8 |    00000850  A$fat2l$8
     00000851  A$fat2l$8 |    00000854  A$fat2l$8 |    00000856  A$fat2l$8
     00000857  A$fat2l$8 |    00000858  A$fat2l$8 |    00000859  A$fat2l$8
     0000085A  A$fat2l$8 |    0000085B  A$fat2l$8 |    0000085C  A$fat2l$8
     0000085F  A$fat2l$8 |    00000862  A$fat2l$8 |    00000866  A$fat2l$8
     0000086A  A$fat2l$8 |    0000086B  A$fat2l$8 |    0000086C  A$fat2l$8
ASxxxx Linker V03.00 + NoICE + sdld,  page 9.
Hexadecimal  [32-Bits]

Area                       Addr        Size        Decimal Bytes (Attributes)
--------------------       ----        ----        ------- ----- ------------
_CODE                  00000000    000084DB =       34011. bytes (REL,CON)

        Value  Global            Value  Global            Value  Global    
        -----  ------            -----  ------            -----  ------    
     0000086F  A$fat2l$8 |    00000872  A$fat2l$8 |    00000873  A$fat2l$8
     00000876  A$fat2l$8 |    00000879  A$fat2l$8 |    0000087A  A$fat2l$8
     0000087D  A$fat2l$8 |    00000880  A$fat2l$8 |    00000881  A$fat2l$8
     00000884  A$fat2l$8 |    00000887  A$fat2l$8 |    00000888  A$fat2l$8
     0000088B  A$fat2l$8 |    0000088C  A$fat2l$8 |    0000088D  A$fat2l$8
     0000088E  A$fat2l$8 |    0000088F  A$fat2l$8 |    00000892  A$fat2l$8
     00000895  A$fat2l$8 |    00000898  A$fat2l$8 |    0000089B  A$fat2l$8
     0000089C  A$fat2l$8 |    0000089D  A$fat2l$8 |    000008A0  A$fat2l$9
     000008A3  A$fat2l$9 |    000008A6  A$fat2l$9 |    000008A9  A$fat2l$9
     000008A9  C$fat2l.c |    000008AC  A$fat2l$9 |    000008AE  A$fat2l$9
     000008AF  A$fat2l$9 |    000008B2  A$fat2l$9 |    000008B4  A$fat2l$9
     000008B5  A$fat2l$9 |    000008B6  A$fat2l$9 |    000008B7  A$fat2l$9
     000008B8  A$fat2l$9 |    000008B9  A$fat2l$9 |    000008BA  A$fat2l$9
     000008BB  A$fat2l$9 |    000008BC  A$fat2l$9 |    000008BE  A$fat2l$9
     000008BE  C$fat2l.c |    000008C1  A$fat2l$9 |    000008C4  A$fat2l$9
     000008C5  A$fat2l$9 |    000008C8  A$fat2l$9 |    000008C9  A$fat2l$9
     000008CA  A$fat2l$9 |    000008CB  A$fat2l$9 |    000008CE  A$fat2l$9
     000008CF  A$fat2l$9 |    000008D0  A$fat2l$9 |    000008D3  A$fat2l$9
     000008D4  A$fat2l$9 |    000008D5  A$fat2l$9 |    000008D8  A$fat2l$9
     000008D9  A$fat2l$9 |    000008DA  A$fat2l$9 |    000008DD  A$fat2l$9
     000008DE  A$fat2l$9 |    000008DF  A$fat2l$9 |    000008E2  A$fat2l$9
     000008E5  A$fat2l$9 |    000008E8  A$fat2l$9 |    000008EB  A$fat2l$9
     000008EE  A$fat2l$9 |    000008EF  A$fat2l$9 |    000008F0  A$fat2l$9
     000008F3  A$fat2l$9 |    000008F6  A$fat2l$9 |    000008F9  A$fat2l$9
     000008FC  A$fat2l$9 |    000008FF  A$fat2l$9 |    00000902  A$fat2l$9
     00000905  A$fat2l$9 |    00000908  A$fat2l$9 |    0000090A  A$fat2l$9
     0000090A  C$fat2l.c |    0000090D  A$fat2l$9 |    0000090E  A$fat2l$9
     00000911  A$fat2l$9 |    00000912  A$fat2l$9 |    00000914  A$fat2l$9
     00000914  C$fat2l.c |    00000915  A$fat2l$9 |    00000918  A$fat2l$9
     00000919  A$fat2l$9 |    0000091A  A$fat2l$9 |    0000091D  A$fat2l$9
     00000920  A$fat2l$9 |    00000923  A$fat2l$9 |    00000924  A$fat2l$9
     00000927  A$fat2l$9 |    00000928  A$fat2l$9 |    00000929  A$fat2l$9
     0000092C  A$fat2l$9 |    0000092D  A$fat2l$9 |    00000930  A$fat2l$9
     00000931  A$fat2l$9 |    00000932  A$fat2l$9 |    00000935  A$fat2l$9
     00000938  A$fat2l$9 |    0000093B  A$fat2l$9 |    0000093C  A$fat2l$9
     0000093D  A$fat2l$9 |    0000093E  A$fat2l$9 |    0000093E  C$fat2l.c
     0000093F  A$fat2l$9 |    00000942  A$fat2l$9 |    00000943  A$fat2l$9
     00000946  A$fat2l$9 |    00000949  A$fat2l$1 |    0000094A  A$fat2l$1
     0000094D  A$fat2l$1 |    00000950  A$fat2l$1 |    00000951  A$fat2l$1
     00000954  A$fat2l$1 |    00000957  A$fat2l$1 |    00000958  A$fat2l$1
     0000095B  A$fat2l$1 |    0000095E  A$fat2l$1 |    0000095F  A$fat2l$1
     00000962  A$fat2l$1 |    00000965  A$fat2l$1 |    00000966  A$fat2l$1
     00000967  A$fat2l$1 |    0000096A  A$fat2l$1 |    0000096B  A$fat2l$1
     0000096C  A$fat2l$1 |    0000096F  A$fat2l$1 |    00000972  A$fat2l$1
     00000973  A$fat2l$1 |    00000974  A$fat2l$1 |    00000974  C$fat2l.c
     00000977  A$fat2l$1 |    00000978  A$fat2l$1 |    0000097B  A$fat2l$1
     0000097C  A$fat2l$1 |    0000097C  C$fat2l.c |    0000097F  A$fat2l$1
     00000982  A$fat2l$1 |    00000984  A$fat2l$1 |    00000984  C$fat2l.c
     00000986  A$fat2l$1 |    00000988  A$fat2l$1 |    0000098A  A$fat2l$1
     0000098A  C$fat2l.c |    0000098A  XG$fatIni |    0000098B  Ffat2l$__
     000009B3  Ffat2l$__ |    000009EE  Ffat2l$__ |    00000A0F  Ffat2l$__
ASxxxx Linker V03.00 + NoICE + sdld,  page 10.
Hexadecimal  [32-Bits]

Area                       Addr        Size        Decimal Bytes (Attributes)
--------------------       ----        ----        ------- ----- ------------
_CODE                  00000000    000084DB =       34011. bytes (REL,CON)

        Value  Global            Value  Global            Value  Global    
        -----  ------            -----  ------            -----  ------    
     00000A31  Ffat2l$__ |    00000A41  Ffat2l$__ |    00000A6E  Ffat2l$__
     00000ABC  A$fat2l$1 |    00000ABC  C$fat2l.c |    00000ABC  G$fatWrit
     00000ABC  _fatWrite |    00000ABE  A$fat2l$1 |    00000AC2  A$fat2l$1
     00000AC4  A$fat2l$1 |    00000AC7  A$fat2l$1 |    00000AC8  A$fat2l$1
     00000AC9  A$fat2l$1 |    00000ACC  A$fat2l$1 |    00000ACF  A$fat2l$1
     00000AD2  A$fat2l$1 |    00000AD3  A$fat2l$1 |    00000AD4  A$fat2l$1
     00000AD4  C$fat2l.c |    00000AD7  A$fat2l$1 |    00000AD8  A$fat2l$1
     00000AD9  A$fat2l$1 |    00000ADA  A$fat2l$1 |    00000ADB  A$fat2l$1
     00000ADE  A$fat2l$1 |    00000AE1  A$fat2l$1 |    00000AE4  A$fat2l$1
     00000AE5  A$fat2l$1 |    00000AE6  A$fat2l$1 |    00000AE9  A$fat2l$1
     00000AEB  A$fat2l$1 |    00000AEC  A$fat2l$1 |    00000AED  A$fat2l$1
     00000AEE  A$fat2l$1 |    00000AEF  A$fat2l$1 |    00000AF2  A$fat2l$1
     00000AF3  A$fat2l$1 |    00000AF4  A$fat2l$1 |    00000AF8  A$fat2l$1
     00000AF9  A$fat2l$1 |    00000AFA  A$fat2l$1 |    00000AFB  A$fat2l$1
     00000AFD  A$fat2l$1 |    00000AFE  A$fat2l$1 |    00000B01  A$fat2l$1
     00000B04  A$fat2l$1 |    00000B05  A$fat2l$1 |    00000B08  A$fat2l$1
     00000B0B  A$fat2l$1 |    00000B0C  A$fat2l$1 |    00000B0E  A$fat2l$1
     00000B11  A$fat2l$1 |    00000B12  A$fat2l$1 |    00000B13  A$fat2l$1
     00000B14  A$fat2l$1 |    00000B15  A$fat2l$1 |    00000B16  A$fat2l$1
     00000B17  A$fat2l$1 |    00000B18  A$fat2l$1 |    00000B1A  A$fat2l$1
     00000B1A  C$fat2l.c |    00000B1D  A$fat2l$1 |    00000B1E  A$fat2l$1
     00000B21  A$fat2l$1 |    00000B22  A$fat2l$1 |    00000B24  A$fat2l$1
     00000B27  A$fat2l$1 |    00000B28  A$fat2l$1 |    00000B2B  A$fat2l$1
     00000B2E  A$fat2l$1 |    00000B2E  C$fat2l.c |    00000B2F  A$fat2l$1
     00000B30  A$fat2l$1 |    00000B31  A$fat2l$1 |    00000B32  A$fat2l$1
     00000B33  A$fat2l$1 |    00000B34  A$fat2l$1 |    00000B35  A$fat2l$1
     00000B36  A$fat2l$1 |    00000B37  A$fat2l$1 |    00000B38  A$fat2l$1
     00000B3A  A$fat2l$1 |    00000B3B  A$fat2l$1 |    00000B3D  A$fat2l$1
     00000B3E  A$fat2l$1 |    00000B3F  A$fat2l$1 |    00000B40  A$fat2l$1
     00000B43  A$fat2l$1 |    00000B44  A$fat2l$1 |    00000B45  A$fat2l$1
     00000B46  A$fat2l$1 |    00000B48  A$fat2l$1 |    00000B4B  A$fat2l$1
     00000B4C  A$fat2l$1 |    00000B4E  A$fat2l$1 |    00000B51  A$fat2l$1
     00000B54  A$fat2l$1 |    00000B57  A$fat2l$1 |    00000B58  A$fat2l$1
     00000B59  A$fat2l$1 |    00000B5A  A$fat2l$1 |    00000B5D  A$fat2l$1
     00000B60  A$fat2l$1 |    00000B61  A$fat2l$1 |    00000B64  A$fat2l$1
     00000B65  A$fat2l$1 |    00000B66  A$fat2l$1 |    00000B67  A$fat2l$1
     00000B68  A$fat2l$1 |    00000B69  A$fat2l$1 |    00000B6A  A$fat2l$1
     00000B6C  A$fat2l$1 |    00000B6C  C$fat2l.c |    00000B6F  A$fat2l$1
     00000B70  A$fat2l$1 |    00000B73  A$fat2l$1 |    00000B74  A$fat2l$1
     00000B76  A$fat2l$1 |    00000B76  C$fat2l.c |    00000B78  A$fat2l$1
     00000B7A  A$fat2l$1 |    00000B7C  A$fat2l$1 |    00000B7C  C$fat2l.c
     00000B7C  XG$fatWri |    00000B7D  Ffat2l$__ |    00000B94  Ffat2l$__
     00000BAB  A$fat2l$1 |    00000BAB  C$fat2l.c |    00000BAB  G$fatRead
     00000BAB  _fatReadB |    00000BAD  A$fat2l$1 |    00000BB1  A$fat2l$1
     00000BB3  A$fat2l$1 |    00000BB6  A$fat2l$1 |    00000BB7  A$fat2l$1
     00000BB8  A$fat2l$1 |    00000BBB  A$fat2l$1 |    00000BBE  A$fat2l$1
     00000BC1  A$fat2l$1 |    00000BC4  A$fat2l$1 |    00000BC7  A$fat2l$1
     00000BC9  A$fat2l$1 |    00000BCC  A$fat2l$1 |    00000BCF  A$fat2l$1
     00000BD1  A$fat2l$1 |    00000BD4  A$fat2l$1 |    00000BD4  C$fat2l.c
     00000BD7  A$fat2l$1 |    00000BD9  A$fat2l$1 |    00000BDC  A$fat2l$1
     00000BDF  A$fat2l$1 |    00000BE1  A$fat2l$1 |    00000BE4  A$fat2l$1
ASxxxx Linker V03.00 + NoICE + sdld,  page 11.
Hexadecimal  [32-Bits]

Area                       Addr        Size        Decimal Bytes (Attributes)
--------------------       ----        ----        ------- ----- ------------
_CODE                  00000000    000084DB =       34011. bytes (REL,CON)

        Value  Global            Value  Global            Value  Global    
        -----  ------            -----  ------            -----  ------    
     00000BE7  A$fat2l$1 |    00000BEA  A$fat2l$1 |    00000BEB  A$fat2l$1
     00000BEC  A$fat2l$1 |    00000BED  A$fat2l$1 |    00000BEE  A$fat2l$1
     00000BEF  A$fat2l$1 |    00000BF0  A$fat2l$1 |    00000BF1  A$fat2l$1
     00000BF2  A$fat2l$1 |    00000BF3  A$fat2l$1 |    00000BF6  A$fat2l$1
     00000BF7  A$fat2l$1 |    00000BF8  A$fat2l$1 |    00000BFC  A$fat2l$1
     00000BFD  A$fat2l$1 |    00000BFE  A$fat2l$1 |    00000BFF  A$fat2l$1
     00000C01  A$fat2l$1 |    00000C02  A$fat2l$1 |    00000C03  A$fat2l$1
     00000C04  A$fat2l$1 |    00000C05  A$fat2l$1 |    00000C06  A$fat2l$1
     00000C07  A$fat2l$1 |    00000C09  A$fat2l$1 |    00000C0C  A$fat2l$1
     00000C0D  A$fat2l$1 |    00000C0E  A$fat2l$1 |    00000C0F  A$fat2l$1
     00000C10  A$fat2l$1 |    00000C11  A$fat2l$1 |    00000C12  A$fat2l$1
     00000C14  A$fat2l$1 |    00000C14  C$fat2l.c |    00000C17  A$fat2l$1
     00000C18  A$fat2l$1 |    00000C1B  A$fat2l$1 |    00000C1C  A$fat2l$1
     00000C1F  A$fat2l$1 |    00000C22  A$fat2l$1 |    00000C24  A$fat2l$1
     00000C27  A$fat2l$1 |    00000C2A  A$fat2l$1 |    00000C2C  A$fat2l$1
     00000C2F  A$fat2l$1 |    00000C32  A$fat2l$1 |    00000C34  A$fat2l$1
     00000C37  A$fat2l$1 |    00000C3A  A$fat2l$1 |    00000C3C  A$fat2l$1
     00000C3F  A$fat2l$1 |    00000C3F  C$fat2l.c |    00000C42  A$fat2l$1
     00000C45  A$fat2l$1 |    00000C46  A$fat2l$1 |    00000C47  A$fat2l$1
     00000C48  A$fat2l$1 |    00000C49  A$fat2l$1 |    00000C4A  A$fat2l$1
     00000C4B  A$fat2l$1 |    00000C4C  A$fat2l$1 |    00000C4D  A$fat2l$1
     00000C4F  A$fat2l$1 |    00000C50  A$fat2l$1 |    00000C52  A$fat2l$1
     00000C53  A$fat2l$1 |    00000C54  A$fat2l$1 |    00000C55  A$fat2l$1
     00000C58  A$fat2l$1 |    00000C59  A$fat2l$1 |    00000C5A  A$fat2l$1
     00000C5E  A$fat2l$1 |    00000C5F  A$fat2l$1 |    00000C60  A$fat2l$1
     00000C61  A$fat2l$1 |    00000C63  A$fat2l$1 |    00000C64  A$fat2l$1
     00000C67  A$fat2l$1 |    00000C6A  A$fat2l$1 |    00000C6B  A$fat2l$1
     00000C6C  A$fat2l$1 |    00000C6D  A$fat2l$1 |    00000C6F  A$fat2l$1
     00000C72  A$fat2l$1 |    00000C73  A$fat2l$1 |    00000C74  A$fat2l$1
     00000C75  A$fat2l$1 |    00000C76  A$fat2l$1 |    00000C77  A$fat2l$1
     00000C78  A$fat2l$1 |    00000C7A  A$fat2l$1 |    00000C7A  C$fat2l.c
     00000C7D  A$fat2l$1 |    00000C7E  A$fat2l$1 |    00000C81  A$fat2l$1
     00000C82  A$fat2l$1 |    00000C85  A$fat2l$1 |    00000C85  C$fat2l.c
     00000C86  A$fat2l$1 |    00000C87  A$fat2l$1 |    00000C87  C$fat2l.c
     00000C8A  A$fat2l$1 |    00000C8A  C$fat2l.c |    00000C8D  A$fat2l$1
     00000C90  A$fat2l$1 |    00000C93  A$fat2l$1 |    00000C96  A$fat2l$1
     00000C9A  A$fat2l$1 |    00000C9E  A$fat2l$1 |    00000CA1  A$fat2l$1
     00000CA4  A$fat2l$1 |    00000CA5  A$fat2l$1 |    00000CA8  A$fat2l$1
     00000CA9  A$fat2l$1 |    00000CAA  A$fat2l$1 |    00000CAB  A$fat2l$1
     00000CAC  A$fat2l$1 |    00000CAD  A$fat2l$1 |    00000CAE  A$fat2l$1
     00000CB0  A$fat2l$1 |    00000CB2  A$fat2l$1 |    00000CB4  A$fat2l$1
     00000CB6  A$fat2l$1 |    00000CB8  A$fat2l$1 |    00000CBA  A$fat2l$1
     00000CBD  A$fat2l$1 |    00000CC0  A$fat2l$1 |    00000CC3  A$fat2l$1
     00000CC6  A$fat2l$1 |    00000CC9  A$fat2l$1 |    00000CCA  A$fat2l$1
     00000CCD  A$fat2l$1 |    00000CCE  A$fat2l$1 |    00000CD0  A$fat2l$1
     00000CD1  A$fat2l$1 |    00000CD2  A$fat2l$1 |    00000CD3  A$fat2l$1
     00000CD4  A$fat2l$1 |    00000CD5  A$fat2l$1 |    00000CD6  A$fat2l$1
     00000CD9  A$fat2l$1 |    00000CDA  A$fat2l$1 |    00000CDB  A$fat2l$1
     00000CDC  A$fat2l$1 |    00000CDE  A$fat2l$1 |    00000CDF  A$fat2l$1
     00000CE0  A$fat2l$1 |    00000CE3  A$fat2l$1 |    00000CE5  A$fat2l$1
     00000CE8  A$fat2l$1 |    00000CEA  A$fat2l$1 |    00000CEA  C$fat2l.c
ASxxxx Linker V03.00 + NoICE + sdld,  page 12.
Hexadecimal  [32-Bits]

Area                       Addr        Size        Decimal Bytes (Attributes)
--------------------       ----        ----        ------- ----- ------------
_CODE                  00000000    000084DB =       34011. bytes (REL,CON)

        Value  Global            Value  Global            Value  Global    
        -----  ------            -----  ------            -----  ------    
     00000CED  A$fat2l$1 |    00000CEF  A$fat2l$1 |    00000CF0  A$fat2l$1
     00000CF3  A$fat2l$1 |    00000CF5  A$fat2l$1 |    00000CF6  A$fat2l$1
     00000CF7  A$fat2l$1 |    00000CF8  A$fat2l$1 |    00000CF9  A$fat2l$1
     00000CF9  C$fat2l.c |    00000CFC  A$fat2l$1 |    00000CFC  C$fat2l.c
     00000CFF  A$fat2l$1 |    00000D02  A$fat2l$1 |    00000D05  A$fat2l$1
     00000D08  A$fat2l$1 |    00000D0C  A$fat2l$1 |    00000D10  A$fat2l$1
     00000D13  A$fat2l$1 |    00000D16  A$fat2l$1 |    00000D17  A$fat2l$1
     00000D1A  A$fat2l$1 |    00000D1B  A$fat2l$1 |    00000D1C  A$fat2l$1
     00000D1D  A$fat2l$1 |    00000D1E  A$fat2l$1 |    00000D1F  A$fat2l$1
     00000D20  A$fat2l$1 |    00000D22  A$fat2l$1 |    00000D24  A$fat2l$1
     00000D26  A$fat2l$1 |    00000D28  A$fat2l$1 |    00000D2A  A$fat2l$1
     00000D2C  A$fat2l$1 |    00000D2F  A$fat2l$1 |    00000D32  A$fat2l$1
     00000D35  A$fat2l$1 |    00000D38  A$fat2l$1 |    00000D3B  A$fat2l$1
     00000D3C  A$fat2l$1 |    00000D3F  A$fat2l$1 |    00000D40  A$fat2l$1
     00000D42  A$fat2l$1 |    00000D43  A$fat2l$1 |    00000D44  A$fat2l$1
     00000D45  A$fat2l$1 |    00000D46  A$fat2l$1 |    00000D47  A$fat2l$1
     00000D48  A$fat2l$1 |    00000D4B  A$fat2l$1 |    00000D4C  A$fat2l$1
     00000D4D  A$fat2l$1 |    00000D4E  A$fat2l$1 |    00000D50  A$fat2l$1
     00000D51  A$fat2l$1 |    00000D52  A$fat2l$1 |    00000D55  A$fat2l$1
     00000D57  A$fat2l$1 |    00000D5A  A$fat2l$1 |    00000D5C  A$fat2l$1
     00000D5C  C$fat2l.c |    00000D5F  A$fat2l$1 |    00000D61  A$fat2l$1
     00000D62  A$fat2l$1 |    00000D65  A$fat2l$1 |    00000D67  A$fat2l$1
     00000D68  A$fat2l$1 |    00000D69  A$fat2l$1 |    00000D6A  A$fat2l$1
     00000D6B  A$fat2l$1 |    00000D6B  C$fat2l.c |    00000D6D  A$fat2l$1
     00000D6F  A$fat2l$1 |    00000D71  A$fat2l$1 |    00000D71  C$fat2l.c
     00000D71  XG$fatRea |    00000D72  Ffat2l$__ |    00000D89  Ffat2l$__
     00000DA0  A$fat2l$1 |    00000DA0  C$fat2l.c |    00000DA0  G$fatRead
     00000DA0  _fatReadS |    00000DA2  A$fat2l$1 |    00000DA6  A$fat2l$1
     00000DA8  A$fat2l$1 |    00000DAB  A$fat2l$1 |    00000DAC  A$fat2l$1
     00000DAD  A$fat2l$1 |    00000DAD  C$fat2l.c |    00000DB0  A$fat2l$1
     00000DB3  A$fat2l$1 |    00000DB4  A$fat2l$1 |    00000DB5  A$fat2l$1
     00000DB6  A$fat2l$1 |    00000DB6  C$fat2l.c |    00000DB9  A$fat2l$1
     00000DBC  A$fat2l$1 |    00000DBD  A$fat2l$1 |    00000DBE  A$fat2l$1
     00000DC1  A$fat2l$1 |    00000DC2  A$fat2l$1 |    00000DC3  A$fat2l$1
     00000DC4  A$fat2l$1 |    00000DC8  A$fat2l$1 |    00000DCA  A$fat2l$1
     00000DCB  A$fat2l$1 |    00000DCC  A$fat2l$1 |    00000DCF  A$fat2l$1
     00000DD0  A$fat2l$1 |    00000DD3  A$fat2l$1 |    00000DD4  A$fat2l$1
     00000DD6  A$fat2l$1 |    00000DD9  A$fat2l$1 |    00000DDA  A$fat2l$1
     00000DDB  A$fat2l$1 |    00000DDC  A$fat2l$1 |    00000DDD  A$fat2l$1
     00000DDE  A$fat2l$1 |    00000DDF  A$fat2l$1 |    00000DE0  A$fat2l$1
     00000DE1  A$fat2l$1 |    00000DE3  A$fat2l$1 |    00000DE3  C$fat2l.c
     00000DE6  A$fat2l$1 |    00000DE7  A$fat2l$1 |    00000DEA  A$fat2l$1
     00000DEB  A$fat2l$1 |    00000DEE  A$fat2l$1 |    00000DEE  C$fat2l.c
     00000DF2  A$fat2l$1 |    00000DF4  A$fat2l$1 |    00000DF7  A$fat2l$1
     00000DFA  A$fat2l$1 |    00000DFD  A$fat2l$1 |    00000DFE  A$fat2l$1
     00000DFF  A$fat2l$1 |    00000E00  A$fat2l$1 |    00000E01  A$fat2l$1
     00000E02  A$fat2l$1 |    00000E03  A$fat2l$1 |    00000E04  A$fat2l$1
     00000E05  A$fat2l$1 |    00000E06  A$fat2l$1 |    00000E07  A$fat2l$1
     00000E0A  A$fat2l$1 |    00000E0D  A$fat2l$1 |    00000E10  A$fat2l$1
     00000E13  A$fat2l$1 |    00000E16  A$fat2l$1 |    00000E17  A$fat2l$1
     00000E1A  A$fat2l$1 |    00000E1D  A$fat2l$1 |    00000E20  A$fat2l$1
ASxxxx Linker V03.00 + NoICE + sdld,  page 13.
Hexadecimal  [32-Bits]

Area                       Addr        Size        Decimal Bytes (Attributes)
--------------------       ----        ----        ------- ----- ------------
_CODE                  00000000    000084DB =       34011. bytes (REL,CON)

        Value  Global            Value  Global            Value  Global    
        -----  ------            -----  ------            -----  ------    
     00000E22  A$fat2l$1 |    00000E23  A$fat2l$1 |    00000E26  A$fat2l$1
     00000E28  A$fat2l$1 |    00000E29  A$fat2l$1 |    00000E2D  A$fat2l$1
     00000E2D  C$fat2l.c |    00000E30  A$fat2l$1 |    00000E31  A$fat2l$1
     00000E32  A$fat2l$1 |    00000E33  A$fat2l$1 |    00000E36  A$fat2l$1
     00000E37  A$fat2l$1 |    00000E3A  A$fat2l$1 |    00000E3D  A$fat2l$1
     00000E3F  A$fat2l$1 |    00000E42  A$fat2l$1 |    00000E44  A$fat2l$1
     00000E45  A$fat2l$1 |    00000E46  A$fat2l$1 |    00000E47  A$fat2l$1
     00000E48  A$fat2l$1 |    00000E4B  A$fat2l$1 |    00000E4C  A$fat2l$1
     00000E4D  A$fat2l$1 |    00000E50  A$fat2l$1 |    00000E52  A$fat2l$1
     00000E55  A$fat2l$1 |    00000E58  A$fat2l$1 |    00000E5B  A$fat2l$1
     00000E5C  A$fat2l$1 |    00000E5F  A$fat2l$1 |    00000E61  A$fat2l$1
     00000E62  A$fat2l$1 |    00000E63  A$fat2l$1 |    00000E63  C$fat2l.c
     00000E66  A$fat2l$1 |    00000E69  A$fat2l$1 |    00000E6B  A$fat2l$1
     00000E6D  A$fat2l$1 |    00000E6D  C$fat2l.c |    00000E70  A$fat2l$1
     00000E71  A$fat2l$1 |    00000E74  A$fat2l$1 |    00000E77  A$fat2l$1
     00000E7A  A$fat2l$1 |    00000E7D  A$fat2l$1 |    00000E80  A$fat2l$1
     00000E81  A$fat2l$1 |    00000E82  A$fat2l$1 |    00000E83  A$fat2l$1
     00000E84  A$fat2l$1 |    00000E87  A$fat2l$1 |    00000E8A  A$fat2l$1
     00000E8B  A$fat2l$1 |    00000E8C  A$fat2l$1 |    00000E8D  A$fat2l$1
     00000E8D  C$fat2l.c |    00000E90  A$fat2l$1 |    00000E91  A$fat2l$1
     00000E93  A$fat2l$1 |    00000E94  A$fat2l$1 |    00000E96  A$fat2l$1
     00000E96  C$fat2l.c |    00000E99  A$fat2l$1 |    00000E9A  A$fat2l$1
     00000E9D  A$fat2l$1 |    00000EA0  A$fat2l$1 |    00000EA3  A$fat2l$1
     00000EA6  A$fat2l$1 |    00000EA9  A$fat2l$1 |    00000EAA  A$fat2l$1
     00000EAB  A$fat2l$1 |    00000EAC  A$fat2l$1 |    00000EAD  A$fat2l$1
     00000EB0  A$fat2l$1 |    00000EB3  A$fat2l$1 |    00000EB4  A$fat2l$1
     00000EB5  A$fat2l$1 |    00000EB6  A$fat2l$1 |    00000EB6  C$fat2l.c
     00000EB9  A$fat2l$1 |    00000EBA  A$fat2l$1 |    00000EBC  A$fat2l$1
     00000EBD  A$fat2l$1 |    00000EBF  A$fat2l$1 |    00000EBF  C$fat2l.c
     00000EC1  A$fat2l$1 |    00000EC3  A$fat2l$1 |    00000EC5  A$fat2l$1
     00000EC5  C$fat2l.c |    00000EC5  XG$fatRea |    00000EC6  Ffat2l$__
     00000EE7  A$fat2l$1 |    00000EE7  C$fat2l.c |    00000EE7  G$fatChec
     00000EE7  _fatCheck |    00000EE9  A$fat2l$1 |    00000EED  A$fat2l$1
     00000EEF  A$fat2l$1 |    00000EEF  C$fat2l.c |    00000EF2  A$fat2l$1
     00000EF5  A$fat2l$1 |    00000EF7  A$fat2l$1 |    00000EF9  A$fat2l$1
     00000EFB  A$fat2l$1 |    00000EFD  A$fat2l$1 |    00000EFF  A$fat2l$1
     00000F01  A$fat2l$1 |    00000F01  C$fat2l.c |    00000F04  A$fat2l$1
     00000F06  A$fat2l$1 |    00000F07  A$fat2l$1 |    00000F09  A$fat2l$1
     00000F0A  A$fat2l$1 |    00000F0C  A$fat2l$1 |    00000F0E  A$fat2l$1
     00000F10  A$fat2l$1 |    00000F10  C$fat2l.c |    00000F13  A$fat2l$1
     00000F16  A$fat2l$1 |    00000F17  A$fat2l$1 |    00000F1A  A$fat2l$1
     00000F1B  A$fat2l$1 |    00000F1C  A$fat2l$1 |    00000F1D  A$fat2l$1
     00000F1E  A$fat2l$1 |    00000F1F  A$fat2l$1 |    00000F20  A$fat2l$1
     00000F22  A$fat2l$1 |    00000F22  C$fat2l.c |    00000F22  XG$fatChe
     00000F23  A$fat2l$1 |    00000F23  C$fat2l.c |    00000F23  G$fatStdC
     00000F23  _fatStdCh |    00000F25  A$fat2l$1 |    00000F29  A$fat2l$1
     00000F2B  A$fat2l$1 |    00000F2B  C$fat2l.c |    00000F2E  A$fat2l$1
     00000F31  A$fat2l$1 |    00000F32  A$fat2l$1 |    00000F33  A$fat2l$1
     00000F34  A$fat2l$1 |    00000F36  A$fat2l$1 |    00000F39  A$fat2l$1
     00000F3A  A$fat2l$1 |    00000F3D  A$fat2l$1 |    00000F3E  A$fat2l$1
     00000F41  A$fat2l$1 |    00000F41  C$fat2l.c |    00000F44  A$fat2l$1
ASxxxx Linker V03.00 + NoICE + sdld,  page 14.
Hexadecimal  [32-Bits]

Area                       Addr        Size        Decimal Bytes (Attributes)
--------------------       ----        ----        ------- ----- ------------
_CODE                  00000000    000084DB =       34011. bytes (REL,CON)

        Value  Global            Value  Global            Value  Global    
        -----  ------            -----  ------            -----  ------    
     00000F45  A$fat2l$1 |    00000F46  A$fat2l$1 |    00000F46  C$fat2l.c
     00000F49  A$fat2l$1 |    00000F4A  A$fat2l$1 |    00000F4C  A$fat2l$1
     00000F4C  C$fat2l.c |    00000F4D  A$fat2l$1 |    00000F4E  A$fat2l$1
     00000F4F  A$fat2l$1 |    00000F50  A$fat2l$1 |    00000F51  A$fat2l$1
     00000F52  A$fat2l$1 |    00000F55  A$fat2l$1 |    00000F56  A$fat2l$1
     00000F59  A$fat2l$1 |    00000F5A  A$fat2l$1 |    00000F5C  A$fat2l$1
     00000F5F  A$fat2l$1 |    00000F60  A$fat2l$1 |    00000F63  A$fat2l$1
     00000F64  A$fat2l$1 |    00000F66  A$fat2l$1 |    00000F66  C$fat2l.c
     00000F67  A$fat2l$1 |    00000F68  A$fat2l$1 |    00000F69  A$fat2l$1
     00000F6C  A$fat2l$1 |    00000F6D  A$fat2l$1 |    00000F6E  A$fat2l$1
     00000F6F  A$fat2l$1 |    00000F70  A$fat2l$1 |    00000F71  A$fat2l$1
     00000F72  A$fat2l$1 |    00000F75  A$fat2l$1 |    00000F76  A$fat2l$1
     00000F79  A$fat2l$1 |    00000F7A  A$fat2l$1 |    00000F7C  A$fat2l$1
     00000F7F  A$fat2l$1 |    00000F80  A$fat2l$1 |    00000F83  A$fat2l$1
     00000F84  A$fat2l$1 |    00000F86  A$fat2l$1 |    00000F86  C$fat2l.c
     00000F89  A$fat2l$1 |    00000F8A  A$fat2l$1 |    00000F8C  A$fat2l$1
     00000F8C  C$fat2l.c |    00000F8F  A$fat2l$1 |    00000F90  A$fat2l$1
     00000F92  A$fat2l$1 |    00000F95  A$fat2l$1 |    00000F98  A$fat2l$1
     00000F9A  A$fat2l$1 |    00000F9B  A$fat2l$1 |    00000F9C  A$fat2l$1
     00000F9D  A$fat2l$1 |    00000F9E  A$fat2l$1 |    00000FA1  A$fat2l$1
     00000FA4  A$fat2l$1 |    00000FA5  A$fat2l$1 |    00000FA6  A$fat2l$1
     00000FA7  A$fat2l$1 |    00000FAA  A$fat2l$1 |    00000FAB  A$fat2l$1
     00000FAC  A$fat2l$1 |    00000FAD  A$fat2l$1 |    00000FAE  A$fat2l$1
     00000FB0  A$fat2l$1 |    00000FB3  A$fat2l$1 |    00000FB4  A$fat2l$1
     00000FB7  A$fat2l$1 |    00000FB8  A$fat2l$1 |    00000FBA  A$fat2l$1
     00000FBA  C$fat2l.c |    00000FBC  A$fat2l$1 |    00000FBE  A$fat2l$1
     00000FBE  C$fat2l.c |    00000FBE  XG$fatStd |    00000FBF  A$fat2l$1
     00000FBF  C$fat2l.c |    00000FBF  G$fatOpen |    00000FBF  _fatOpen 
     00000FC1  A$fat2l$1 |    00000FC5  A$fat2l$1 |    00000FC7  A$fat2l$1
     00000FCA  A$fat2l$1 |    00000FCB  A$fat2l$1 |    00000FCC  A$fat2l$1
     00000FCC  C$fat2l.c |    00000FCF  A$fat2l$1 |    00000FD0  A$fat2l$1
     00000FD2  A$fat2l$1 |    00000FD5  A$fat2l$1 |    00000FD6  A$fat2l$1
     00000FD7  A$fat2l$1 |    00000FD8  A$fat2l$1 |    00000FDB  A$fat2l$1
     00000FDE  A$fat2l$1 |    00000FDF  A$fat2l$1 |    00000FE2  A$fat2l$1
     00000FE3  A$fat2l$1 |    00000FE4  A$fat2l$1 |    00000FE7  A$fat2l$1
     00000FEA  A$fat2l$1 |    00000FEB  A$fat2l$1 |    00000FEE  A$fat2l$2
     00000FEF  A$fat2l$2 |    00000FF0  A$fat2l$2 |    00000FF1  A$fat2l$2
     00000FF2  A$fat2l$2 |    00000FF3  A$fat2l$2 |    00000FF5  A$fat2l$2
     00000FF6  A$fat2l$2 |    00000FF9  A$fat2l$2 |    00000FF9  C$fat2l.c
     00000FFC  A$fat2l$2 |    00000FFF  A$fat2l$2 |    00001002  A$fat2l$2
     00001003  A$fat2l$2 |    00001004  A$fat2l$2 |    00001007  A$fat2l$2
     00001008  A$fat2l$2 |    0000100A  A$fat2l$2 |    0000100D  A$fat2l$2
     0000100F  A$fat2l$2 |    00001012  A$fat2l$2 |    00001013  A$fat2l$2
     00001014  A$fat2l$2 |    00001015  A$fat2l$2 |    00001016  A$fat2l$2
     00001017  A$fat2l$2 |    0000101A  A$fat2l$2 |    0000101B  A$fat2l$2
     0000101C  A$fat2l$2 |    0000101F  A$fat2l$2 |    00001021  A$fat2l$2
     00001022  A$fat2l$2 |    00001022  C$fat2l.c |    00001025  A$fat2l$2
     00001026  A$fat2l$2 |    00001027  A$fat2l$2 |    00001027  C$fat2l.c
     0000102A  A$fat2l$2 |    0000102B  A$fat2l$2 |    0000102C  A$fat2l$2
     0000102D  A$fat2l$2 |    0000102D  C$fat2l.c |    00001030  A$fat2l$2
     00001031  A$fat2l$2 |    00001033  A$fat2l$2 |    00001033  C$fat2l.c
ASxxxx Linker V03.00 + NoICE + sdld,  page 15.
Hexadecimal  [32-Bits]

Area                       Addr        Size        Decimal Bytes (Attributes)
--------------------       ----        ----        ------- ----- ------------
_CODE                  00000000    000084DB =       34011. bytes (REL,CON)

        Value  Global            Value  Global            Value  Global    
        -----  ------            -----  ------            -----  ------    
     00001036  A$fat2l$2 |    00001039  A$fat2l$2 |    0000103A  A$fat2l$2
     0000103B  A$fat2l$2 |    0000103C  A$fat2l$2 |    0000103D  A$fat2l$2
     0000103E  A$fat2l$2 |    00001041  A$fat2l$2 |    00001044  A$fat2l$2
     00001048  A$fat2l$2 |    0000104C  A$fat2l$2 |    0000104F  A$fat2l$2
     00001052  A$fat2l$2 |    00001055  A$fat2l$2 |    00001058  A$fat2l$2
     0000105B  A$fat2l$2 |    0000105E  A$fat2l$2 |    00001061  A$fat2l$2
     00001064  A$fat2l$2 |    00001067  A$fat2l$2 |    0000106A  A$fat2l$2
     0000106D  A$fat2l$2 |    00001070  A$fat2l$2 |    00001071  A$fat2l$2
     00001074  A$fat2l$2 |    00001075  A$fat2l$2 |    00001078  A$fat2l$2
     0000107A  A$fat2l$2 |    0000107B  A$fat2l$2 |    0000107B  C$fat2l.c
     0000107D  A$fat2l$2 |    0000107E  A$fat2l$2 |    0000107F  A$fat2l$2
     00001081  A$fat2l$2 |    00001082  A$fat2l$2 |    00001084  A$fat2l$2
     00001084  C$fat2l.c |    00001085  A$fat2l$2 |    00001088  A$fat2l$2
     0000108B  A$fat2l$2 |    0000108C  A$fat2l$2 |    0000108D  A$fat2l$2
     0000108E  A$fat2l$2 |    0000108F  A$fat2l$2 |    00001090  A$fat2l$2
     00001091  A$fat2l$2 |    00001092  A$fat2l$2 |    00001093  A$fat2l$2
     00001094  A$fat2l$2 |    00001095  A$fat2l$2 |    00001096  A$fat2l$2
     00001097  A$fat2l$2 |    00001098  A$fat2l$2 |    00001099  A$fat2l$2
     0000109A  A$fat2l$2 |    0000109D  A$fat2l$2 |    000010A0  A$fat2l$2
     000010A4  A$fat2l$2 |    000010A8  A$fat2l$2 |    000010AB  A$fat2l$2
     000010AE  A$fat2l$2 |    000010B1  A$fat2l$2 |    000010B4  A$fat2l$2
     000010B7  A$fat2l$2 |    000010BA  A$fat2l$2 |    000010BD  A$fat2l$2
     000010C0  A$fat2l$2 |    000010C3  A$fat2l$2 |    000010C6  A$fat2l$2
     000010C9  A$fat2l$2 |    000010CC  A$fat2l$2 |    000010CD  A$fat2l$2
     000010D0  A$fat2l$2 |    000010D1  A$fat2l$2 |    000010D4  A$fat2l$2
     000010D6  A$fat2l$2 |    000010D7  A$fat2l$2 |    000010D7  C$fat2l.c
     000010D9  A$fat2l$2 |    000010DA  A$fat2l$2 |    000010DB  A$fat2l$2
     000010DD  A$fat2l$2 |    000010DE  A$fat2l$2 |    000010DE  C$fat2l.c
     000010E0  A$fat2l$2 |    000010E2  A$fat2l$2 |    000010E4  A$fat2l$2
     000010E4  C$fat2l.c |    000010E4  XG$fatOpe |    000010E5  A$fat2l$2
     000010E5  C$fat2l.c |    000010E5  G$fatClos |    000010E5  _fatClose
     000010E7  A$fat2l$2 |    000010EB  A$fat2l$2 |    000010ED  A$fat2l$2
     000010ED  C$fat2l.c |    000010F0  A$fat2l$2 |    000010F3  A$fat2l$2
     000010F4  A$fat2l$2 |    000010F5  A$fat2l$2 |    000010F7  A$fat2l$2
     000010FA  A$fat2l$2 |    000010FB  A$fat2l$2 |    000010FE  A$fat2l$2
     000010FF  A$fat2l$2 |    00001101  A$fat2l$2 |    00001101  C$fat2l.c
     00001105  A$fat2l$2 |    00001107  A$fat2l$2 |    0000110A  A$fat2l$2
     0000110D  A$fat2l$2 |    00001110  A$fat2l$2 |    00001113  A$fat2l$2
     00001114  A$fat2l$2 |    00001115  A$fat2l$2 |    00001116  A$fat2l$2
     00001118  A$fat2l$2 |    00001118  C$fat2l.c |    0000111C  A$fat2l$2
     00001120  A$fat2l$2 |    00001124  A$fat2l$2 |    00001128  A$fat2l$2
     00001128  C$fat2l.c |    0000112B  A$fat2l$2 |    0000112C  A$fat2l$2
     0000112D  A$fat2l$2 |    0000112E  A$fat2l$2 |    0000112F  A$fat2l$2
     00001130  A$fat2l$2 |    00001130  C$fat2l.c |    00001132  A$fat2l$2
     00001134  A$fat2l$2 |    00001134  C$fat2l.c |    00001136  A$fat2l$2
     00001138  A$fat2l$2 |    00001138  C$fat2l.c |    00001138  XG$fatClo
     00001139  A$fat2l$2 |    00001139  C$fat2l.c |    00001139  G$fatRefo
     00001139  _fatRefor |    0000113B  A$fat2l$2 |    0000113F  A$fat2l$2
     00001141  A$fat2l$2 |    00001141  C$fat2l.c |    00001144  A$fat2l$2
     00001146  A$fat2l$2 |    00001148  A$fat2l$2 |    0000114B  A$fat2l$2
     0000114D  A$fat2l$2 |    0000114F  A$fat2l$2 |    00001152  A$fat2l$2
ASxxxx Linker V03.00 + NoICE + sdld,  page 16.
Hexadecimal  [32-Bits]

Area                       Addr        Size        Decimal Bytes (Attributes)
--------------------       ----        ----        ------- ----- ------------
_CODE                  00000000    000084DB =       34011. bytes (REL,CON)

        Value  Global            Value  Global            Value  Global    
        -----  ------            -----  ------            -----  ------    
     00001154  A$fat2l$2 |    00001156  A$fat2l$2 |    00001159  A$fat2l$2
     0000115B  A$fat2l$2 |    0000115D  A$fat2l$2 |    0000115F  A$fat2l$2
     00001161  A$fat2l$2 |    00001161  C$fat2l.c |    00001164  A$fat2l$2
     00001167  A$fat2l$2 |    0000116A  A$fat2l$2 |    0000116B  A$fat2l$2
     0000116C  A$fat2l$2 |    0000116D  A$fat2l$2 |    0000116E  A$fat2l$2
     0000116F  A$fat2l$2 |    00001170  A$fat2l$2 |    00001171  A$fat2l$2
     00001172  A$fat2l$2 |    00001173  A$fat2l$2 |    00001174  A$fat2l$2
     00001177  A$fat2l$2 |    00001178  A$fat2l$2 |    00001179  A$fat2l$2
     0000117D  A$fat2l$2 |    0000117E  A$fat2l$2 |    0000117F  A$fat2l$2
     00001180  A$fat2l$2 |    00001182  A$fat2l$2 |    00001183  A$fat2l$2
     00001184  A$fat2l$2 |    00001185  A$fat2l$2 |    00001188  A$fat2l$2
     00001189  A$fat2l$2 |    0000118C  A$fat2l$2 |    0000118D  A$fat2l$2
     0000118F  A$fat2l$2 |    00001192  A$fat2l$2 |    00001195  A$fat2l$2
     00001196  A$fat2l$2 |    00001197  A$fat2l$2 |    00001197  C$fat2l.c
     0000119A  A$fat2l$2 |    0000119C  A$fat2l$2 |    0000119C  C$fat2l.c
     0000119C  XG$fatRef |    0000119D  A$fat2l$2 |    0000119D  C$fat2l.c
     0000119D  G$fatRead |    0000119D  _fatReadB |    0000119F  A$fat2l$2
     000011A3  A$fat2l$2 |    000011A5  A$fat2l$2 |    000011A6  A$fat2l$2
     000011A7  A$fat2l$2 |    000011A7  C$fat2l.c |    000011AA  A$fat2l$2
     000011AD  A$fat2l$2 |    000011B0  A$fat2l$2 |    000011B1  A$fat2l$2
     000011B2  A$fat2l$2 |    000011B3  A$fat2l$2 |    000011B4  A$fat2l$2
     000011B5  A$fat2l$2 |    000011B6  A$fat2l$2 |    000011B7  A$fat2l$2
     000011B9  A$fat2l$2 |    000011BC  A$fat2l$2 |    000011BD  A$fat2l$2
     000011C0  A$fat2l$2 |    000011C3  A$fat2l$2 |    000011C4  A$fat2l$2
     000011C5  A$fat2l$2 |    000011C6  A$fat2l$2 |    000011C7  A$fat2l$2
     000011C8  A$fat2l$2 |    000011C9  A$fat2l$2 |    000011CA  A$fat2l$2
     000011CB  A$fat2l$2 |    000011CC  A$fat2l$2 |    000011CD  A$fat2l$2
     000011CE  A$fat2l$2 |    000011D0  A$fat2l$2 |    000011D2  A$fat2l$2
     000011D4  A$fat2l$2 |    000011D4  C$fat2l.c |    000011D5  A$fat2l$2
     000011D6  A$fat2l$2 |    000011D9  A$fat2l$2 |    000011DA  A$fat2l$2
     000011DB  A$fat2l$2 |    000011DF  A$fat2l$2 |    000011E0  A$fat2l$2
     000011E1  A$fat2l$2 |    000011E2  A$fat2l$2 |    000011E4  A$fat2l$2
     000011E5  A$fat2l$2 |    000011E8  A$fat2l$2 |    000011EB  A$fat2l$2
     000011EC  A$fat2l$2 |    000011ED  A$fat2l$2 |    000011EE  A$fat2l$2
     000011F0  A$fat2l$2 |    000011F3  A$fat2l$2 |    000011F4  A$fat2l$2
     000011F5  A$fat2l$2 |    000011F6  A$fat2l$2 |    000011F7  A$fat2l$2
     000011F8  A$fat2l$2 |    000011F9  A$fat2l$2 |    000011FB  A$fat2l$2
     000011FB  C$fat2l.c |    000011FE  A$fat2l$2 |    000011FF  A$fat2l$2
     00001202  A$fat2l$2 |    00001203  A$fat2l$2 |    00001205  A$fat2l$2
     00001205  C$fat2l.c |    00001206  A$fat2l$2 |    00001207  A$fat2l$2
     00001208  A$fat2l$2 |    00001209  A$fat2l$2 |    0000120A  A$fat2l$2
     0000120B  A$fat2l$2 |    0000120C  A$fat2l$2 |    0000120D  A$fat2l$2
     0000120E  A$fat2l$2 |    0000120F  A$fat2l$2 |    00001210  A$fat2l$2
     00001210  C$fat2l.c |    00001213  A$fat2l$2 |    00001216  A$fat2l$2
     00001217  A$fat2l$2 |    00001218  A$fat2l$2 |    00001219  A$fat2l$2
     0000121A  A$fat2l$2 |    0000121B  A$fat2l$2 |    0000121C  A$fat2l$2
     0000121D  A$fat2l$2 |    0000121E  A$fat2l$2 |    00001220  A$fat2l$2
     00001221  A$fat2l$2 |    00001223  A$fat2l$2 |    00001224  A$fat2l$2
     00001227  A$fat2l$2 |    0000122A  A$fat2l$2 |    0000122B  A$fat2l$2
     0000122C  A$fat2l$2 |    0000122D  A$fat2l$2 |    0000122E  A$fat2l$2
     0000122F  A$fat2l$2 |    00001230  A$fat2l$2 |    00001231  A$fat2l$2
ASxxxx Linker V03.00 + NoICE + sdld,  page 17.
Hexadecimal  [32-Bits]

Area                       Addr        Size        Decimal Bytes (Attributes)
--------------------       ----        ----        ------- ----- ------------
_CODE                  00000000    000084DB =       34011. bytes (REL,CON)

        Value  Global            Value  Global            Value  Global    
        -----  ------            -----  ------            -----  ------    
     00001231  C$fat2l.c |    00001233  A$fat2l$2 |    00001235  A$fat2l$2
     00001237  A$fat2l$2 |    00001237  C$fat2l.c |    00001237  XG$fatRea
     00001238  Ffat2l$__ |    0000124B  A$fat2l$2 |    0000124B  C$fat2l.c
     0000124B  G$fatWrit |    0000124B  _fatWrite |    0000124D  A$fat2l$2
     00001251  A$fat2l$2 |    00001253  A$fat2l$2 |    00001254  A$fat2l$2
     00001255  A$fat2l$2 |    00001255  C$fat2l.c |    00001258  A$fat2l$2
     0000125B  A$fat2l$2 |    0000125E  A$fat2l$2 |    0000125F  A$fat2l$2
     00001262  A$fat2l$2 |    00001265  A$fat2l$2 |    00001266  A$fat2l$2
     00001267  A$fat2l$2 |    00001268  A$fat2l$2 |    0000126A  A$fat2l$2
     0000126D  A$fat2l$2 |    0000126E  A$fat2l$2 |    0000126F  A$fat2l$2
     00001270  A$fat2l$2 |    00001271  A$fat2l$2 |    00001272  A$fat2l$2
     00001273  A$fat2l$2 |    00001274  A$fat2l$2 |    00001275  A$fat2l$2
     00001276  A$fat2l$2 |    00001277  A$fat2l$2 |    00001278  A$fat2l$2
     00001279  A$fat2l$2 |    0000127A  A$fat2l$2 |    0000127B  A$fat2l$2
     0000127C  A$fat2l$2 |    0000127E  A$fat2l$2 |    00001280  A$fat2l$2
     00001282  A$fat2l$2 |    00001282  C$fat2l.c |    00001283  A$fat2l$2
     00001284  A$fat2l$2 |    00001287  A$fat2l$2 |    00001288  A$fat2l$2
     00001289  A$fat2l$2 |    0000128D  A$fat2l$2 |    0000128E  A$fat2l$2
     0000128F  A$fat2l$2 |    00001290  A$fat2l$2 |    00001292  A$fat2l$2
     00001293  A$fat2l$2 |    00001296  A$fat2l$2 |    00001299  A$fat2l$2
     0000129A  A$fat2l$2 |    0000129B  A$fat2l$2 |    0000129C  A$fat2l$2
     0000129E  A$fat2l$2 |    000012A1  A$fat2l$2 |    000012A2  A$fat2l$2
     000012A3  A$fat2l$2 |    000012A4  A$fat2l$2 |    000012A5  A$fat2l$2
     000012A6  A$fat2l$2 |    000012A7  A$fat2l$2 |    000012A9  A$fat2l$2
     000012A9  C$fat2l.c |    000012AC  A$fat2l$2 |    000012AD  A$fat2l$2
     000012B0  A$fat2l$2 |    000012B1  A$fat2l$2 |    000012B3  A$fat2l$2
     000012B3  C$fat2l.c |    000012B6  A$fat2l$2 |    000012B9  A$fat2l$2
     000012BA  A$fat2l$2 |    000012BB  A$fat2l$2 |    000012BC  A$fat2l$2
     000012BD  A$fat2l$2 |    000012BE  A$fat2l$2 |    000012BF  A$fat2l$2
     000012C0  A$fat2l$2 |    000012C1  A$fat2l$2 |    000012C2  A$fat2l$2
     000012C3  A$fat2l$2 |    000012C4  A$fat2l$2 |    000012C4  C$fat2l.c
     000012C5  A$fat2l$2 |    000012C6  A$fat2l$2 |    000012C7  A$fat2l$2
     000012C8  A$fat2l$2 |    000012C9  A$fat2l$2 |    000012CA  A$fat2l$2
     000012CB  A$fat2l$2 |    000012CC  A$fat2l$2 |    000012CD  A$fat2l$2
     000012CE  A$fat2l$2 |    000012D0  A$fat2l$2 |    000012D1  A$fat2l$2
     000012D3  A$fat2l$2 |    000012D4  A$fat2l$2 |    000012D5  A$fat2l$2
     000012D6  A$fat2l$2 |    000012D7  A$fat2l$2 |    000012D8  A$fat2l$2
     000012D9  A$fat2l$2 |    000012DA  A$fat2l$2 |    000012DB  A$fat2l$2
     000012DC  A$fat2l$2 |    000012DD  A$fat2l$2 |    000012DD  C$fat2l.c
     000012DF  A$fat2l$2 |    000012E1  A$fat2l$2 |    000012E3  A$fat2l$2
     000012E3  C$fat2l.c |    000012E3  XG$fatWri |    000012E4  Ffat2l$__
     000012F7  A$fat2l$2 |    000012F7  C$fat2l.c |    000012F7  G$fatFind
     000012F7  _fatFindF |    000012F9  A$fat2l$2 |    000012FD  A$fat2l$2
     000012FF  A$fat2l$2 |    00001302  A$fat2l$2 |    00001303  A$fat2l$2
     00001304  A$fat2l$2 |    00001304  C$fat2l.c |    00001308  A$fat2l$2
     0000130C  A$fat2l$2 |    0000130C  C$fat2l.c |    0000130F  A$fat2l$2
     00001312  A$fat2l$2 |    00001315  A$fat2l$2 |    00001318  A$fat2l$2
     0000131B  A$fat2l$2 |    0000131D  A$fat2l$2 |    00001320  A$fat2l$2
     00001323  A$fat2l$2 |    00001325  A$fat2l$2 |    00001328  A$fat2l$2
     00001329  A$fat2l$2 |    0000132A  A$fat2l$2 |    0000132B  A$fat2l$2
     0000132C  A$fat2l$2 |    0000132D  A$fat2l$2 |    0000132F  A$fat2l$2
ASxxxx Linker V03.00 + NoICE + sdld,  page 18.
Hexadecimal  [32-Bits]

Area                       Addr        Size        Decimal Bytes (Attributes)
--------------------       ----        ----        ------- ----- ------------
_CODE                  00000000    000084DB =       34011. bytes (REL,CON)

        Value  Global            Value  Global            Value  Global    
        -----  ------            -----  ------            -----  ------    
     00001331  A$fat2l$2 |    00001333  A$fat2l$2 |    00001335  A$fat2l$2
     00001337  A$fat2l$2 |    00001339  A$fat2l$2 |    00001339  C$fat2l.c
     0000133C  A$fat2l$2 |    0000133D  A$fat2l$2 |    0000133F  A$fat2l$2
     0000133F  C$fat2l.c |    00001343  A$fat2l$2 |    00001347  A$fat2l$2
     00001347  C$fat2l.c |    00001349  A$fat2l$2 |    00001349  C$fat2l.c
     0000134C  A$fat2l$2 |    0000134F  A$fat2l$2 |    0000134F  C$fat2l.c
     00001350  A$fat2l$2 |    00001351  A$fat2l$2 |    00001352  A$fat2l$2
     00001353  A$fat2l$2 |    00001356  A$fat2l$2 |    00001357  A$fat2l$2
     00001358  A$fat2l$2 |    00001359  A$fat2l$2 |    0000135A  A$fat2l$2
     0000135C  A$fat2l$2 |    0000135E  A$fat2l$2 |    00001360  A$fat2l$2
     00001362  A$fat2l$2 |    00001364  A$fat2l$2 |    00001366  A$fat2l$2
     00001369  A$fat2l$2 |    0000136C  A$fat2l$2 |    0000136F  A$fat2l$2
     00001372  A$fat2l$2 |    00001375  A$fat2l$2 |    00001378  A$fat2l$2
     00001379  A$fat2l$2 |    0000137C  A$fat2l$2 |    0000137F  A$fat2l$2
     00001382  A$fat2l$2 |    00001384  A$fat2l$2 |    00001387  A$fat2l$2
     00001387  C$fat2l.c |    0000138A  A$fat2l$2 |    0000138C  A$fat2l$2
     0000138D  A$fat2l$2 |    00001390  A$fat2l$2 |    00001392  A$fat2l$2
     00001393  A$fat2l$2 |    00001396  A$fat2l$2 |    00001399  A$fat2l$2
     0000139A  A$fat2l$2 |    0000139B  A$fat2l$2 |    0000139E  A$fat2l$2
     0000139F  A$fat2l$2 |    000013A1  A$fat2l$2 |    000013A1  C$fat2l.c
     000013A4  A$fat2l$2 |    000013A5  A$fat2l$2 |    000013A7  A$fat2l$2
     000013A7  C$fat2l.c |    000013AA  A$fat2l$2 |    000013AD  A$fat2l$2
     000013B0  A$fat2l$2 |    000013B3  A$fat2l$2 |    000013B5  A$fat2l$2
     000013B7  A$fat2l$2 |    000013BB  A$fat2l$2 |    000013BF  A$fat2l$2
     000013C0  A$fat2l$2 |    000013C2  A$fat2l$2 |    000013C4  A$fat2l$2
     000013C4  C$fat2l.c |    000013C5  A$fat2l$2 |    000013C6  A$fat2l$2
     000013C7  A$fat2l$2 |    000013C8  A$fat2l$2 |    000013C9  A$fat2l$2
     000013CB  A$fat2l$2 |    000013CD  A$fat2l$2 |    000013CF  A$fat2l$2
     000013D1  A$fat2l$2 |    000013D3  A$fat2l$2 |    000013D5  A$fat2l$2
     000013D8  A$fat2l$2 |    000013DB  A$fat2l$2 |    000013DC  A$fat2l$2
     000013DE  A$fat2l$2 |    000013DF  A$fat2l$2 |    000013E0  A$fat2l$2
     000013E1  A$fat2l$2 |    000013E4  A$fat2l$2 |    000013E7  A$fat2l$2
     000013E7  C$fat2l.c |    000013EB  A$fat2l$2 |    000013EE  A$fat2l$2
     000013F1  A$fat2l$2 |    000013F5  A$fat2l$2 |    000013F9  A$fat2l$2
     000013FB  A$fat2l$2 |    000013FB  C$fat2l.c |    000013FF  A$fat2l$2
     000013FF  C$fat2l.c |    00001402  A$fat2l$2 |    00001404  A$fat2l$2
     00001404  C$fat2l.c |    00001407  A$fat2l$2 |    00001409  A$fat2l$2
     0000140C  A$fat2l$2 |    0000140D  A$fat2l$2 |    00001410  A$fat2l$2
     00001413  A$fat2l$2 |    00001414  A$fat2l$2 |    00001417  A$fat2l$2
     00001417  C$fat2l.c |    00001419  A$fat2l$2 |    00001419  C$fat2l.c
     0000141C  A$fat2l$2 |    0000141E  A$fat2l$2 |    00001421  A$fat2l$2
     00001424  A$fat2l$2 |    00001427  A$fat2l$2 |    0000142A  A$fat2l$2
     0000142D  A$fat2l$2 |    0000142D  C$fat2l.c |    00001430  A$fat2l$2
     00001433  A$fat2l$2 |    00001434  A$fat2l$2 |    00001437  A$fat2l$2
     0000143A  A$fat2l$2 |    0000143D  A$fat2l$2 |    0000143D  C$fat2l.c
     00001440  A$fat2l$2 |    00001443  A$fat2l$2 |    00001445  A$fat2l$2
     00001447  A$fat2l$2 |    00001447  C$fat2l.c |    00001447  XG$fatFin
     00001448  A$fat2l$2 |    00001448  C$fat2l.c |    00001448  G$fatSetC
     00001448  _fatSetCo |    0000144A  A$fat2l$2 |    0000144E  A$fat2l$2
     00001450  A$fat2l$2 |    00001453  A$fat2l$2 |    00001454  A$fat2l$2
     00001455  A$fat2l$2 |    00001455  C$fat2l.c |    00001456  A$fat2l$2
ASxxxx Linker V03.00 + NoICE + sdld,  page 19.
Hexadecimal  [32-Bits]

Area                       Addr        Size        Decimal Bytes (Attributes)
--------------------       ----        ----        ------- ----- ------------
_CODE                  00000000    000084DB =       34011. bytes (REL,CON)

        Value  Global            Value  Global            Value  Global    
        -----  ------            -----  ------            -----  ------    
     00001457  A$fat2l$2 |    00001458  A$fat2l$2 |    0000145B  A$fat2l$2
     0000145E  A$fat2l$2 |    0000145F  A$fat2l$2 |    00001462  A$fat2l$2
     00001463  A$fat2l$2 |    00001464  A$fat2l$2 |    00001467  A$fat2l$2
     0000146A  A$fat2l$2 |    0000146B  A$fat2l$2 |    0000146E  A$fat2l$2
     0000146F  A$fat2l$2 |    00001470  A$fat2l$2 |    00001471  A$fat2l$2
     00001472  A$fat2l$2 |    00001473  A$fat2l$2 |    00001475  A$fat2l$2
     00001476  A$fat2l$2 |    00001479  A$fat2l$2 |    0000147C  A$fat2l$2
     0000147F  A$fat2l$2 |    00001482  A$fat2l$2 |    00001485  A$fat2l$2
     00001485  C$fat2l.c |    00001488  A$fat2l$2 |    00001489  A$fat2l$2
     0000148B  A$fat2l$2 |    0000148E  A$fat2l$2 |    00001491  A$fat2l$2
     00001493  A$fat2l$2 |    00001493  C$fat2l.c |    00001496  A$fat2l$2
     00001499  A$fat2l$2 |    0000149C  A$fat2l$2 |    0000149D  A$fat2l$2
     0000149E  A$fat2l$2 |    0000149F  A$fat2l$2 |    000014A0  A$fat2l$2
     000014A3  A$fat2l$2 |    000014A6  A$fat2l$2 |    000014A7  A$fat2l$2
     000014A7  C$fat2l.c |    000014A8  A$fat2l$2 |    000014A9  A$fat2l$2
     000014AB  A$fat2l$2 |    000014AD  A$fat2l$2 |    000014AF  A$fat2l$2
     000014B1  A$fat2l$2 |    000014B3  A$fat2l$2 |    000014B5  A$fat2l$2
     000014B5  C$fat2l.c |    000014B6  A$fat2l$2 |    000014B8  A$fat2l$2
     000014B9  A$fat2l$2 |    000014BC  A$fat2l$2 |    000014BD  A$fat2l$2
     000014BF  A$fat2l$2 |    000014C1  A$fat2l$2 |    000014C3  A$fat2l$2
     000014C4  A$fat2l$2 |    000014C6  A$fat2l$2 |    000014C9  A$fat2l$2
     000014CB  A$fat2l$2 |    000014CC  A$fat2l$2 |    000014CF  A$fat2l$2
     000014D1  A$fat2l$2 |    000014D2  A$fat2l$2 |    000014D3  A$fat2l$2
     000014D4  A$fat2l$2 |    000014D5  A$fat2l$2 |    000014D8  A$fat2l$2
     000014D8  C$fat2l.c |    000014DB  A$fat2l$2 |    000014DE  A$fat2l$2
     000014E0  A$fat2l$2 |    000014E0  C$fat2l.c |    000014E1  A$fat2l$2
     000014E2  A$fat2l$2 |    000014E5  A$fat2l$2 |    000014E6  A$fat2l$2
     000014E8  A$fat2l$2 |    000014E8  C$fat2l.c |    000014EB  A$fat2l$2
     000014ED  A$fat2l$2 |    000014EE  A$fat2l$2 |    000014EF  A$fat2l$2
     000014F0  A$fat2l$2 |    000014F1  A$fat2l$2 |    000014F2  A$fat2l$2
     000014F3  A$fat2l$2 |    000014F3  C$fat2l.c |    000014F6  A$fat2l$2
     000014F9  A$fat2l$2 |    000014FA  A$fat2l$2 |    000014FD  A$fat2l$2
     000014FE  A$fat2l$2 |    000014FE  C$fat2l.c |    00001501  A$fat2l$2
     00001504  A$fat2l$2 |    00001506  A$fat2l$2 |    00001508  A$fat2l$3
     0000150B  A$fat2l$3 |    0000150B  C$fat2l.c |    0000150E  A$fat2l$3
     0000150F  A$fat2l$3 |    00001511  A$fat2l$3 |    00001511  C$fat2l.c
     00001514  A$fat2l$3 |    00001517  A$fat2l$3 |    0000151A  A$fat2l$3
     0000151B  A$fat2l$3 |    0000151C  A$fat2l$3 |    0000151F  A$fat2l$3
     00001520  A$fat2l$3 |    00001521  A$fat2l$3 |    00001524  A$fat2l$3
     00001525  A$fat2l$3 |    00001526  A$fat2l$3 |    00001529  A$fat2l$3
     0000152A  A$fat2l$3 |    0000152B  A$fat2l$3 |    0000152E  A$fat2l$3
     00001530  A$fat2l$3 |    00001530  C$fat2l.c |    00001533  A$fat2l$3
     00001536  A$fat2l$3 |    00001539  A$fat2l$3 |    0000153A  A$fat2l$3
     0000153B  A$fat2l$3 |    0000153E  A$fat2l$3 |    0000153F  A$fat2l$3
     00001540  A$fat2l$3 |    00001543  A$fat2l$3 |    00001544  A$fat2l$3
     00001545  A$fat2l$3 |    00001548  A$fat2l$3 |    00001549  A$fat2l$3
     0000154A  A$fat2l$3 |    0000154D  A$fat2l$3 |    0000154D  C$fat2l.c
     00001550  A$fat2l$3 |    00001553  A$fat2l$3 |    00001555  A$fat2l$3
     00001557  A$fat2l$3 |    00001559  A$fat2l$3 |    0000155B  A$fat2l$3
     0000155D  A$fat2l$3 |    0000155F  A$fat2l$3 |    00001561  A$fat2l$3
     00001563  A$fat2l$3 |    00001563  C$fat2l.c |    00001566  A$fat2l$3
ASxxxx Linker V03.00 + NoICE + sdld,  page 20.
Hexadecimal  [32-Bits]

Area                       Addr        Size        Decimal Bytes (Attributes)
--------------------       ----        ----        ------- ----- ------------
_CODE                  00000000    000084DB =       34011. bytes (REL,CON)

        Value  Global            Value  Global            Value  Global    
        -----  ------            -----  ------            -----  ------    
     00001568  A$fat2l$3 |    00001569  A$fat2l$3 |    0000156B  A$fat2l$3
     0000156C  A$fat2l$3 |    0000156D  A$fat2l$3 |    0000156E  A$fat2l$3
     0000156F  A$fat2l$3 |    00001570  A$fat2l$3 |    00001573  A$fat2l$3
     00001576  A$fat2l$3 |    00001576  C$fat2l.c |    00001579  A$fat2l$3
     0000157C  A$fat2l$3 |    0000157D  A$fat2l$3 |    0000157E  A$fat2l$3
     00001581  A$fat2l$3 |    00001582  A$fat2l$3 |    00001583  A$fat2l$3
     00001586  A$fat2l$3 |    00001587  A$fat2l$3 |    00001588  A$fat2l$3
     0000158B  A$fat2l$3 |    0000158C  A$fat2l$3 |    0000158D  A$fat2l$3
     00001590  A$fat2l$3 |    00001593  A$fat2l$3 |    00001596  A$fat2l$3
     00001599  A$fat2l$3 |    00001599  C$fat2l.c |    0000159C  A$fat2l$3
     0000159F  A$fat2l$3 |    000015A2  A$fat2l$3 |    000015A5  A$fat2l$3
     000015A8  A$fat2l$3 |    000015AB  A$fat2l$3 |    000015AC  A$fat2l$3
     000015AD  A$fat2l$3 |    000015B0  A$fat2l$3 |    000015B1  A$fat2l$3
     000015B2  A$fat2l$3 |    000015B5  A$fat2l$3 |    000015B6  A$fat2l$3
     000015B7  A$fat2l$3 |    000015B8  A$fat2l$3 |    000015BB  A$fat2l$3
     000015BE  A$fat2l$3 |    000015BF  A$fat2l$3 |    000015C2  A$fat2l$3
     000015C5  A$fat2l$3 |    000015C6  A$fat2l$3 |    000015C7  A$fat2l$3
     000015CA  A$fat2l$3 |    000015CD  A$fat2l$3 |    000015CE  A$fat2l$3
     000015CF  A$fat2l$3 |    000015CF  C$fat2l.c |    000015D2  A$fat2l$3
     000015D3  A$fat2l$3 |    000015D4  A$fat2l$3 |    000015D5  A$fat2l$3
     000015D6  A$fat2l$3 |    000015D7  A$fat2l$3 |    000015D8  A$fat2l$3
     000015D9  A$fat2l$3 |    000015DC  A$fat2l$3 |    000015DF  A$fat2l$3
     000015E2  A$fat2l$3 |    000015E3  A$fat2l$3 |    000015E4  A$fat2l$3
     000015E6  A$fat2l$3 |    000015E9  A$fat2l$3 |    000015EB  A$fat2l$3
     000015EC  A$fat2l$3 |    000015EE  A$fat2l$3 |    000015F1  A$fat2l$3
     000015F2  A$fat2l$3 |    000015F2  C$fat2l.c |    000015F5  A$fat2l$3
     000015F8  A$fat2l$3 |    000015F9  A$fat2l$3 |    000015FC  A$fat2l$3
     000015FD  A$fat2l$3 |    000015FE  A$fat2l$3 |    000015FF  A$fat2l$3
     00001601  A$fat2l$3 |    00001603  A$fat2l$3 |    00001604  A$fat2l$3
     00001606  A$fat2l$3 |    00001607  A$fat2l$3 |    00001609  A$fat2l$3
     0000160A  A$fat2l$3 |    0000160C  A$fat2l$3 |    0000160C  C$fat2l.c
     0000160F  A$fat2l$3 |    00001612  A$fat2l$3 |    00001613  A$fat2l$3
     00001616  A$fat2l$3 |    00001619  A$fat2l$3 |    0000161A  A$fat2l$3
     0000161B  A$fat2l$3 |    0000161E  A$fat2l$3 |    00001620  A$fat2l$3
     00001620  C$fat2l.c |    00001623  A$fat2l$3 |    00001626  A$fat2l$3
     00001627  A$fat2l$3 |    00001628  A$fat2l$3 |    0000162B  A$fat2l$3
     0000162C  A$fat2l$3 |    0000162D  A$fat2l$3 |    00001630  A$fat2l$3
     00001631  A$fat2l$3 |    00001632  A$fat2l$3 |    00001633  A$fat2l$3
     00001636  A$fat2l$3 |    00001639  A$fat2l$3 |    0000163A  A$fat2l$3
     0000163D  A$fat2l$3 |    00001640  A$fat2l$3 |    00001641  A$fat2l$3
     00001642  A$fat2l$3 |    00001645  A$fat2l$3 |    00001648  A$fat2l$3
     00001649  A$fat2l$3 |    0000164A  A$fat2l$3 |    0000164A  C$fat2l.c
     0000164C  A$fat2l$3 |    0000164E  A$fat2l$3 |    00001650  A$fat2l$3
     00001650  C$fat2l.c |    00001650  XG$fatSet |    00001651  A$fat2l$3
     00001651  C$fat2l.c |    00001651  G$fatGetD |    00001651  _fatGetDe
     00001653  A$fat2l$3 |    00001657  A$fat2l$3 |    00001659  A$fat2l$3
     0000165C  A$fat2l$3 |    0000165D  A$fat2l$3 |    0000165E  A$fat2l$3
     0000165E  C$fat2l.c |    00001660  A$fat2l$3 |    00001661  A$fat2l$3
     00001662  A$fat2l$3 |    00001665  A$fat2l$3 |    00001668  A$fat2l$3
     00001669  A$fat2l$3 |    0000166C  A$fat2l$3 |    0000166D  A$fat2l$3
     0000166E  A$fat2l$3 |    00001671  A$fat2l$3 |    00001674  A$fat2l$3
ASxxxx Linker V03.00 + NoICE + sdld,  page 21.
Hexadecimal  [32-Bits]

Area                       Addr        Size        Decimal Bytes (Attributes)
--------------------       ----        ----        ------- ----- ------------
_CODE                  00000000    000084DB =       34011. bytes (REL,CON)

        Value  Global            Value  Global            Value  Global    
        -----  ------            -----  ------            -----  ------    
     00001675  A$fat2l$3 |    00001678  A$fat2l$3 |    00001679  A$fat2l$3
     0000167A  A$fat2l$3 |    0000167B  A$fat2l$3 |    0000167C  A$fat2l$3
     0000167D  A$fat2l$3 |    0000167F  A$fat2l$3 |    00001680  A$fat2l$3
     00001683  A$fat2l$3 |    00001686  A$fat2l$3 |    00001689  A$fat2l$3
     00001689  C$fat2l.c |    0000168C  A$fat2l$3 |    0000168D  A$fat2l$3
     0000168F  A$fat2l$3 |    0000168F  C$fat2l.c |    00001690  A$fat2l$3
     00001691  A$fat2l$3 |    00001694  A$fat2l$3 |    00001695  A$fat2l$3
     00001696  A$fat2l$3 |    00001699  A$fat2l$3 |    0000169A  A$fat2l$3
     0000169B  A$fat2l$3 |    0000169E  A$fat2l$3 |    0000169F  A$fat2l$3
     000016A0  A$fat2l$3 |    000016A3  A$fat2l$3 |    000016A4  A$fat2l$3
     000016A5  A$fat2l$3 |    000016A8  A$fat2l$3 |    000016AA  A$fat2l$3
     000016AA  C$fat2l.c |    000016AB  A$fat2l$3 |    000016AC  A$fat2l$3
     000016AF  A$fat2l$3 |    000016B0  A$fat2l$3 |    000016B1  A$fat2l$3
     000016B4  A$fat2l$3 |    000016B5  A$fat2l$3 |    000016B6  A$fat2l$3
     000016B9  A$fat2l$3 |    000016BA  A$fat2l$3 |    000016BB  A$fat2l$3
     000016BE  A$fat2l$3 |    000016BF  A$fat2l$3 |    000016C0  A$fat2l$3
     000016C3  A$fat2l$3 |    000016C3  C$fat2l.c |    000016C6  A$fat2l$3
     000016C9  A$fat2l$3 |    000016CB  A$fat2l$3 |    000016CD  A$fat2l$3
     000016CF  A$fat2l$3 |    000016D1  A$fat2l$3 |    000016D3  A$fat2l$3
     000016D5  A$fat2l$3 |    000016D7  A$fat2l$3 |    000016D9  A$fat2l$3
     000016D9  C$fat2l.c |    000016DC  A$fat2l$3 |    000016DE  A$fat2l$3
     000016DF  A$fat2l$3 |    000016E1  A$fat2l$3 |    000016E2  A$fat2l$3
     000016E3  A$fat2l$3 |    000016E4  A$fat2l$3 |    000016E5  A$fat2l$3
     000016E6  A$fat2l$3 |    000016E9  A$fat2l$3 |    000016EC  A$fat2l$3
     000016EC  C$fat2l.c |    000016EF  A$fat2l$3 |    000016F2  A$fat2l$3
     000016F3  A$fat2l$3 |    000016F4  A$fat2l$3 |    000016F7  A$fat2l$3
     000016F8  A$fat2l$3 |    000016F9  A$fat2l$3 |    000016FC  A$fat2l$3
     000016FD  A$fat2l$3 |    000016FE  A$fat2l$3 |    00001701  A$fat2l$3
     00001702  A$fat2l$3 |    00001703  A$fat2l$3 |    00001706  A$fat2l$3
     00001709  A$fat2l$3 |    0000170C  A$fat2l$3 |    0000170F  A$fat2l$3
     0000170F  C$fat2l.c |    00001710  A$fat2l$3 |    00001711  A$fat2l$3
     00001712  A$fat2l$3 |    00001713  A$fat2l$3 |    00001714  A$fat2l$3
     00001717  A$fat2l$3 |    00001718  A$fat2l$3 |    00001719  A$fat2l$3
     0000171A  A$fat2l$3 |    0000171B  A$fat2l$3 |    0000171D  A$fat2l$3
     0000171E  A$fat2l$3 |    0000171F  A$fat2l$3 |    00001721  A$fat2l$3
     00001722  A$fat2l$3 |    00001723  A$fat2l$3 |    00001724  A$fat2l$3
     00001727  A$fat2l$3 |    0000172A  A$fat2l$3 |    0000172B  A$fat2l$3
     0000172E  A$fat2l$3 |    00001731  A$fat2l$3 |    00001732  A$fat2l$3
     00001733  A$fat2l$3 |    00001736  A$fat2l$3 |    00001739  A$fat2l$3
     0000173A  A$fat2l$3 |    0000173B  A$fat2l$3 |    0000173C  A$fat2l$3
     0000173C  C$fat2l.c |    0000173F  A$fat2l$3 |    00001742  A$fat2l$3
     00001743  A$fat2l$3 |    00001746  A$fat2l$3 |    00001749  A$fat2l$3
     0000174A  A$fat2l$3 |    0000174D  A$fat2l$3 |    0000174F  A$fat2l$3
     0000174F  C$fat2l.c |    00001752  A$fat2l$3 |    00001754  A$fat2l$3
     00001755  A$fat2l$3 |    00001758  A$fat2l$3 |    0000175A  A$fat2l$3
     0000175B  A$fat2l$3 |    0000175C  A$fat2l$3 |    0000175D  A$fat2l$3
     0000175D  C$fat2l.c |    0000175F  A$fat2l$3 |    00001761  A$fat2l$3
     00001763  A$fat2l$3 |    00001763  C$fat2l.c |    00001763  XG$fatGet
     00001764  A$fat2l$3 |    00001764  C$fat2l.c |    00001764  G$fatCopy
     00001764  _fatCopyR |    00001766  A$fat2l$3 |    0000176A  A$fat2l$3
     0000176C  A$fat2l$3 |    0000176D  A$fat2l$3 |    0000176D  C$fat2l.c
ASxxxx Linker V03.00 + NoICE + sdld,  page 22.
Hexadecimal  [32-Bits]

Area                       Addr        Size        Decimal Bytes (Attributes)
--------------------       ----        ----        ------- ----- ------------
_CODE                  00000000    000084DB =       34011. bytes (REL,CON)

        Value  Global            Value  Global            Value  Global    
        -----  ------            -----  ------            -----  ------    
     0000176F  A$fat2l$3 |    00001772  A$fat2l$3 |    00001774  A$fat2l$3
     00001774  C$fat2l.c |    00001776  A$fat2l$3 |    00001779  A$fat2l$3
     00001779  C$fat2l.c |    0000177A  A$fat2l$3 |    0000177B  A$fat2l$3
     0000177C  A$fat2l$3 |    0000177F  A$fat2l$3 |    00001782  A$fat2l$3
     00001783  A$fat2l$3 |    00001784  A$fat2l$3 |    00001785  A$fat2l$3
     00001786  A$fat2l$3 |    00001789  A$fat2l$3 |    0000178C  A$fat2l$3
     0000178D  A$fat2l$3 |    00001790  A$fat2l$3 |    00001791  A$fat2l$3
     00001792  A$fat2l$3 |    00001793  A$fat2l$3 |    00001794  A$fat2l$3
     00001795  A$fat2l$3 |    00001797  A$fat2l$3 |    00001798  A$fat2l$3
     0000179A  A$fat2l$3 |    0000179A  C$fat2l.c |    0000179D  A$fat2l$3
     0000179F  A$fat2l$3 |    000017A0  A$fat2l$3 |    000017A3  A$fat2l$3
     000017A6  A$fat2l$3 |    000017A9  A$fat2l$3 |    000017AA  A$fat2l$3
     000017AD  A$fat2l$3 |    000017AE  A$fat2l$3 |    000017AF  A$fat2l$3
     000017B2  A$fat2l$3 |    000017B5  A$fat2l$3 |    000017B6  A$fat2l$3
     000017B7  A$fat2l$3 |    000017B7  C$fat2l.c |    000017BA  A$fat2l$3
     000017BB  A$fat2l$3 |    000017BE  A$fat2l$3 |    000017BF  A$fat2l$3
     000017BF  C$fat2l.c |    000017C2  A$fat2l$3 |    000017C3  A$fat2l$3
     000017C4  A$fat2l$3 |    000017C7  A$fat2l$3 |    000017C8  A$fat2l$3
     000017C8  C$fat2l.c |    000017CB  A$fat2l$3 |    000017CE  A$fat2l$3
     000017D2  A$fat2l$3 |    000017D2  C$fat2l.c |    000017D3  A$fat2l$3
     000017D4  A$fat2l$3 |    000017D5  A$fat2l$3 |    000017D6  A$fat2l$3
     000017D7  A$fat2l$3 |    000017D8  A$fat2l$3 |    000017D9  A$fat2l$3
     000017DC  A$fat2l$3 |    000017DD  A$fat2l$3 |    000017DE  A$fat2l$3
     000017DF  A$fat2l$3 |    000017E2  A$fat2l$3 |    000017E3  A$fat2l$3
     000017E4  A$fat2l$3 |    000017E7  A$fat2l$3 |    000017E8  A$fat2l$3
     000017E9  A$fat2l$3 |    000017EA  A$fat2l$3 |    000017EA  C$fat2l.c
     000017ED  A$fat2l$3 |    000017F0  A$fat2l$3 |    000017F2  A$fat2l$3
     000017F4  A$fat2l$3 |    000017F4  C$fat2l.c |    000017F6  A$fat2l$3
     000017F7  A$fat2l$3 |    000017F9  A$fat2l$3 |    000017F9  C$fat2l.c
     000017F9  XG$fatCop |    000017FA  Ffat2l$__ |    00001838  Ffat2l$__
     0000185C  A$fat2l$3 |    0000185C  C$fat2l.c |    0000185C  G$fatGetC
     0000185C  _fatGetCo |    0000185E  A$fat2l$3 |    00001862  A$fat2l$3
     00001864  A$fat2l$3 |    00001867  A$fat2l$3 |    00001868  A$fat2l$3
     00001869  A$fat2l$3 |    00001869  C$fat2l.c |    0000186C  A$fat2l$3
     0000186F  A$fat2l$3 |    00001870  A$fat2l$3 |    00001873  A$fat2l$3
     00001874  A$fat2l$3 |    00001875  A$fat2l$3 |    00001878  A$fat2l$3
     00001879  A$fat2l$3 |    0000187A  A$fat2l$3 |    0000187D  A$fat2l$3
     0000187E  A$fat2l$3 |    0000187F  A$fat2l$3 |    00001882  A$fat2l$3
     00001883  A$fat2l$3 |    00001884  A$fat2l$3 |    00001887  A$fat2l$3
     00001887  C$fat2l.c |    0000188A  A$fat2l$3 |    0000188D  A$fat2l$3
     00001890  A$fat2l$3 |    00001893  A$fat2l$3 |    00001893  C$fat2l.c
     00001896  A$fat2l$3 |    00001899  A$fat2l$3 |    0000189C  A$fat2l$3
     0000189F  A$fat2l$3 |    000018A2  A$fat2l$3 |    000018A5  A$fat2l$3
     000018A8  A$fat2l$3 |    000018A8  C$fat2l.c |    000018AB  A$fat2l$3
     000018AE  A$fat2l$3 |    000018AF  A$fat2l$3 |    000018B0  A$fat2l$3
     000018B1  A$fat2l$3 |    000018B4  A$fat2l$3 |    000018B5  A$fat2l$3
     000018B6  A$fat2l$3 |    000018B9  A$fat2l$3 |    000018BA  A$fat2l$3
     000018BB  A$fat2l$3 |    000018BC  A$fat2l$3 |    000018BF  A$fat2l$3
     000018C2  A$fat2l$3 |    000018C3  A$fat2l$3 |    000018C6  A$fat2l$3
     000018C9  A$fat2l$3 |    000018CA  A$fat2l$3 |    000018CB  A$fat2l$3
     000018CE  A$fat2l$3 |    000018CF  A$fat2l$3 |    000018D0  A$fat2l$3
ASxxxx Linker V03.00 + NoICE + sdld,  page 23.
Hexadecimal  [32-Bits]

Area                       Addr        Size        Decimal Bytes (Attributes)
--------------------       ----        ----        ------- ----- ------------
_CODE                  00000000    000084DB =       34011. bytes (REL,CON)

        Value  Global            Value  Global            Value  Global    
        -----  ------            -----  ------            -----  ------    
     000018D1  A$fat2l$3 |    000018D2  A$fat2l$3 |    000018D3  A$fat2l$3
     000018D4  A$fat2l$3 |    000018D6  A$fat2l$3 |    000018D7  A$fat2l$3
     000018DA  A$fat2l$3 |    000018DA  C$fat2l.c |    000018DB  A$fat2l$3
     000018DC  A$fat2l$3 |    000018DD  A$fat2l$3 |    000018E0  A$fat2l$3
     000018E1  A$fat2l$3 |    000018E4  A$fat2l$3 |    000018E5  A$fat2l$3
     000018E6  A$fat2l$3 |    000018E9  A$fat2l$3 |    000018EB  A$fat2l$3
     000018ED  A$fat2l$3 |    000018EE  A$fat2l$3 |    000018F1  A$fat2l$3
     000018F5  A$fat2l$3 |    000018F7  A$fat2l$3 |    000018FA  A$fat2l$3
     000018FC  A$fat2l$3 |    000018FF  A$fat2l$3 |    00001902  A$fat2l$3
     00001903  A$fat2l$3 |    00001904  A$fat2l$3 |    00001905  A$fat2l$3
     00001908  A$fat2l$3 |    0000190B  A$fat2l$3 |    0000190C  A$fat2l$3
     0000190D  A$fat2l$3 |    0000190D  C$fat2l.c |    00001910  A$fat2l$3
     00001912  A$fat2l$3 |    00001915  A$fat2l$3 |    00001917  A$fat2l$3
     0000191A  A$fat2l$3 |    0000191C  A$fat2l$3 |    0000191F  A$fat2l$3
     0000191F  C$fat2l.c |    00001922  A$fat2l$3 |    00001925  A$fat2l$3
     00001928  A$fat2l$3 |    0000192A  A$fat2l$3 |    0000192D  A$fat2l$3
     0000192D  C$fat2l.c |    00001931  A$fat2l$3 |    00001933  A$fat2l$3
     00001937  A$fat2l$3 |    0000193B  A$fat2l$3 |    0000193D  A$fat2l$3
     00001940  A$fat2l$3 |    00001943  A$fat2l$3 |    00001946  A$fat2l$3
     00001949  A$fat2l$3 |    0000194C  A$fat2l$3 |    0000194F  A$fat2l$3
     00001952  A$fat2l$3 |    00001955  A$fat2l$3 |    00001958  A$fat2l$3
     0000195B  A$fat2l$3 |    0000195E  A$fat2l$3 |    0000195E  C$fat2l.c
     00001960  A$fat2l$3 |    00001962  A$fat2l$3 |    00001964  A$fat2l$3
     00001964  C$fat2l.c |    00001964  XG$fatGet |    00001965  A$fat2l$3
     00001965  C$fat2l.c |    00001965  G$fatPutC |    00001965  _fatPutCo
     00001967  A$fat2l$3 |    0000196B  A$fat2l$3 |    0000196D  A$fat2l$3
     00001970  A$fat2l$3 |    00001971  A$fat2l$3 |    00001972  A$fat2l$3
     00001972  C$fat2l.c |    00001975  A$fat2l$3 |    00001978  A$fat2l$3
     00001979  A$fat2l$3 |    0000197C  A$fat2l$3 |    0000197D  A$fat2l$3
     0000197E  A$fat2l$3 |    00001981  A$fat2l$3 |    00001982  A$fat2l$3
     00001983  A$fat2l$3 |    00001986  A$fat2l$3 |    00001987  A$fat2l$3
     00001988  A$fat2l$3 |    0000198B  A$fat2l$3 |    0000198C  A$fat2l$3
     0000198D  A$fat2l$3 |    00001990  A$fat2l$3 |    00001990  C$fat2l.c
     00001993  A$fat2l$3 |    00001996  A$fat2l$3 |    00001999  A$fat2l$3
     0000199C  A$fat2l$3 |    0000199C  C$fat2l.c |    0000199F  A$fat2l$3
     000019A2  A$fat2l$3 |    000019A5  A$fat2l$3 |    000019A8  A$fat2l$3
     000019AB  A$fat2l$3 |    000019AE  A$fat2l$3 |    000019B1  A$fat2l$3
     000019B1  C$fat2l.c |    000019B4  A$fat2l$3 |    000019B7  A$fat2l$3
     000019B8  A$fat2l$3 |    000019B9  A$fat2l$3 |    000019BB  A$fat2l$3
     000019BC  A$fat2l$3 |    000019BD  A$fat2l$3 |    000019BE  A$fat2l$3
     000019C1  A$fat2l$3 |    000019C3  A$fat2l$3 |    000019C3  C$fat2l.c
     000019C6  A$fat2l$3 |    000019C9  A$fat2l$3 |    000019CA  A$fat2l$3
     000019CB  A$fat2l$3 |    000019CC  A$fat2l$3 |    000019CD  A$fat2l$3
     000019CE  A$fat2l$3 |    000019CF  A$fat2l$3 |    000019D2  A$fat2l$3
     000019D4  A$fat2l$3 |    000019D6  A$fat2l$3 |    000019D7  A$fat2l$3
     000019DA  A$fat2l$3 |    000019DE  A$fat2l$3 |    000019E0  A$fat2l$3
     000019E3  A$fat2l$3 |    000019E5  A$fat2l$3 |    000019E8  A$fat2l$3
     000019EB  A$fat2l$3 |    000019EC  A$fat2l$3 |    000019ED  A$fat2l$3
     000019EE  A$fat2l$3 |    000019F1  A$fat2l$3 |    000019F4  A$fat2l$3
     000019F5  A$fat2l$3 |    000019F6  A$fat2l$3 |    000019F6  C$fat2l.c
     000019F9  A$fat2l$3 |    000019FC  A$fat2l$3 |    000019FD  A$fat2l$3
ASxxxx Linker V03.00 + NoICE + sdld,  page 24.
Hexadecimal  [32-Bits]

Area                       Addr        Size        Decimal Bytes (Attributes)
--------------------       ----        ----        ------- ----- ------------
_CODE                  00000000    000084DB =       34011. bytes (REL,CON)

        Value  Global            Value  Global            Value  Global    
        -----  ------            -----  ------            -----  ------    
     000019FE  A$fat2l$3 |    000019FF  A$fat2l$3 |    00001A02  A$fat2l$3
     00001A03  A$fat2l$3 |    00001A04  A$fat2l$3 |    00001A07  A$fat2l$3
     00001A08  A$fat2l$3 |    00001A09  A$fat2l$3 |    00001A0A  A$fat2l$3
     00001A0D  A$fat2l$3 |    00001A10  A$fat2l$3 |    00001A11  A$fat2l$3
     00001A14  A$fat2l$3 |    00001A17  A$fat2l$3 |    00001A18  A$fat2l$3
     00001A19  A$fat2l$3 |    00001A1C  A$fat2l$3 |    00001A1D  A$fat2l$3
     00001A1E  A$fat2l$3 |    00001A1F  A$fat2l$3 |    00001A20  A$fat2l$3
     00001A21  A$fat2l$3 |    00001A22  A$fat2l$3 |    00001A24  A$fat2l$3
     00001A25  A$fat2l$3 |    00001A27  A$fat2l$3 |    00001A27  C$fat2l.c
     00001A2A  A$fat2l$3 |    00001A2C  A$fat2l$3 |    00001A2F  A$fat2l$3
     00001A31  A$fat2l$3 |    00001A34  A$fat2l$3 |    00001A36  A$fat2l$3
     00001A39  A$fat2l$3 |    00001A39  C$fat2l.c |    00001A3C  A$fat2l$3
     00001A3F  A$fat2l$3 |    00001A42  A$fat2l$3 |    00001A44  A$fat2l$3
     00001A47  A$fat2l$3 |    00001A47  C$fat2l.c |    00001A4B  A$fat2l$3
     00001A4D  A$fat2l$3 |    00001A51  A$fat2l$3 |    00001A55  A$fat2l$3
     00001A57  A$fat2l$3 |    00001A5A  A$fat2l$3 |    00001A5D  A$fat2l$3
     00001A60  A$fat2l$3 |    00001A63  A$fat2l$3 |    00001A66  A$fat2l$3
     00001A69  A$fat2l$3 |    00001A6C  A$fat2l$3 |    00001A6F  A$fat2l$3
     00001A72  A$fat2l$3 |    00001A75  A$fat2l$3 |    00001A78  A$fat2l$3
     00001A78  C$fat2l.c |    00001A7A  A$fat2l$3 |    00001A7C  A$fat2l$3
     00001A7E  A$fat2l$3 |    00001A7E  C$fat2l.c |    00001A7E  XG$fatPut
     00001A7F  A$fat2l$3 |    00001A7F  C$fat2l.c |    00001A7F  G$fatGetM
     00001A7F  _fatGetMa |    00001A81  A$fat2l$3 |    00001A85  A$fat2l$3
     00001A87  A$fat2l$3 |    00001A87  C$fat2l.c |    00001A8A  A$fat2l$3
     00001A8D  A$fat2l$3 |    00001A8F  A$fat2l$3 |    00001A92  A$fat2l$3
     00001A95  A$fat2l$3 |    00001A96  A$fat2l$3 |    00001A99  A$fat2l$3
     00001A9A  A$fat2l$3 |    00001A9D  A$fat2l$3 |    00001A9E  A$fat2l$3
     00001AA1  A$fat2l$3 |    00001AA2  A$fat2l$3 |    00001AA3  A$fat2l$3
     00001AA4  A$fat2l$3 |    00001AA5  A$fat2l$3 |    00001AA6  A$fat2l$3
     00001AA7  A$fat2l$3 |    00001AA8  A$fat2l$3 |    00001AA9  A$fat2l$3
     00001AAA  A$fat2l$3 |    00001AAA  C$fat2l.c |    00001AAD  A$fat2l$3
     00001AB0  A$fat2l$3 |    00001AB2  A$fat2l$3 |    00001AB5  A$fat2l$3
     00001AB8  A$fat2l$3 |    00001AB9  A$fat2l$3 |    00001ABC  A$fat2l$3
     00001ABD  A$fat2l$3 |    00001AC0  A$fat2l$3 |    00001AC1  A$fat2l$3
     00001AC4  A$fat2l$3 |    00001AC5  A$fat2l$3 |    00001AC6  A$fat2l$3
     00001AC7  A$fat2l$3 |    00001AC8  A$fat2l$3 |    00001AC9  A$fat2l$3
     00001ACA  A$fat2l$3 |    00001ACB  A$fat2l$3 |    00001ACC  A$fat2l$3
     00001ACD  A$fat2l$3 |    00001ACF  A$fat2l$3 |    00001ACF  C$fat2l.c
     00001ACF  XG$fatGet |    00001AD0  A$fdc$103 |    00001AD0  C$fdc.c$4
     00001AD0  G$fdcMoun |    00001AD0  _fdcMount |    00001AD2  A$fdc$104
     00001AD6  A$fdc$105 |    00001AD8  A$fdc$106 |    00001ADB  A$fdc$107
     00001ADC  A$fdc$108 |    00001ADD  A$fdc$112 |    00001ADD  C$fdc.c$5
     00001ADF  A$fdc$113 |    00001AE2  A$fdc$117 |    00001AE2  C$fdc.c$5
     00001AE5  A$fdc$121 |    00001AE5  C$fdc.c$5 |    00001AE8  A$fdc$122
     00001AE9  A$fdc$123 |    00001AEA  A$fdc$124 |    00001AED  A$fdc$125
     00001AEE  A$fdc$126 |    00001AEF  A$fdc$133 |    00001AEF  C$fdc.c$6
     00001AEF  C$fdc.c$6 |    00001AF0  A$fdc$134 |    00001AF3  A$fdc$135
     00001AF4  A$fdc$136 |    00001AF7  A$fdc$137 |    00001AF9  A$fdc$138
     00001AFA  A$fdc$139 |    00001AFB  A$fdc$140 |    00001AFD  A$fdc$144
     00001AFD  C$fdc.c$6 |    00001B00  A$fdc$145 |    00001B01  A$fdc$146
     00001B02  A$fdc$147 |    00001B03  A$fdc$148 |    00001B06  A$fdc$149
ASxxxx Linker V03.00 + NoICE + sdld,  page 25.
Hexadecimal  [32-Bits]

Area                       Addr        Size        Decimal Bytes (Attributes)
--------------------       ----        ----        ------- ----- ------------
_CODE                  00000000    000084DB =       34011. bytes (REL,CON)

        Value  Global            Value  Global            Value  Global    
        -----  ------            -----  ------            -----  ------    
     00001B07  A$fdc$150 |    00001B0A  A$fdc$151 |    00001B0B  A$fdc$152
     00001B0C  A$fdc$153 |    00001B0D  A$fdc$157 |    00001B0D  C$fdc.c$6
     00001B10  A$fdc$158 |    00001B13  A$fdc$159 |    00001B15  A$fdc$160
     00001B18  A$fdc$161 |    00001B19  A$fdc$162 |    00001B1C  A$fdc$163
     00001B1D  A$fdc$164 |    00001B1F  A$fdc$168 |    00001B1F  C$fdc.c$7
     00001B22  A$fdc$169 |    00001B23  A$fdc$170 |    00001B26  A$fdc$171
     00001B27  A$fdc$175 |    00001B27  C$fdc.c$7 |    00001B2A  A$fdc$180
     00001B2A  C$fdc.c$7 |    00001B2D  A$fdc$181 |    00001B2F  A$fdc$182
     00001B30  A$fdc$183 |    00001B31  A$fdc$184 |    00001B32  A$fdc$185
     00001B33  A$fdc$186 |    00001B34  A$fdc$187 |    00001B35  A$fdc$188
     00001B36  A$fdc$189 |    00001B37  A$fdc$190 |    00001B38  A$fdc$191
     00001B39  A$fdc$192 |    00001B3A  A$fdc$193 |    00001B3B  A$fdc$194
     00001B3C  A$fdc$195 |    00001B3F  A$fdc$196 |    00001B40  A$fdc$197
     00001B41  A$fdc$198 |    00001B42  A$fdc$202 |    00001B42  C$fdc.c$1
     00001B45  A$fdc$203 |    00001B46  A$fdc$204 |    00001B49  A$fdc$205
     00001B4C  A$fdc$209 |    00001B4C  C$fdc.c$1 |    00001B4F  A$fdc$210
     00001B50  A$fdc$211 |    00001B53  A$fdc$212 |    00001B56  A$fdc$216
     00001B56  C$fdc.c$1 |    00001B59  A$fdc$217 |    00001B5A  A$fdc$218
     00001B5D  A$fdc$219 |    00001B60  A$fdc$223 |    00001B60  C$fdc.c$7
     00001B61  A$fdc$224 |    00001B62  A$fdc$225 |    00001B65  A$fdc$229
     00001B65  C$fdc.c$8 |    00001B68  A$fdc$230 |    00001B6B  A$fdc$234
     00001B6B  C$fdc.c$8 |    00001B6E  A$fdc$238 |    00001B6E  C$fdc.c$8
     00001B71  A$fdc$239 |    00001B72  A$fdc$240 |    00001B74  A$fdc$241
     00001B77  A$fdc$242 |    00001B79  A$fdc$243 |    00001B7B  A$fdc$245
     00001B7E  A$fdc$246 |    00001B7F  A$fdc$247 |    00001B81  A$fdc$248
     00001B84  A$fdc$249 |    00001B86  A$fdc$250 |    00001B88  A$fdc$252
     00001B8B  A$fdc$253 |    00001B8D  A$fdc$254 |    00001B8F  A$fdc$255
     00001B92  A$fdc$256 |    00001B94  A$fdc$257 |    00001B96  A$fdc$259
     00001B99  A$fdc$260 |    00001B9B  A$fdc$261 |    00001B9D  A$fdc$262
     00001BA0  A$fdc$263 |    00001BA2  A$fdc$264 |    00001BA4  A$fdc$265
     00001BA6  A$fdc$273 |    00001BA6  C$fdc.c$8 |    00001BA6  C$fdc.c$9
     00001BAA  A$fdc$277 |    00001BAA  C$fdc.c$9 |    00001BAC  A$fdc$281
     00001BAC  C$fdc.c$9 |    00001BAE  A$fdc$289 |    00001BAE  C$fdc.c$9
     00001BAE  C$fdc.c$9 |    00001BB2  A$fdc$293 |    00001BB2  C$fdc.c$9
     00001BB4  A$fdc$297 |    00001BB4  C$fdc.c$9 |    00001BB6  A$fdc$305
     00001BB6  C$fdc.c$9 |    00001BB6  C$fdc.c$9 |    00001BBA  A$fdc$309
     00001BBA  C$fdc.c$9 |    00001BBC  A$fdc$313 |    00001BBC  C$fdc.c$1
     00001BBE  A$fdc$321 |    00001BBE  C$fdc.c$1 |    00001BBE  C$fdc.c$1
     00001BC2  A$fdc$325 |    00001BC2  C$fdc.c$1 |    00001BC4  A$fdc$333
     00001BC4  C$fdc.c$1 |    00001BC4  C$fdc.c$1 |    00001BC7  A$fdc$334
     00001BCA  A$fdc$335 |    00001BCC  A$fdc$339 |    00001BCC  C$fdc.c$1
     00001BCF  A$fdc$340 |    00001BD2  A$fdc$341 |    00001BD4  A$fdc$345
     00001BD4  C$fdc.c$1 |    00001BD7  A$fdc$346 |    00001BDA  A$fdc$347
     00001BDC  A$fdc$351 |    00001BDC  C$fdc.c$1 |    00001BDF  A$fdc$352
     00001BE0  A$fdc$353 |    00001BE2  A$fdc$357 |    00001BE2  C$fdc.c$1
     00001BE5  A$fdc$358 |    00001BE6  A$fdc$359 |    00001BE9  A$fdc$360
     00001BEA  A$fdc$364 |    00001BEA  C$fdc.c$1 |    00001BED  A$fdc$365
     00001BEE  A$fdc$366 |    00001BEF  A$fdc$370 |    00001BEF  C$fdc.c$1
     00001BF2  A$fdc$371 |    00001BF3  A$fdc$372 |    00001BF5  A$fdc$373
     00001BF6  A$fdc$374 |    00001BF8  A$fdc$375 |    00001BF9  A$fdc$376
     00001BFA  A$fdc$377 |    00001BFB  A$fdc$378 |    00001BFC  A$fdc$379
ASxxxx Linker V03.00 + NoICE + sdld,  page 26.
Hexadecimal  [32-Bits]

Area                       Addr        Size        Decimal Bytes (Attributes)
--------------------       ----        ----        ------- ----- ------------
_CODE                  00000000    000084DB =       34011. bytes (REL,CON)

        Value  Global            Value  Global            Value  Global    
        -----  ------            -----  ------            -----  ------    
     00001BFD  A$fdc$383 |    00001BFD  C$fdc.c$1 |    00001C00  A$fdc$384
     00001C01  A$fdc$385 |    00001C04  A$fdc$386 |    00001C07  A$fdc$387
     00001C08  A$fdc$388 |    00001C0B  A$fdc$389 |    00001C0E  A$fdc$390
     00001C11  A$fdc$391 |    00001C12  A$fdc$393 |    00001C13  A$fdc$394
     00001C15  A$fdc$395 |    00001C18  A$fdc$396 |    00001C1A  A$fdc$398
     00001C1B  A$fdc$399 |    00001C1D  A$fdc$400 |    00001C20  A$fdc$405
     00001C20  C$fdc.c$1 |    00001C23  A$fdc$406 |    00001C26  A$fdc$410
     00001C26  C$fdc.c$1 |    00001C28  A$fdc$415 |    00001C28  C$fdc.c$1
     00001C29  A$fdc$416 |    00001C2A  A$fdc$417 |    00001C2C  A$fdc$418
     00001C2E  A$fdc$419 |    00001C2F  A$fdc$424 |    00001C2F  C$fdc.c$1
     00001C30  A$fdc$425 |    00001C31  A$fdc$426 |    00001C32  A$fdc$427
     00001C33  A$fdc$431 |    00001C33  C$fdc.c$1 |    00001C34  A$fdc$432
     00001C36  A$fdc$436 |    00001C36  C$fdc.c$1 |    00001C39  A$fdc$437
     00001C3B  A$fdc$438 |    00001C3C  A$fdc$439 |    00001C3F  A$fdc$440
     00001C41  A$fdc$441 |    00001C42  A$fdc$442 |    00001C43  A$fdc$443
     00001C44  A$fdc$447 |    00001C44  C$fdc.c$1 |    00001C47  A$fdc$448
     00001C49  A$fdc$449 |    00001C4A  A$fdc$450 |    00001C4D  A$fdc$451
     00001C50  A$fdc$452 |    00001C51  A$fdc$453 |    00001C52  A$fdc$454
     00001C55  A$fdc$455 |    00001C58  A$fdc$456 |    00001C59  A$fdc$457
     00001C5A  A$fdc$461 |    00001C5A  C$fdc.c$1 |    00001C5D  A$fdc$462
     00001C5E  A$fdc$463 |    00001C61  A$fdc$464 |    00001C62  A$fdc$468
     00001C62  C$fdc.c$1 |    00001C64  A$fdc$473 |    00001C64  C$fdc.c$1
     00001C67  A$fdc$474 |    00001C68  A$fdc$475 |    00001C6B  A$fdc$476
     00001C6C  A$fdc$480 |    00001C6C  C$fdc.c$1 |    00001C6D  A$fdc$481
     00001C6E  A$fdc$482 |    00001C6F  A$fdc$483 |    00001C70  A$fdc$484
     00001C72  A$fdc$488 |    00001C72  C$fdc.c$1 |    00001C75  A$fdc$489
     00001C78  A$fdc$490 |    00001C7A  A$fdc$494 |    00001C7A  C$fdc.c$1
     00001C7D  A$fdc$495 |    00001C80  A$fdc$496 |    00001C82  A$fdc$500
     00001C82  C$fdc.c$1 |    00001C85  A$fdc$501 |    00001C88  A$fdc$502
     00001C89  A$fdc$503 |    00001C8C  A$fdc$504 |    00001C8D  A$fdc$505
     00001C8E  A$fdc$506 |    00001C91  A$fdc$507 |    00001C92  A$fdc$508
     00001C93  A$fdc$509 |    00001C94  A$fdc$510 |    00001C95  A$fdc$511
     00001C97  A$fdc$515 |    00001C97  C$fdc.c$1 |    00001C9A  A$fdc$516
     00001C9D  A$fdc$517 |    00001C9F  A$fdc$521 |    00001C9F  C$fdc.c$1
     00001CA2  A$fdc$522 |    00001CA3  A$fdc$523 |    00001CA6  A$fdc$524
     00001CA7  A$fdc$525 |    00001CA9  A$fdc$530 |    00001CA9  C$fdc.c$1
     00001CAC  A$fdc$531 |    00001CAD  A$fdc$532 |    00001CB0  A$fdc$533
     00001CB1  A$fdc$538 |    00001CB3  A$fdc$539 |    00001CB5  A$fdc$544
     00001CB5  C$fdc.c$1 |    00001CB5  XG$fdcMou |    00001CB6  G$_FDC_ER
     00001CB6  __FDC_ERR |    00001CCE  G$_FDC_ER |    00001CCE  __FDC_ERR
     00001CE2  Ffdc$__st |    00001D07  Ffdc$__st |    00001D32  Ffdc$__st
     00001D42  Ffdc$__st |    00001D72  Ffdc$__st |    00001D88  Ffdc$__st
     00001D9F  Ffdc$__st |    00001DB4  Ffdc$__st |    00001DC1  A$fdc$594
     00001DC1  C$fdc.c$1 |    00001DC1  G$fdcUnmo |    00001DC1  _fdcUnmou
     00001DC3  A$fdc$595 |    00001DC7  A$fdc$596 |    00001DC9  A$fdc$597
     00001DCA  A$fdc$598 |    00001DCB  A$fdc$602 |    00001DCB  C$fdc.c$1
     00001DCD  A$fdc$603 |    00001DD0  A$fdc$607 |    00001DD0  C$fdc.c$1
     00001DD3  A$fdc$611 |    00001DD3  C$fdc.c$1 |    00001DD6  A$fdc$612
     00001DD7  A$fdc$613 |    00001DD8  A$fdc$614 |    00001DDB  A$fdc$615
     00001DDC  A$fdc$616 |    00001DDD  A$fdc$617 |    00001DDE  A$fdc$621
     00001DDE  C$fdc.c$1 |    00001DE1  A$fdc$625 |    00001DE1  C$fdc.c$1
ASxxxx Linker V03.00 + NoICE + sdld,  page 27.
Hexadecimal  [32-Bits]

Area                       Addr        Size        Decimal Bytes (Attributes)
--------------------       ----        ----        ------- ----- ------------
_CODE                  00000000    000084DB =       34011. bytes (REL,CON)

        Value  Global            Value  Global            Value  Global    
        -----  ------            -----  ------            -----  ------    
     00001DE4  A$fdc$626 |    00001DE7  A$fdc$627 |    00001DE9  A$fdc$628
     00001DEA  A$fdc$629 |    00001DEB  A$fdc$630 |    00001DEC  A$fdc$631
     00001DED  A$fdc$632 |    00001DEE  A$fdc$633 |    00001DEF  A$fdc$634
     00001DF0  A$fdc$635 |    00001DF1  A$fdc$636 |    00001DF2  A$fdc$637
     00001DF3  A$fdc$638 |    00001DF4  A$fdc$639 |    00001DF5  A$fdc$640
     00001DF6  A$fdc$641 |    00001DF7  A$fdc$642 |    00001DFA  A$fdc$643
     00001DFD  A$fdc$647 |    00001DFD  C$stdio_u |    00001E00  A$fdc$648
     00001E01  A$fdc$649 |    00001E04  A$fdc$650 |    00001E05  A$fdc$654
     00001E05  C$fdc.c$1 |    00001E06  A$fdc$655 |    00001E07  A$fdc$656
     00001E08  A$fdc$657 |    00001E09  A$fdc$658 |    00001E0C  A$fdc$659
     00001E0D  A$fdc$660 |    00001E0E  A$fdc$661 |    00001E0F  A$fdc$662
     00001E12  A$fdc$666 |    00001E12  C$fdc.c$1 |    00001E15  A$fdc$667
     00001E16  A$fdc$668 |    00001E19  A$fdc$669 |    00001E1A  A$fdc$673
     00001E1A  C$fdc.c$1 |    00001E1D  A$fdc$677 |    00001E1D  C$fdc.c$1
     00001E20  A$fdc$678 |    00001E21  A$fdc$679 |    00001E22  A$fdc$680
     00001E25  A$fdc$681 |    00001E26  A$fdc$685 |    00001E26  C$fdc.c$1
     00001E29  A$fdc$686 |    00001E2B  A$fdc$687 |    00001E2E  A$fdc$688
     00001E31  A$fdc$689 |    00001E33  A$fdc$690 |    00001E36  A$fdc$691
     00001E37  A$fdc$692 |    00001E38  A$fdc$693 |    00001E39  A$fdc$694
     00001E3A  A$fdc$695 |    00001E3B  A$fdc$696 |    00001E3C  A$fdc$697
     00001E3D  A$fdc$698 |    00001E3E  A$fdc$699 |    00001E3F  A$fdc$700
     00001E40  A$fdc$701 |    00001E42  A$fdc$702 |    00001E43  A$fdc$703
     00001E44  A$fdc$704 |    00001E45  A$fdc$705 |    00001E46  A$fdc$706
     00001E48  A$fdc$710 |    00001E48  C$fdc.c$1 |    00001E4B  A$fdc$711
     00001E4E  A$fdc$712 |    00001E4F  A$fdc$713 |    00001E51  A$fdc$714
     00001E52  A$fdc$715 |    00001E53  A$fdc$716 |    00001E54  A$fdc$717
     00001E57  A$fdc$718 |    00001E58  A$fdc$719 |    00001E59  A$fdc$720
     00001E5A  A$fdc$721 |    00001E5B  A$fdc$722 |    00001E5E  A$fdc$723
     00001E5F  A$fdc$724 |    00001E60  A$fdc$725 |    00001E61  A$fdc$726
     00001E62  A$fdc$727 |    00001E63  A$fdc$728 |    00001E64  A$fdc$729
     00001E65  A$fdc$730 |    00001E66  A$fdc$731 |    00001E67  A$fdc$735
     00001E67  C$fdc.c$1 |    00001E68  A$fdc$736 |    00001E69  A$fdc$737
     00001E6B  A$fdc$738 |    00001E6C  A$fdc$739 |    00001E6D  A$fdc$740
     00001E6F  A$fdc$744 |    00001E6F  C$fdc.c$1 |    00001E72  A$fdc$745
     00001E73  A$fdc$746 |    00001E76  A$fdc$747 |    00001E77  A$fdc$751
     00001E77  C$fdc.c$1 |    00001E79  A$fdc$756 |    00001E79  C$fdc.c$1
     00001E7C  A$fdc$757 |    00001E7E  A$fdc$758 |    00001E7F  A$fdc$759
     00001E82  A$fdc$760 |    00001E84  A$fdc$761 |    00001E85  A$fdc$762
     00001E86  A$fdc$763 |    00001E87  A$fdc$764 |    00001E8A  A$fdc$765
     00001E8B  A$fdc$766 |    00001E8C  A$fdc$767 |    00001E8D  A$fdc$768
     00001E90  A$fdc$769 |    00001E91  A$fdc$770 |    00001E92  A$fdc$771
     00001E94  A$fdc$772 |    00001E95  A$fdc$773 |    00001E96  A$fdc$774
     00001E97  A$fdc$775 |    00001E9A  A$fdc$776 |    00001E9D  A$fdc$777
     00001E9E  A$fdc$778 |    00001E9F  A$fdc$783 |    00001E9F  C$fdc.c$1
     00001EA0  A$fdc$784 |    00001EA1  A$fdc$785 |    00001EA2  A$fdc$786
     00001EA3  A$fdc$787 |    00001EA4  A$fdc$788 |    00001EA5  A$fdc$789
     00001EA6  A$fdc$790 |    00001EA7  A$fdc$791 |    00001EA8  A$fdc$792
     00001EA9  A$fdc$793 |    00001EAA  A$fdc$794 |    00001EAB  A$fdc$795
     00001EAC  A$fdc$796 |    00001EAF  A$fdc$800 |    00001EAF  C$fdc.c$1
     00001EB0  A$fdc$801 |    00001EB3  A$fdc$802 |    00001EB4  A$fdc$803
     00001EB7  A$fdc$804 |    00001EB8  A$fdc$809 |    00001EB8  C$fdc.c$1
ASxxxx Linker V03.00 + NoICE + sdld,  page 28.
Hexadecimal  [32-Bits]

Area                       Addr        Size        Decimal Bytes (Attributes)
--------------------       ----        ----        ------- ----- ------------
_CODE                  00000000    000084DB =       34011. bytes (REL,CON)

        Value  Global            Value  Global            Value  Global    
        -----  ------            -----  ------            -----  ------    
     00001EBB  A$fdc$810 |    00001EBD  A$fdc$811 |    00001EBE  A$fdc$812
     00001EC1  A$fdc$813 |    00001EC3  A$fdc$814 |    00001EC4  A$fdc$815
     00001EC5  A$fdc$816 |    00001EC6  A$fdc$820 |    00001EC6  C$fdc.c$1
     00001EC9  A$fdc$821 |    00001ECB  A$fdc$822 |    00001ECC  A$fdc$823
     00001ECF  A$fdc$824 |    00001ED2  A$fdc$825 |    00001ED3  A$fdc$826
     00001ED4  A$fdc$827 |    00001ED7  A$fdc$828 |    00001EDA  A$fdc$829
     00001EDB  A$fdc$830 |    00001EDC  A$fdc$834 |    00001EDC  C$fdc.c$1
     00001EDF  A$fdc$835 |    00001EE0  A$fdc$836 |    00001EE3  A$fdc$837
     00001EE4  A$fdc$842 |    00001EE6  A$fdc$843 |    00001EE8  A$fdc$848
     00001EE8  C$fdc.c$1 |    00001EE8  XG$fdcUnm |    00001EE9  Ffdc$__st
     00001F10  Ffdc$__st |    00001F30  Ffdc$__st |    00001F52  Ffdc$__st
     00001F6C  Ffdc$__st |    00001F85  Ffdc$__st |    00001F97  A$fdc$882
     00001F97  C$fdc.c$1 |    00001F97  G$fdcMoun |    00001F97  _fdcMount
     00001F99  A$fdc$883 |    00001F9D  A$fdc$884 |    00001F9F  A$fdc$888
     00001F9F  C$fdc.c$1 |    00001FA1  A$fdc$889 |    00001FA4  A$fdc$890
     00001FA6  A$fdc$894 |    00001FA6  C$fdc.c$1 |    00001FA8  A$fdc$895
     00001FAA  A$fdc$900 |    00001FAA  C$fdc.c$2 |    00001FAD  A$fdc$901
     00001FAF  A$fdc$902 |    00001FB0  A$fdc$903 |    00001FB1  A$fdc$904
     00001FB2  A$fdc$905 |    00001FB3  A$fdc$906 |    00001FB4  A$fdc$907
     00001FB5  A$fdc$908 |    00001FB6  A$fdc$909 |    00001FB7  A$fdc$910
     00001FB8  A$fdc$911 |    00001FB9  A$fdc$912 |    00001FBA  A$fdc$913
     00001FBB  A$fdc$914 |    00001FBC  A$fdc$915 |    00001FBF  A$fdc$916
     00001FC0  A$fdc$917 |    00001FC3  A$fdc$918 |    00001FC4  A$fdc$919
     00001FC5  A$fdc$920 |    00001FC6  A$fdc$921 |    00001FC8  A$fdc$922
     00001FCB  A$fdc$925 |    00001FCC  A$fdc$927 |    00001FCD  A$fdc$932
     00001FCF  A$fdc$937 |    00001FCF  C$fdc.c$2 |    00001FCF  XG$fdcMou
     00001FD0  Ffdc$__st |    00001FFB  A$fdc$951 |    00001FFB  C$fdc.c$2
     00001FFB  G$fdcChan |    00001FFB  _fdcChang |    00001FFD  A$fdc$952
     00002001  A$fdc$953 |    00002003  A$fdc$957 |    00002003  C$fdc.c$2
     00002005  A$fdc$958 |    00002008  A$fdc$959 |    0000200A  A$fdc$963
     0000200A  C$fdc.c$2 |    0000200C  A$fdc$964 |    0000200E  A$fdc$969
     0000200E  C$fdc.c$2 |    00002011  A$fdc$970 |    00002013  A$fdc$971
     00002014  A$fdc$972 |    00002015  A$fdc$973 |    00002016  A$fdc$974
     00002017  A$fdc$975 |    00002018  A$fdc$976 |    00002019  A$fdc$977
     0000201A  A$fdc$978 |    0000201B  A$fdc$979 |    0000201C  A$fdc$980
     0000201D  A$fdc$981 |    0000201E  A$fdc$982 |    0000201F  A$fdc$983
     00002020  A$fdc$984 |    00002023  A$fdc$985 |    00002024  A$fdc$986
     00002027  A$fdc$987 |    00002028  A$fdc$988 |    00002029  A$fdc$989
     0000202A  A$fdc$990 |    0000202C  A$fdc$991 |    0000202F  A$fdc$994
     00002030  A$fdc$996 |    00002031  A$fdc$100 |    00002033  A$fdc$100
     00002033  C$fdc.c$2 |    00002033  XG$fdcCha |    00002034  Ffdc$__st
     00002059  A$fdc$102 |    00002059  C$fdc.c$2 |    00002059  G$fdcFlus
     00002059  _fdcFlush |    0000205B  A$fdc$102 |    0000205F  A$fdc$102
     00002061  A$fdc$102 |    00002064  A$fdc$102 |    00002065  A$fdc$102
     00002066  A$fdc$102 |    00002066  C$fdc.c$2 |    00002068  A$fdc$103
     0000206B  A$fdc$103 |    0000206D  A$fdc$103 |    0000206D  C$fdc.c$2
     0000206F  A$fdc$103 |    00002072  A$fdc$104 |    00002072  C$fdc.c$2
     00002075  A$fdc$104 |    00002076  A$fdc$104 |    00002077  A$fdc$104
     0000207A  A$fdc$104 |    0000207B  A$fdc$104 |    0000207C  A$fdc$104
     0000207D  A$fdc$104 |    0000207F  A$fdc$105 |    0000207F  C$fdc.c$2
     00002082  A$fdc$105 |    00002083  A$fdc$105 |    00002086  A$fdc$105
ASxxxx Linker V03.00 + NoICE + sdld,  page 29.
Hexadecimal  [32-Bits]

Area                       Addr        Size        Decimal Bytes (Attributes)
--------------------       ----        ----        ------- ----- ------------
_CODE                  00000000    000084DB =       34011. bytes (REL,CON)

        Value  Global            Value  Global            Value  Global    
        -----  ------            -----  ------            -----  ------    
     00002086  C$fdc.c$2 |    00002089  A$fdc$105 |    0000208A  A$fdc$106
     0000208D  A$fdc$106 |    0000208E  A$fdc$106 |    0000208E  C$fdc.c$2
     00002090  A$fdc$106 |    00002093  A$fdc$107 |    00002093  C$fdc.c$2
     00002096  A$fdc$107 |    00002099  A$fdc$107 |    0000209B  A$fdc$107
     0000209C  A$fdc$107 |    0000209D  A$fdc$107 |    0000209E  A$fdc$107
     0000209F  A$fdc$107 |    000020A0  A$fdc$107 |    000020A1  A$fdc$108
     000020A2  A$fdc$108 |    000020A3  A$fdc$108 |    000020A4  A$fdc$108
     000020A5  A$fdc$108 |    000020A6  A$fdc$108 |    000020A7  A$fdc$108
     000020A8  A$fdc$108 |    000020A9  A$fdc$108 |    000020AA  A$fdc$109
     000020AA  C$fdc.c$2 |    000020AB  A$fdc$109 |    000020AC  A$fdc$109
     000020AF  A$fdc$109 |    000020B0  A$fdc$109 |    000020B1  A$fdc$109
     000020B2  A$fdc$109 |    000020B3  A$fdc$109 |    000020B5  A$fdc$110
     000020B8  A$fdc$110 |    000020B9  A$fdc$110 |    000020BB  A$fdc$110
     000020BC  A$fdc$110 |    000020BD  A$fdc$110 |    000020BE  A$fdc$110
     000020BF  A$fdc$111 |    000020C2  A$fdc$111 |    000020C3  A$fdc$111
     000020C4  A$fdc$111 |    000020C5  A$fdc$111 |    000020C6  A$fdc$111
     000020C8  A$fdc$111 |    000020C8  C$fdc.c$2 |    000020C9  A$fdc$112
     000020CA  A$fdc$112 |    000020CB  A$fdc$112 |    000020CB  C$fdc.c$2
     000020CE  A$fdc$112 |    000020D0  A$fdc$112 |    000020D1  A$fdc$112
     000020D2  A$fdc$112 |    000020D3  A$fdc$113 |    000020D4  A$fdc$113
     000020D5  A$fdc$113 |    000020D6  A$fdc$113 |    000020D7  A$fdc$113
     000020D8  A$fdc$113 |    000020D9  A$fdc$113 |    000020DA  A$fdc$113
     000020DB  A$fdc$113 |    000020DC  A$fdc$113 |    000020DD  A$fdc$114
     000020DE  A$fdc$114 |    000020DF  A$fdc$114 |    000020E0  A$fdc$114
     000020E1  A$fdc$114 |    000020E2  A$fdc$114 |    000020E3  A$fdc$114
     000020E4  A$fdc$114 |    000020E5  A$fdc$114 |    000020E6  A$fdc$114
     000020E7  A$fdc$115 |    000020E8  A$fdc$115 |    000020EB  A$fdc$115
     000020EC  A$fdc$115 |    000020EE  A$fdc$115 |    000020F1  A$fdc$115
     000020F2  A$fdc$115 |    000020F4  A$fdc$115 |    000020F7  A$fdc$115
     000020F8  A$fdc$115 |    000020FA  A$fdc$116 |    000020FD  A$fdc$116
     000020FF  A$fdc$116 |    00002100  A$fdc$116 |    00002101  A$fdc$116
     00002102  A$fdc$116 |    00002103  A$fdc$116 |    00002104  A$fdc$116
     00002105  A$fdc$116 |    00002106  A$fdc$116 |    00002107  A$fdc$117
     00002108  A$fdc$117 |    00002109  A$fdc$117 |    0000210A  A$fdc$117
     0000210B  A$fdc$117 |    0000210C  A$fdc$117 |    0000210D  A$fdc$117
     0000210E  A$fdc$117 |    00002111  A$fdc$117 |    00002112  A$fdc$117
     00002113  A$fdc$118 |    00002116  A$fdc$118 |    00002117  A$fdc$118
     00002118  A$fdc$118 |    0000211B  A$fdc$118 |    0000211C  A$fdc$118
     0000211D  A$fdc$118 |    00002120  A$fdc$118 |    00002121  A$fdc$118
     00002122  A$fdc$118 |    00002125  A$fdc$119 |    00002126  A$fdc$119
     00002129  A$fdc$119 |    0000212C  A$fdc$119 |    0000212D  A$fdc$119
     0000212E  A$fdc$119 |    0000212F  A$fdc$119 |    00002131  A$fdc$119
     00002132  A$fdc$119 |    00002133  A$fdc$119 |    00002136  A$fdc$120
     00002139  A$fdc$120 |    0000213A  A$fdc$120 |    0000213B  A$fdc$120
     0000213B  C$fdc.c$2 |    0000213D  A$fdc$121 |    0000213F  A$fdc$121
     00002141  A$fdc$121 |    00002141  C$fdc.c$2 |    00002141  XG$fdcFlu
     00002142  Ffdc$__st |    00002167  Ffdc$__st |    0000218A  Ffdc$__st
     000021B6  A$fdc$124 |    000021B6  C$fdc.c$2 |    000021B6  G$fdcLoad
     000021B6  _fdcLoadM |    000021B8  A$fdc$124 |    000021BC  A$fdc$124
     000021BE  A$fdc$124 |    000021C1  A$fdc$124 |    000021C2  A$fdc$124
     000021C3  A$fdc$124 |    000021C3  C$fdc.c$2 |    000021C5  A$fdc$125
ASxxxx Linker V03.00 + NoICE + sdld,  page 30.
Hexadecimal  [32-Bits]

Area                       Addr        Size        Decimal Bytes (Attributes)
--------------------       ----        ----        ------- ----- ------------
_CODE                  00000000    000084DB =       34011. bytes (REL,CON)

        Value  Global            Value  Global            Value  Global    
        -----  ------            -----  ------            -----  ------    
     000021C8  A$fdc$125 |    000021CA  A$fdc$125 |    000021CA  C$fdc.c$2
     000021CC  A$fdc$125 |    000021CF  A$fdc$126 |    000021CF  C$fdc.c$2
     000021D2  A$fdc$126 |    000021D3  A$fdc$126 |    000021D4  A$fdc$126
     000021D7  A$fdc$126 |    000021D8  A$fdc$126 |    000021D9  A$fdc$126
     000021DA  A$fdc$126 |    000021DC  A$fdc$127 |    000021DC  C$fdc.c$2
     000021DF  A$fdc$127 |    000021E0  A$fdc$127 |    000021E3  A$fdc$127
     000021E3  C$fdc.c$2 |    000021E6  A$fdc$127 |    000021E7  A$fdc$128
     000021EA  A$fdc$128 |    000021EB  A$fdc$128 |    000021EB  C$fdc.c$2
     000021ED  A$fdc$128 |    000021F0  A$fdc$129 |    000021F0  C$fdc.c$2
     000021F3  A$fdc$129 |    000021F6  A$fdc$129 |    000021F8  A$fdc$129
     000021F9  A$fdc$129 |    000021FA  A$fdc$129 |    000021FB  A$fdc$129
     000021FC  A$fdc$129 |    000021FD  A$fdc$129 |    000021FE  A$fdc$130
     000021FF  A$fdc$130 |    00002200  A$fdc$130 |    00002201  A$fdc$130
     00002202  A$fdc$130 |    00002203  A$fdc$130 |    00002204  A$fdc$130
     00002205  A$fdc$130 |    00002206  A$fdc$131 |    00002206  C$fdc.c$2
     00002207  A$fdc$131 |    00002208  A$fdc$131 |    00002209  A$fdc$131
     0000220C  A$fdc$131 |    0000220E  A$fdc$131 |    0000220F  A$fdc$131
     00002210  A$fdc$131 |    00002211  A$fdc$131 |    00002212  A$fdc$132
     00002213  A$fdc$132 |    00002214  A$fdc$132 |    00002215  A$fdc$132
     00002216  A$fdc$132 |    00002217  A$fdc$132 |    00002218  A$fdc$132
     00002219  A$fdc$132 |    0000221A  A$fdc$132 |    0000221B  A$fdc$132
     0000221C  A$fdc$133 |    0000221D  A$fdc$133 |    0000221E  A$fdc$133
     0000221F  A$fdc$133 |    00002220  A$fdc$133 |    00002221  A$fdc$133
     00002222  A$fdc$133 |    00002223  A$fdc$133 |    00002224  A$fdc$133
     00002225  A$fdc$133 |    00002226  A$fdc$134 |    00002229  A$fdc$134
     0000222A  A$fdc$134 |    0000222C  A$fdc$134 |    0000222F  A$fdc$134
     00002230  A$fdc$134 |    00002232  A$fdc$134 |    00002235  A$fdc$134
     00002236  A$fdc$134 |    00002238  A$fdc$134 |    0000223B  A$fdc$135
     0000223E  A$fdc$135 |    00002240  A$fdc$135 |    00002241  A$fdc$135
     00002242  A$fdc$135 |    00002243  A$fdc$135 |    00002244  A$fdc$135
     00002245  A$fdc$135 |    00002246  A$fdc$135 |    00002247  A$fdc$135
     00002248  A$fdc$136 |    00002249  A$fdc$136 |    0000224A  A$fdc$136
     0000224B  A$fdc$136 |    0000224C  A$fdc$136 |    0000224D  A$fdc$136
     0000224E  A$fdc$136 |    0000224F  A$fdc$136 |    00002252  A$fdc$136
     00002253  A$fdc$136 |    00002254  A$fdc$137 |    00002257  A$fdc$137
     00002258  A$fdc$137 |    00002259  A$fdc$137 |    0000225C  A$fdc$137
     0000225D  A$fdc$137 |    0000225E  A$fdc$137 |    00002261  A$fdc$137
     00002262  A$fdc$137 |    00002263  A$fdc$137 |    00002266  A$fdc$138
     00002267  A$fdc$138 |    0000226A  A$fdc$138 |    0000226D  A$fdc$138
     0000226E  A$fdc$138 |    0000226F  A$fdc$138 |    00002270  A$fdc$138
     00002272  A$fdc$138 |    00002273  A$fdc$138 |    00002274  A$fdc$138
     00002277  A$fdc$139 |    0000227A  A$fdc$139 |    0000227B  A$fdc$139
     0000227C  A$fdc$139 |    0000227C  C$fdc.c$2 |    0000227E  A$fdc$140
     00002280  A$fdc$140 |    00002282  A$fdc$140 |    00002282  C$fdc.c$2
     00002282  XG$fdcLoa |    00002283  Ffdc$__st |    000022AA  Ffdc$__st
     000022CC  A$fdc$142 |    000022CC  C$fdc.c$2 |    000022CC  G$fdcInit
     000022CC  _fdcInit  |    000022CE  A$fdc$142 |    000022D2  A$fdc$142
     000022D4  A$fdc$142 |    000022D7  A$fdc$142 |    000022D8  A$fdc$143
     000022D9  A$fdc$143 |    000022D9  C$fdc.c$2 |    000022D9  C$fdc.c$2
     000022DC  A$fdc$143 |    000022DD  A$fdc$143 |    000022DE  A$fdc$144
     000022E1  A$fdc$144 |    000022E2  A$fdc$144 |    000022E5  A$fdc$144
ASxxxx Linker V03.00 + NoICE + sdld,  page 31.
Hexadecimal  [32-Bits]

Area                       Addr        Size        Decimal Bytes (Attributes)
--------------------       ----        ----        ------- ----- ------------
_CODE                  00000000    000084DB =       34011. bytes (REL,CON)

        Value  Global            Value  Global            Value  Global    
        -----  ------            -----  ------            -----  ------    
     000022E6  A$fdc$144 |    000022E9  A$fdc$144 |    000022EA  A$fdc$144
     000022ED  A$fdc$144 |    000022EE  A$fdc$144 |    000022F1  A$fdc$144
     000022F2  A$fdc$145 |    000022F3  A$fdc$145 |    000022F6  A$fdc$145
     000022F9  A$fdc$145 |    000022FA  A$fdc$145 |    000022FB  A$fdc$145
     000022FB  C$fdc.c$2 |    000022FE  A$fdc$145 |    000022FF  A$fdc$146
     00002302  A$fdc$146 |    00002302  C$fdc.c$2 |    00002305  A$fdc$146
     00002306  A$fdc$146 |    00002309  A$fdc$146 |    0000230A  A$fdc$146
     0000230D  A$fdc$146 |    0000230E  A$fdc$147 |    00002311  A$fdc$147
     00002312  A$fdc$147 |    00002314  A$fdc$147 |    00002315  A$fdc$147
     00002316  A$fdc$147 |    00002319  A$fdc$147 |    0000231C  A$fdc$147
     0000231D  A$fdc$147 |    0000231E  A$fdc$148 |    00002321  A$fdc$148
     00002322  A$fdc$148 |    00002325  A$fdc$148 |    00002326  A$fdc$148
     00002329  A$fdc$148 |    0000232A  A$fdc$148 |    0000232D  A$fdc$148
     0000232E  A$fdc$149 |    0000232F  A$fdc$149 |    00002330  A$fdc$149
     00002331  A$fdc$149 |    00002331  C$fdc.c$2 |    00002334  A$fdc$150
     00002334  C$fdc.c$2 |    00002335  A$fdc$150 |    00002336  A$fdc$150
     00002338  A$fdc$150 |    00002338  C$fdc.c$2 |    00002339  A$fdc$150
     0000233C  A$fdc$150 |    0000233D  A$fdc$150 |    00002340  A$fdc$151
     00002341  A$fdc$151 |    00002344  A$fdc$151 |    00002347  A$fdc$151
     0000234A  A$fdc$151 |    0000234C  A$fdc$151 |    0000234D  A$fdc$151
     0000234D  C$fdc.c$2 |    0000234F  A$fdc$152 |    0000234F  C$fdc.c$2
     00002350  A$fdc$152 |    00002352  A$fdc$152 |    00002353  A$fdc$152
     00002354  A$fdc$152 |    00002355  A$fdc$152 |    00002356  A$fdc$153
     00002357  A$fdc$153 |    00002358  A$fdc$153 |    00002359  A$fdc$153
     0000235A  A$fdc$153 |    0000235B  A$fdc$153 |    0000235C  A$fdc$153
     0000235D  A$fdc$153 |    0000235E  A$fdc$153 |    0000235F  A$fdc$153
     00002360  A$fdc$154 |    00002362  A$fdc$154 |    00002363  A$fdc$154
     00002366  A$fdc$154 |    00002368  A$fdc$154 |    00002369  A$fdc$154
     0000236C  A$fdc$154 |    0000236F  A$fdc$154 |    00002371  A$fdc$154
     00002372  A$fdc$154 |    00002375  A$fdc$155 |    00002377  A$fdc$155
     00002378  A$fdc$155 |    0000237A  A$fdc$155 |    0000237A  C$fdc.c$2
     0000237D  A$fdc$155 |    0000237F  A$fdc$155 |    00002380  A$fdc$155
     00002383  A$fdc$156 |    00002385  A$fdc$156 |    00002386  A$fdc$156
     00002388  A$fdc$156 |    00002388  C$fdc.c$2 |    0000238B  A$fdc$156
     0000238D  A$fdc$156 |    0000238E  A$fdc$156 |    00002391  A$fdc$157
     00002393  A$fdc$157 |    00002394  A$fdc$157 |    00002396  A$fdc$157
     00002396  C$fdc.c$2 |    00002397  A$fdc$157 |    00002398  A$fdc$157
     0000239A  A$fdc$157 |    0000239C  A$fdc$158 |    0000239C  C$fdc.c$2
     0000239E  A$fdc$158 |    0000239E  C$fdc.c$3 |    000023A0  A$fdc$159
     000023A1  A$fdc$159 |    000023A2  A$fdc$159 |    000023A3  A$fdc$159
     000023A4  A$fdc$159 |    000023A5  A$fdc$159 |    000023A6  A$fdc$159
     000023A7  A$fdc$159 |    000023A8  A$fdc$159 |    000023A9  A$fdc$159
     000023AA  A$fdc$160 |    000023AB  A$fdc$160 |    000023AC  A$fdc$160
     000023AD  A$fdc$160 |    000023B0  A$fdc$160 |    000023B1  A$fdc$160
     000023B4  A$fdc$160 |    000023B7  A$fdc$161 |    000023B7  C$fdc.c$3
     000023BA  A$fdc$161 |    000023BD  A$fdc$161 |    000023C0  A$fdc$161
     000023C3  A$fdc$161 |    000023C7  A$fdc$161 |    000023C7  C$fdc.c$3
     000023C9  A$fdc$162 |    000023C9  C$fdc.c$3 |    000023CA  A$fdc$162
     000023CB  A$fdc$162 |    000023CC  A$fdc$162 |    000023CD  A$fdc$162
     000023CE  A$fdc$162 |    000023CF  A$fdc$163 |    000023D0  A$fdc$163
     000023D1  A$fdc$163 |    000023D2  A$fdc$163 |    000023D3  A$fdc$163
ASxxxx Linker V03.00 + NoICE + sdld,  page 32.
Hexadecimal  [32-Bits]

Area                       Addr        Size        Decimal Bytes (Attributes)
--------------------       ----        ----        ------- ----- ------------
_CODE                  00000000    000084DB =       34011. bytes (REL,CON)

        Value  Global            Value  Global            Value  Global    
        -----  ------            -----  ------            -----  ------    
     000023D6  A$fdc$163 |    000023D7  A$fdc$163 |    000023D9  A$fdc$163
     000023DC  A$fdc$163 |    000023DD  A$fdc$164 |    000023DD  C$fdc.c$3
     000023DF  A$fdc$164 |    000023DF  C$fdc.c$3 |    000023E0  A$fdc$164
     000023E2  A$fdc$164 |    000023E4  A$fdc$164 |    000023E8  A$fdc$165
     000023E8  C$fdc.c$3 |    000023E9  A$fdc$165 |    000023EA  A$fdc$165
     000023EB  A$fdc$165 |    000023EF  A$fdc$166 |    000023EF  C$fdc.c$3
     000023F0  A$fdc$166 |    000023F3  A$fdc$166 |    000023F4  A$fdc$166
     000023F5  A$fdc$166 |    000023F6  A$fdc$166 |    000023F7  A$fdc$166
     000023F8  A$fdc$166 |    000023F9  A$fdc$166 |    000023FC  A$fdc$167
     000023FD  A$fdc$167 |    000023FF  A$fdc$167 |    00002402  A$fdc$167
     00002403  A$fdc$167 |    00002404  A$fdc$167 |    00002405  A$fdc$167
     00002406  A$fdc$167 |    00002409  A$fdc$167 |    0000240C  A$fdc$167
     0000240D  A$fdc$168 |    0000240F  A$fdc$168 |    00002412  A$fdc$168
     00002413  A$fdc$168 |    00002414  A$fdc$168 |    00002415  A$fdc$168
     00002416  A$fdc$168 |    00002417  A$fdc$168 |    0000241A  A$fdc$168
     0000241B  A$fdc$168 |    0000241E  A$fdc$169 |    0000241F  A$fdc$169
     00002422  A$fdc$169 |    00002423  A$fdc$169 |    00002424  A$fdc$169
     00002425  A$fdc$169 |    00002426  A$fdc$169 |    00002427  A$fdc$169
     00002428  A$fdc$169 |    00002429  A$fdc$169 |    0000242A  A$fdc$170
     0000242B  A$fdc$170 |    0000242C  A$fdc$170 |    0000242D  A$fdc$170
     00002430  A$fdc$170 |    00002433  A$fdc$170 |    00002434  A$fdc$170
     00002436  A$fdc$170 |    00002439  A$fdc$170 |    0000243A  A$fdc$170
     0000243C  A$fdc$171 |    0000243F  A$fdc$171 |    00002442  A$fdc$171
     00002444  A$fdc$171 |    00002447  A$fdc$171 |    00002448  A$fdc$171
     00002449  A$fdc$171 |    0000244A  A$fdc$171 |    0000244B  A$fdc$171
     0000244C  A$fdc$171 |    0000244F  A$fdc$172 |    00002450  A$fdc$172
     00002453  A$fdc$172 |    00002454  A$fdc$172 |    00002457  A$fdc$172
     00002458  A$fdc$172 |    00002459  A$fdc$172 |    0000245A  A$fdc$172
     0000245B  A$fdc$172 |    0000245C  A$fdc$172 |    0000245D  A$fdc$173
     0000245E  A$fdc$173 |    0000245F  A$fdc$173 |    00002460  A$fdc$173
     00002461  A$fdc$173 |    00002462  A$fdc$173 |    00002463  A$fdc$173
     00002466  A$fdc$173 |    00002469  A$fdc$173 |    0000246A  A$fdc$173
     0000246D  A$fdc$174 |    00002470  A$fdc$174 |    00002471  A$fdc$174
     00002474  A$fdc$174 |    00002477  A$fdc$174 |    00002478  A$fdc$174
     0000247B  A$fdc$174 |    0000247E  A$fdc$174 |    00002481  A$fdc$174
     00002484  A$fdc$174 |    00002488  A$fdc$175 |    00002489  A$fdc$175
     0000248B  A$fdc$175 |    0000248C  A$fdc$175 |    0000248D  A$fdc$175
     0000248E  A$fdc$175 |    0000248F  A$fdc$175 |    00002490  A$fdc$175
     00002491  A$fdc$175 |    00002492  A$fdc$175 |    00002493  A$fdc$176
     00002494  A$fdc$176 |    00002497  A$fdc$176 |    00002498  A$fdc$176
     00002499  A$fdc$176 |    0000249C  A$fdc$176 |    0000249D  A$fdc$176
     0000249E  A$fdc$176 |    0000249F  A$fdc$176 |    000024A1  A$fdc$176
     000024A2  A$fdc$177 |    000024A3  A$fdc$177 |    000024A4  A$fdc$177
     000024A5  A$fdc$177 |    000024A6  A$fdc$177 |    000024A7  A$fdc$177
     000024AA  A$fdc$177 |    000024AD  A$fdc$177 |    000024AE  A$fdc$177
     000024B1  A$fdc$177 |    000024B4  A$fdc$178 |    000024B5  A$fdc$178
     000024B8  A$fdc$178 |    000024BB  A$fdc$178 |    000024BC  A$fdc$178
     000024BF  A$fdc$178 |    000024C2  A$fdc$178 |    000024C3  A$fdc$178
     000024C4  A$fdc$178 |    000024C7  A$fdc$178 |    000024CA  A$fdc$179
     000024CD  A$fdc$179 |    000024CE  A$fdc$179 |    000024D1  A$fdc$179
     000024D3  A$fdc$179 |    000024D4  A$fdc$179 |    000024D5  A$fdc$179
ASxxxx Linker V03.00 + NoICE + sdld,  page 33.
Hexadecimal  [32-Bits]

Area                       Addr        Size        Decimal Bytes (Attributes)
--------------------       ----        ----        ------- ----- ------------
_CODE                  00000000    000084DB =       34011. bytes (REL,CON)

        Value  Global            Value  Global            Value  Global    
        -----  ------            -----  ------            -----  ------    
     000024D5  C$fdc.c$3 |    000024D8  A$fdc$180 |    000024DB  A$fdc$180
     000024DD  A$fdc$180 |    000024E0  A$fdc$180 |    000024E0  C$fdc.c$3
     000024E1  A$fdc$180 |    000024E2  A$fdc$180 |    000024E4  A$fdc$180
     000024E7  A$fdc$181 |    000024E7  C$fdc.c$3 |    000024EA  A$fdc$181
     000024ED  A$fdc$181 |    000024F0  A$fdc$181 |    000024F3  A$fdc$182
     000024F3  C$fdc.c$3 |    000024F4  A$fdc$182 |    000024F6  A$fdc$182
     000024F7  A$fdc$182 |    000024F8  A$fdc$182 |    000024F9  A$fdc$182
     000024FA  A$fdc$182 |    000024FB  A$fdc$182 |    000024FC  A$fdc$182
     000024FD  A$fdc$182 |    000024FE  A$fdc$183 |    000024FF  A$fdc$183
     00002500  A$fdc$183 |    00002501  A$fdc$183 |    00002502  A$fdc$183
     00002503  A$fdc$183 |    00002504  A$fdc$183 |    00002505  A$fdc$183
     00002506  A$fdc$183 |    00002507  A$fdc$183 |    00002508  A$fdc$184
     00002509  A$fdc$184 |    0000250A  A$fdc$184 |    0000250B  A$fdc$184
     0000250C  A$fdc$184 |    0000250D  A$fdc$184 |    0000250E  A$fdc$184
     00002511  A$fdc$184 |    00002512  A$fdc$184 |    00002514  A$fdc$184
     00002517  A$fdc$185 |    00002518  A$fdc$185 |    0000251A  A$fdc$185
     0000251D  A$fdc$185 |    0000251E  A$fdc$185 |    00002520  A$fdc$185
     00002523  A$fdc$185 |    00002526  A$fdc$185 |    00002528  A$fdc$185
     00002529  A$fdc$185 |    0000252A  A$fdc$186 |    0000252B  A$fdc$186
     0000252C  A$fdc$186 |    0000252D  A$fdc$186 |    0000252E  A$fdc$186
     0000252F  A$fdc$186 |    00002530  A$fdc$186 |    00002531  A$fdc$186
     00002532  A$fdc$186 |    00002533  A$fdc$186 |    00002534  A$fdc$187
     00002535  A$fdc$187 |    00002536  A$fdc$187 |    00002537  A$fdc$187
     0000253A  A$fdc$187 |    0000253B  A$fdc$187 |    0000253E  A$fdc$187
     00002541  A$fdc$187 |    00002542  A$fdc$187 |    00002545  A$fdc$187
     00002548  A$fdc$188 |    00002549  A$fdc$188 |    0000254C  A$fdc$188
     0000254F  A$fdc$188 |    00002550  A$fdc$188 |    00002553  A$fdc$188
     00002554  A$fdc$188 |    00002557  A$fdc$188 |    00002558  A$fdc$188
     0000255B  A$fdc$188 |    0000255E  A$fdc$189 |    0000255F  A$fdc$189
     00002562  A$fdc$189 |    00002565  A$fdc$189 |    00002566  A$fdc$189
     00002569  A$fdc$189 |    0000256C  A$fdc$189 |    0000256D  A$fdc$189
     0000256F  A$fdc$189 |    00002570  A$fdc$189 |    00002571  A$fdc$190
     00002574  A$fdc$190 |    00002577  A$fdc$190 |    00002578  A$fdc$190
     00002579  A$fdc$190 |    0000257A  A$fdc$190 |    0000257A  C$fdc.c$3
     0000257D  A$fdc$190 |    00002580  A$fdc$191 |    00002582  A$fdc$191
     00002585  A$fdc$191 |    00002585  C$fdc.c$2 |    00002586  A$fdc$191
     00002587  A$fdc$191 |    00002589  A$fdc$191 |    0000258C  A$fdc$192
     0000258C  C$fdc.c$3 |    0000258E  A$fdc$192 |    0000258E  C$fdc.c$3
     0000258F  A$fdc$192 |    00002591  A$fdc$192 |    00002592  A$fdc$193
     00002593  A$fdc$193 |    00002594  A$fdc$193 |    00002595  A$fdc$193
     00002596  A$fdc$193 |    00002597  A$fdc$193 |    00002598  A$fdc$193
     00002599  A$fdc$193 |    0000259A  A$fdc$193 |    0000259B  A$fdc$193
     0000259C  A$fdc$194 |    0000259D  A$fdc$194 |    0000259E  A$fdc$194
     000025A1  A$fdc$194 |    000025A2  A$fdc$194 |    000025A5  A$fdc$194
     000025A6  A$fdc$194 |    000025A7  A$fdc$194 |    000025A8  A$fdc$194
     000025AA  A$fdc$194 |    000025AB  A$fdc$195 |    000025AC  A$fdc$195
     000025AD  A$fdc$195 |    000025AE  A$fdc$195 |    000025AF  A$fdc$195
     000025B0  A$fdc$195 |    000025B3  A$fdc$195 |    000025B4  A$fdc$195
     000025B5  A$fdc$196 |    000025B5  C$fdc.c$3 |    000025B6  A$fdc$196
     000025B7  A$fdc$196 |    000025B9  A$fdc$196 |    000025BB  A$fdc$196
     000025BD  A$fdc$197 |    000025BF  A$fdc$197 |    000025BF  C$fdc.c$3
ASxxxx Linker V03.00 + NoICE + sdld,  page 34.
Hexadecimal  [32-Bits]

Area                       Addr        Size        Decimal Bytes (Attributes)
--------------------       ----        ----        ------- ----- ------------
_CODE                  00000000    000084DB =       34011. bytes (REL,CON)

        Value  Global            Value  Global            Value  Global    
        -----  ------            -----  ------            -----  ------    
     000025BF  XG$fdcIni |    000025C0  Ffdc$__st |    00002616  Ffdc$__st
     00002623  Ffdc$__st |    00002643  A$fdc$199 |    00002643  C$fdc.c$3
     00002643  G$fdcSeek |    00002643  _fdcSeekT |    00002645  A$fdc$199
     00002649  A$fdc$200 |    0000264B  A$fdc$200 |    0000264B  C$fdc.c$3
     0000264D  A$fdc$200 |    00002650  A$fdc$200 |    00002650  C$fdc.c$3
     00002653  A$fdc$201 |    00002653  C$fdc.c$3 |    00002656  A$fdc$201
     00002657  A$fdc$201 |    00002658  A$fdc$201 |    0000265B  A$fdc$201
     0000265C  A$fdc$201 |    0000265D  A$fdc$201 |    0000265E  A$fdc$202
     00002660  A$fdc$202 |    00002660  C$fdc.c$3 |    00002663  A$fdc$202
     00002664  A$fdc$202 |    00002667  A$fdc$203 |    00002667  C$fdc.c$3
     0000266A  A$fdc$203 |    0000266B  A$fdc$203 |    0000266E  A$fdc$203
     0000266F  A$fdc$203 |    0000266F  C$fdc.c$3 |    00002672  A$fdc$204
     00002672  C$fdc.c$3 |    00002675  A$fdc$204 |    00002678  A$fdc$204
     0000267A  A$fdc$204 |    0000267B  A$fdc$204 |    0000267C  A$fdc$204
     0000267D  A$fdc$204 |    0000267E  A$fdc$204 |    0000267F  A$fdc$205
     00002680  A$fdc$205 |    00002681  A$fdc$205 |    00002682  A$fdc$205
     00002683  A$fdc$205 |    00002684  A$fdc$205 |    00002685  A$fdc$205
     00002686  A$fdc$205 |    00002687  A$fdc$205 |    00002688  A$fdc$205
     00002689  A$fdc$206 |    00002689  C$fdc.c$3 |    0000268A  A$fdc$206
     0000268B  A$fdc$206 |    0000268E  A$fdc$206 |    0000268F  A$fdc$206
     00002692  A$fdc$206 |    00002693  A$fdc$206 |    00002695  A$fdc$207
     00002695  C$fdc.c$3 |    00002698  A$fdc$207 |    0000269A  A$fdc$207
     0000269D  A$fdc$207 |    0000269F  A$fdc$207 |    000026A0  A$fdc$207
     000026A1  A$fdc$207 |    000026A4  A$fdc$208 |    000026A5  A$fdc$208
     000026A6  A$fdc$208 |    000026A7  A$fdc$208 |    000026A8  A$fdc$208
     000026AB  A$fdc$208 |    000026AC  A$fdc$208 |    000026AD  A$fdc$208
     000026B0  A$fdc$208 |    000026B3  A$fdc$208 |    000026B4  A$fdc$209
     000026B5  A$fdc$209 |    000026B5  C$fdc.c$3 |    000026B8  A$fdc$209
     000026B9  A$fdc$209 |    000026BC  A$fdc$210 |    000026BC  C$fdc.c$3
     000026BF  A$fdc$210 |    000026C0  A$fdc$210 |    000026C3  A$fdc$210
     000026C4  A$fdc$210 |    000026C4  C$fdc.c$3 |    000026C6  A$fdc$211
     000026C6  C$fdc.c$3 |    000026C7  A$fdc$211 |    000026CA  A$fdc$211
     000026CB  A$fdc$211 |    000026CC  A$fdc$211 |    000026CF  A$fdc$211
     000026D0  A$fdc$211 |    000026D1  A$fdc$211 |    000026D2  A$fdc$212
     000026D3  A$fdc$212 |    000026D5  A$fdc$212 |    000026D5  C$fdc.c$3
     000026D6  A$fdc$212 |    000026D9  A$fdc$212 |    000026DC  A$fdc$212
     000026DD  A$fdc$212 |    000026E0  A$fdc$213 |    000026E1  A$fdc$213
     000026E2  A$fdc$213 |    000026E3  A$fdc$213 |    000026E4  A$fdc$213
     000026E6  A$fdc$213 |    000026E6  C$fdc.c$3 |    000026E9  A$fdc$213
     000026EA  A$fdc$214 |    000026ED  A$fdc$214 |    000026EE  A$fdc$214
     000026EE  C$fdc.c$3 |    000026F1  A$fdc$214 |    000026F2  A$fdc$214
     000026F4  A$fdc$215 |    000026F6  A$fdc$215 |    000026F6  C$fdc.c$3
     000026F6  XG$fdcSee |    000026F7  Ffdc$__st |    0000270F  Ffdc$__st
     00002736  Ffdc$__st |    00002758  Ffdc$__st |    00002788  A$fdc$218
     00002788  C$fdc.c$3 |    00002788  C$fdc.c$3 |    00002788  G$fdcReca
     00002788  _fdcRecal |    0000278B  A$fdc$218 |    0000278C  A$fdc$218
     0000278D  A$fdc$218 |    0000278E  A$fdc$219 |    0000278F  A$fdc$219
     00002792  A$fdc$219 |    00002793  A$fdc$219 |    00002794  A$fdc$219
     00002795  A$fdc$219 |    00002797  A$fdc$219 |    00002797  C$fdc.c$3
     0000279A  A$fdc$220 |    0000279B  A$fdc$220 |    0000279E  A$fdc$220
     0000279E  C$fdc.c$3 |    000027A1  A$fdc$220 |    000027A2  A$fdc$220
ASxxxx Linker V03.00 + NoICE + sdld,  page 35.
Hexadecimal  [32-Bits]

Area                       Addr        Size        Decimal Bytes (Attributes)
--------------------       ----        ----        ------- ----- ------------
_CODE                  00000000    000084DB =       34011. bytes (REL,CON)

        Value  Global            Value  Global            Value  Global    
        -----  ------            -----  ------            -----  ------    
     000027A5  A$fdc$220 |    000027A6  A$fdc$221 |    000027A6  C$fdc.c$3
     000027A7  A$fdc$221 |    000027A7  C$fdc.c$3 |    000027A8  A$fdc$221
     000027A9  A$fdc$221 |    000027AA  A$fdc$222 |    000027AD  A$fdc$222
     000027AE  A$fdc$222 |    000027AF  A$fdc$222 |    000027B0  A$fdc$222
     000027B1  A$fdc$222 |    000027B4  A$fdc$222 |    000027B5  A$fdc$223
     000027B5  C$fdc.c$3 |    000027B5  XG$fdcRec |    000027B6  Ffdc$__st
     000027DF  Ffdc$__st |    000027F3  A$fdc$225 |    000027F3  C$fdc.c$3
     000027F3  G$fdcFind |    000027F3  _fdcFindS |    000027F5  A$fdc$225
     000027F9  A$fdc$225 |    000027FB  A$fdc$225 |    000027FC  A$fdc$225
     000027FD  A$fdc$226 |    000027FD  C$fdc.c$4 |    00002800  A$fdc$226
     00002803  A$fdc$226 |    00002804  A$fdc$226 |    00002805  A$fdc$226
     00002807  A$fdc$226 |    00002808  A$fdc$226 |    00002809  A$fdc$226
     0000280A  A$fdc$226 |    0000280B  A$fdc$226 |    0000280C  A$fdc$227
     0000280D  A$fdc$227 |    0000280E  A$fdc$227 |    00002810  A$fdc$227
     00002811  A$fdc$227 |    00002812  A$fdc$227 |    00002813  A$fdc$227
     00002814  A$fdc$227 |    00002815  A$fdc$227 |    00002816  A$fdc$228
     00002818  A$fdc$228 |    00002818  C$fdc.c$4 |    00002819  A$fdc$228
     0000281A  A$fdc$228 |    0000281B  A$fdc$228 |    0000281C  A$fdc$228
     0000281D  A$fdc$228 |    0000281F  A$fdc$229 |    00002820  A$fdc$229
     00002820  C$fdc.c$4 |    00002823  A$fdc$229 |    00002826  A$fdc$229
     00002827  A$fdc$229 |    00002828  A$fdc$229 |    0000282B  A$fdc$229
     0000282C  A$fdc$230 |    0000282E  A$fdc$230 |    00002831  A$fdc$230
     00002834  A$fdc$230 |    00002835  A$fdc$230 |    00002838  A$fdc$230
     00002839  A$fdc$230 |    0000283B  A$fdc$230 |    0000283C  A$fdc$230
     0000283D  A$fdc$230 |    0000283E  A$fdc$231 |    0000283F  A$fdc$231
     00002841  A$fdc$231 |    00002841  C$fdc.c$4 |    00002842  A$fdc$231
     00002844  A$fdc$232 |    00002844  C$fdc.c$4 |    00002847  A$fdc$232
     00002849  A$fdc$232 |    0000284B  A$fdc$233 |    0000284B  C$fdc.c$4
     0000284B  XG$fdcFin |    0000284C  A$fdc$234 |    0000284C  C$fdc.c$4
     0000284C  G$fdcProc |    0000284C  _fdcProce |    0000284E  A$fdc$234
     00002852  A$fdc$234 |    00002854  A$fdc$234 |    00002857  A$fdc$234
     00002858  A$fdc$234 |    00002859  A$fdc$235 |    00002859  C$fdc.c$4
     0000285B  A$fdc$235 |    0000285C  A$fdc$235 |    0000285D  A$fdc$235
     00002860  A$fdc$235 |    00002861  A$fdc$236 |    00002861  C$fdc.c$4
     00002862  A$fdc$236 |    00002865  A$fdc$236 |    00002866  A$fdc$236
     00002869  A$fdc$236 |    0000286A  A$fdc$236 |    0000286B  A$fdc$236
     0000286B  C$fdc.c$4 |    0000286D  A$fdc$237 |    00002870  A$fdc$237
     00002870  C$fdc.c$4 |    00002871  A$fdc$237 |    00002873  A$fdc$237
     00002876  A$fdc$238 |    00002876  C$fdc.c$4 |    00002878  A$fdc$238
     00002879  A$fdc$238 |    0000287A  A$fdc$238 |    0000287D  A$fdc$238
     0000287E  A$fdc$238 |    00002881  A$fdc$238 |    00002881  C$fdc.c$4
     00002883  A$fdc$239 |    00002884  A$fdc$239 |    00002885  A$fdc$239
     00002888  A$fdc$239 |    00002889  A$fdc$239 |    0000288C  A$fdc$239
     0000288C  C$fdc.c$4 |    0000288E  A$fdc$239 |    0000288F  A$fdc$240
     00002890  A$fdc$240 |    00002893  A$fdc$240 |    00002894  A$fdc$240
     00002894  C$fdc.c$4 |    00002896  A$fdc$240 |    00002897  A$fdc$240
     00002898  A$fdc$240 |    0000289B  A$fdc$241 |    0000289C  A$fdc$241
     0000289F  A$fdc$241 |    0000289F  C$fdc.c$4 |    000028A1  A$fdc$241
     000028A2  A$fdc$241 |    000028A3  A$fdc$241 |    000028A6  A$fdc$241
     000028A7  A$fdc$242 |    000028AA  A$fdc$242 |    000028AA  C$fdc.c$4
     000028AD  A$fdc$242 |    000028AF  A$fdc$242 |    000028B2  A$fdc$243
ASxxxx Linker V03.00 + NoICE + sdld,  page 36.
Hexadecimal  [32-Bits]

Area                       Addr        Size        Decimal Bytes (Attributes)
--------------------       ----        ----        ------- ----- ------------
_CODE                  00000000    000084DB =       34011. bytes (REL,CON)

        Value  Global            Value  Global            Value  Global    
        -----  ------            -----  ------            -----  ------    
     000028B2  C$fdc.c$4 |    000028B5  A$fdc$243 |    000028B6  A$fdc$243
     000028B7  A$fdc$243 |    000028B9  A$fdc$243 |    000028BB  A$fdc$243
     000028BE  A$fdc$243 |    000028BE  C$fdc.c$4 |    000028C0  A$fdc$244
     000028C1  A$fdc$244 |    000028C2  A$fdc$244 |    000028C5  A$fdc$244
     000028C6  A$fdc$244 |    000028C9  A$fdc$244 |    000028C9  C$fdc.c$4
     000028CC  A$fdc$244 |    000028CF  A$fdc$245 |    000028D1  A$fdc$245
     000028D2  A$fdc$245 |    000028D3  A$fdc$245 |    000028D4  A$fdc$245
     000028D5  A$fdc$245 |    000028D6  A$fdc$245 |    000028D7  A$fdc$245
     000028D8  A$fdc$245 |    000028D9  A$fdc$245 |    000028DA  A$fdc$246
     000028DB  A$fdc$246 |    000028DC  A$fdc$246 |    000028DD  A$fdc$246
     000028DE  A$fdc$246 |    000028DF  A$fdc$246 |    000028E2  A$fdc$246
     000028E5  A$fdc$247 |    000028E5  C$fdc.c$4 |    000028E8  A$fdc$247
     000028E9  A$fdc$247 |    000028EA  A$fdc$247 |    000028EB  A$fdc$247
     000028EC  A$fdc$247 |    000028ED  A$fdc$247 |    000028EE  A$fdc$247
     000028EF  A$fdc$247 |    000028F0  A$fdc$247 |    000028F3  A$fdc$248
     000028F6  A$fdc$248 |    000028F8  A$fdc$248 |    000028FB  A$fdc$248
     000028FE  A$fdc$248 |    00002901  A$fdc$248 |    00002904  A$fdc$248
     00002907  A$fdc$248 |    0000290A  A$fdc$249 |    0000290A  C$fdc.c$4
     0000290D  A$fdc$249 |    0000290F  A$fdc$249 |    00002911  A$fdc$249
     00002914  A$fdc$249 |    00002916  A$fdc$249 |    00002918  A$fdc$249
     0000291B  A$fdc$249 |    0000291D  A$fdc$249 |    0000291F  A$fdc$250
     00002922  A$fdc$250 |    00002924  A$fdc$250 |    00002927  A$fdc$250
     0000292A  A$fdc$250 |    0000292C  A$fdc$250 |    0000292F  A$fdc$250
     00002932  A$fdc$250 |    00002934  A$fdc$250 |    00002937  A$fdc$250
     0000293A  A$fdc$251 |    0000293C  A$fdc$251 |    0000293F  A$fdc$251
     00002942  A$fdc$251 |    00002944  A$fdc$251 |    00002947  A$fdc$251
     0000294A  A$fdc$251 |    0000294C  A$fdc$251 |    0000294F  A$fdc$251
     00002952  A$fdc$251 |    00002954  A$fdc$252 |    00002957  A$fdc$252
     0000295A  A$fdc$252 |    0000295C  A$fdc$252 |    0000295F  A$fdc$252
     00002962  A$fdc$252 |    00002964  A$fdc$252 |    00002967  A$fdc$252
     0000296A  A$fdc$253 |    0000296A  C$fdc.c$4 |    0000296A  C$fdc.c$4
     0000296D  A$fdc$253 |    0000296E  A$fdc$253 |    00002971  A$fdc$253
     00002972  A$fdc$254 |    00002972  C$fdc.c$4 |    00002975  A$fdc$255
     00002975  C$fdc.c$4 |    00002975  C$fdc.c$4 |    00002978  A$fdc$255
     00002979  A$fdc$255 |    0000297C  A$fdc$255 |    0000297D  A$fdc$255
     0000297D  C$fdc.c$4 |    00002980  A$fdc$256 |    00002980  C$fdc.c$4
     00002980  C$fdc.c$4 |    00002983  A$fdc$256 |    00002984  A$fdc$256
     00002985  A$fdc$256 |    00002988  A$fdc$256 |    00002989  A$fdc$257
     0000298A  A$fdc$257 |    0000298B  A$fdc$257 |    0000298D  A$fdc$257
     0000298D  C$fdc.c$4 |    00002990  A$fdc$257 |    00002991  A$fdc$257
     00002994  A$fdc$258 |    00002994  C$fdc.c$4 |    00002997  A$fdc$258
     00002998  A$fdc$258 |    0000299B  A$fdc$258 |    0000299C  A$fdc$258
     0000299F  A$fdc$259 |    0000299F  C$fdc.c$4 |    000029A2  A$fdc$259
     000029A5  A$fdc$259 |    000029A8  A$fdc$259 |    000029A9  A$fdc$259
     000029AA  A$fdc$259 |    000029AB  A$fdc$259 |    000029AD  A$fdc$260
     000029AD  C$fdc.c$4 |    000029B0  A$fdc$260 |    000029B1  A$fdc$260
     000029B4  A$fdc$260 |    000029B4  C$fdc.c$4 |    000029B7  A$fdc$260
     000029B8  A$fdc$260 |    000029BB  A$fdc$261 |    000029BC  A$fdc$261
     000029BF  A$fdc$261 |    000029BF  C$fdc.c$4 |    000029C2  A$fdc$261
     000029C4  A$fdc$261 |    000029C7  A$fdc$261 |    000029CA  A$fdc$262
     000029CE  A$fdc$262 |    000029D1  A$fdc$262 |    000029D3  A$fdc$262
ASxxxx Linker V03.00 + NoICE + sdld,  page 37.
Hexadecimal  [32-Bits]

Area                       Addr        Size        Decimal Bytes (Attributes)
--------------------       ----        ----        ------- ----- ------------
_CODE                  00000000    000084DB =       34011. bytes (REL,CON)

        Value  Global            Value  Global            Value  Global    
        -----  ------            -----  ------            -----  ------    
     000029D4  A$fdc$262 |    000029D5  A$fdc$262 |    000029D8  A$fdc$262
     000029D9  A$fdc$262 |    000029DC  A$fdc$262 |    000029DF  A$fdc$262
     000029E0  A$fdc$263 |    000029E1  A$fdc$263 |    000029E4  A$fdc$263
     000029E5  A$fdc$263 |    000029E6  A$fdc$263 |    000029E9  A$fdc$263
     000029EC  A$fdc$263 |    000029ED  A$fdc$263 |    000029EE  A$fdc$264
     000029EE  C$fdc.c$4 |    000029F1  A$fdc$264 |    000029F2  A$fdc$264
     000029F5  A$fdc$264 |    000029F6  A$fdc$264 |    000029F6  C$fdc.c$4
     000029F9  A$fdc$264 |    000029FC  A$fdc$265 |    000029FD  A$fdc$265
     000029FE  A$fdc$265 |    000029FF  A$fdc$265 |    00002A00  A$fdc$265
     00002A03  A$fdc$265 |    00002A04  A$fdc$265 |    00002A05  A$fdc$265
     00002A08  A$fdc$265 |    00002A0B  A$fdc$265 |    00002A0C  A$fdc$266
     00002A0D  A$fdc$266 |    00002A0F  A$fdc$266 |    00002A0F  C$fdc.c$4
     00002A12  A$fdc$266 |    00002A13  A$fdc$266 |    00002A14  A$fdc$266
     00002A15  A$fdc$266 |    00002A16  A$fdc$267 |    00002A18  A$fdc$267
     00002A19  A$fdc$267 |    00002A1A  A$fdc$267 |    00002A1D  A$fdc$267
     00002A1E  A$fdc$267 |    00002A1F  A$fdc$267 |    00002A1F  C$fdc.c$4
     00002A22  A$fdc$268 |    00002A23  A$fdc$268 |    00002A24  A$fdc$268
     00002A25  A$fdc$268 |    00002A26  A$fdc$268 |    00002A27  A$fdc$268
     00002A28  A$fdc$268 |    00002A29  A$fdc$268 |    00002A2A  A$fdc$268
     00002A2C  A$fdc$268 |    00002A2D  A$fdc$269 |    00002A2E  A$fdc$269
     00002A31  A$fdc$269 |    00002A32  A$fdc$269 |    00002A33  A$fdc$269
     00002A33  C$fdc.c$4 |    00002A36  A$fdc$269 |    00002A37  A$fdc$269
     00002A39  A$fdc$270 |    00002A3C  A$fdc$270 |    00002A3F  A$fdc$270
     00002A40  A$fdc$270 |    00002A41  A$fdc$270 |    00002A42  A$fdc$270
     00002A43  A$fdc$270 |    00002A44  A$fdc$270 |    00002A45  A$fdc$270
     00002A46  A$fdc$270 |    00002A47  A$fdc$271 |    00002A48  A$fdc$271
     00002A49  A$fdc$271 |    00002A4C  A$fdc$271 |    00002A4D  A$fdc$271
     00002A4F  A$fdc$271 |    00002A50  A$fdc$271 |    00002A51  A$fdc$271
     00002A53  A$fdc$271 |    00002A54  A$fdc$271 |    00002A55  A$fdc$272
     00002A58  A$fdc$272 |    00002A5B  A$fdc$272 |    00002A5C  A$fdc$272
     00002A5D  A$fdc$272 |    00002A5D  C$fdc.c$4 |    00002A60  A$fdc$272
     00002A61  A$fdc$272 |    00002A64  A$fdc$273 |    00002A65  A$fdc$273
     00002A65  C$fdc.c$4 |    00002A68  A$fdc$273 |    00002A6A  A$fdc$273
     00002A6B  A$fdc$273 |    00002A6E  A$fdc$273 |    00002A70  A$fdc$273
     00002A71  A$fdc$274 |    00002A73  A$fdc$274 |    00002A73  C$fdc.c$4
     00002A76  A$fdc$274 |    00002A78  A$fdc$274 |    00002A79  A$fdc$274
     00002A7C  A$fdc$274 |    00002A7E  A$fdc$274 |    00002A7F  A$fdc$275
     00002A81  A$fdc$275 |    00002A84  A$fdc$275 |    00002A84  C$fdc.c$4
     00002A87  A$fdc$275 |    00002A88  A$fdc$275 |    00002A8B  A$fdc$276
     00002A8B  C$fdc.c$4 |    00002A8E  A$fdc$276 |    00002A8F  A$fdc$276
     00002A92  A$fdc$276 |    00002A93  A$fdc$276 |    00002A93  C$fdc.c$4
     00002A96  A$fdc$277 |    00002A96  C$fdc.c$4 |    00002A96  C$fdc.c$4
     00002A99  A$fdc$277 |    00002A9A  A$fdc$277 |    00002A9B  A$fdc$278
     00002A9E  A$fdc$278 |    00002A9F  A$fdc$278 |    00002AA0  A$fdc$278
     00002AA1  A$fdc$278 |    00002AA3  A$fdc$278 |    00002AA3  C$fdc.c$4
     00002AA6  A$fdc$278 |    00002AA7  A$fdc$279 |    00002AAA  A$fdc$279
     00002AAA  C$fdc.c$4 |    00002AAD  A$fdc$279 |    00002AAE  A$fdc$279
     00002AB1  A$fdc$279 |    00002AB2  A$fdc$279 |    00002AB5  A$fdc$280
     00002AB5  C$fdc.c$4 |    00002AB8  A$fdc$280 |    00002ABA  A$fdc$280
     00002ABD  A$fdc$280 |    00002AC0  A$fdc$280 |    00002AC4  A$fdc$280
     00002AC7  A$fdc$280 |    00002AC9  A$fdc$281 |    00002ACA  A$fdc$281
ASxxxx Linker V03.00 + NoICE + sdld,  page 38.
Hexadecimal  [32-Bits]

Area                       Addr        Size        Decimal Bytes (Attributes)
--------------------       ----        ----        ------- ----- ------------
_CODE                  00000000    000084DB =       34011. bytes (REL,CON)

        Value  Global            Value  Global            Value  Global    
        -----  ------            -----  ------            -----  ------    
     00002ACB  A$fdc$281 |    00002ACE  A$fdc$281 |    00002ACF  A$fdc$281
     00002AD2  A$fdc$281 |    00002AD5  A$fdc$281 |    00002AD6  A$fdc$281
     00002AD7  A$fdc$281 |    00002ADA  A$fdc$281 |    00002ADB  A$fdc$282
     00002ADC  A$fdc$282 |    00002ADF  A$fdc$282 |    00002AE2  A$fdc$282
     00002AE3  A$fdc$282 |    00002AE4  A$fdc$282 |    00002AE4  C$fdc.c$4
     00002AE7  A$fdc$282 |    00002AE8  A$fdc$283 |    00002AEB  A$fdc$283
     00002AEC  A$fdc$283 |    00002AEC  C$fdc.c$4 |    00002AEF  A$fdc$283
     00002AF2  A$fdc$283 |    00002AF3  A$fdc$283 |    00002AF4  A$fdc$283
     00002AF5  A$fdc$284 |    00002AF6  A$fdc$284 |    00002AF9  A$fdc$284
     00002AFA  A$fdc$284 |    00002AFB  A$fdc$284 |    00002AFC  A$fdc$284
     00002AFD  A$fdc$284 |    00002AFE  A$fdc$284 |    00002AFF  A$fdc$284
     00002B01  A$fdc$285 |    00002B01  C$fdc.c$5 |    00002B02  A$fdc$285
     00002B05  A$fdc$285 |    00002B06  A$fdc$285 |    00002B07  A$fdc$285
     00002B09  A$fdc$285 |    00002B0A  A$fdc$285 |    00002B0B  A$fdc$285
     00002B0C  A$fdc$286 |    00002B0D  A$fdc$286 |    00002B0E  A$fdc$286
     00002B0F  A$fdc$286 |    00002B10  A$fdc$286 |    00002B11  A$fdc$286
     00002B12  A$fdc$286 |    00002B13  A$fdc$286 |    00002B14  A$fdc$286
     00002B15  A$fdc$286 |    00002B18  A$fdc$287 |    00002B19  A$fdc$287
     00002B1B  A$fdc$287 |    00002B1C  A$fdc$287 |    00002B1D  A$fdc$287
     00002B1F  A$fdc$287 |    00002B20  A$fdc$287 |    00002B21  A$fdc$287
     00002B24  A$fdc$287 |    00002B27  A$fdc$287 |    00002B28  A$fdc$288
     00002B29  A$fdc$288 |    00002B29  C$fdc.c$5 |    00002B2C  A$fdc$288
     00002B2D  A$fdc$288 |    00002B2E  A$fdc$288 |    00002B2F  A$fdc$288
     00002B30  A$fdc$288 |    00002B32  A$fdc$289 |    00002B33  A$fdc$289
     00002B34  A$fdc$289 |    00002B37  A$fdc$289 |    00002B38  A$fdc$289
     00002B39  A$fdc$289 |    00002B39  C$fdc.c$5 |    00002B3C  A$fdc$289
     00002B3D  A$fdc$290 |    00002B3E  A$fdc$290 |    00002B3F  A$fdc$290
     00002B40  A$fdc$290 |    00002B41  A$fdc$290 |    00002B42  A$fdc$290
     00002B43  A$fdc$290 |    00002B44  A$fdc$290 |    00002B46  A$fdc$290
     00002B47  A$fdc$290 |    00002B48  A$fdc$291 |    00002B4B  A$fdc$291
     00002B4C  A$fdc$291 |    00002B4C  C$fdc.c$5 |    00002B4F  A$fdc$291
     00002B50  A$fdc$291 |    00002B53  A$fdc$291 |    00002B54  A$fdc$291
     00002B57  A$fdc$292 |    00002B57  C$fdc.c$5 |    00002B5A  A$fdc$292
     00002B5B  A$fdc$292 |    00002B5E  A$fdc$293 |    00002B5E  C$fdc.c$5
     00002B61  A$fdc$293 |    00002B62  A$fdc$293 |    00002B65  A$fdc$293
     00002B66  A$fdc$293 |    00002B66  C$fdc.c$5 |    00002B69  A$fdc$294
     00002B69  C$fdc.c$5 |    00002B69  C$fdc.c$5 |    00002B6C  A$fdc$294
     00002B6D  A$fdc$294 |    00002B6E  A$fdc$294 |    00002B71  A$fdc$294
     00002B72  A$fdc$295 |    00002B72  C$fdc.c$5 |    00002B75  A$fdc$296
     00002B75  C$fdc.c$5 |    00002B75  C$fdc.c$5 |    00002B78  A$fdc$296
     00002B79  A$fdc$296 |    00002B7A  A$fdc$296 |    00002B7D  A$fdc$296
     00002B7E  A$fdc$296 |    00002B7F  A$fdc$296 |    00002B80  A$fdc$296
     00002B82  A$fdc$297 |    00002B82  C$fdc.c$5 |    00002B85  A$fdc$297
     00002B86  A$fdc$297 |    00002B89  A$fdc$297 |    00002B89  C$fdc.c$5
     00002B8C  A$fdc$297 |    00002B8D  A$fdc$298 |    00002B90  A$fdc$298
     00002B91  A$fdc$298 |    00002B94  A$fdc$298 |    00002B94  C$fdc.c$5
     00002B97  A$fdc$298 |    00002B98  A$fdc$298 |    00002B9B  A$fdc$299
     00002B9C  A$fdc$299 |    00002B9C  C$fdc.c$5 |    00002B9F  A$fdc$300
     00002B9F  C$fdc.c$5 |    00002B9F  C$fdc.c$5 |    00002BA2  A$fdc$300
     00002BA3  A$fdc$300 |    00002BA4  A$fdc$300 |    00002BA7  A$fdc$300
     00002BA8  A$fdc$300 |    00002BA9  A$fdc$300 |    00002BAA  A$fdc$300
ASxxxx Linker V03.00 + NoICE + sdld,  page 39.
Hexadecimal  [32-Bits]

Area                       Addr        Size        Decimal Bytes (Attributes)
--------------------       ----        ----        ------- ----- ------------
_CODE                  00000000    000084DB =       34011. bytes (REL,CON)

        Value  Global            Value  Global            Value  Global    
        -----  ------            -----  ------            -----  ------    
     00002BAC  A$fdc$301 |    00002BAC  C$fdc.c$5 |    00002BAF  A$fdc$301
     00002BB0  A$fdc$301 |    00002BB3  A$fdc$301 |    00002BB3  C$fdc.c$5
     00002BB6  A$fdc$302 |    00002BB7  A$fdc$302 |    00002BBA  A$fdc$302
     00002BBB  A$fdc$302 |    00002BBE  A$fdc$302 |    00002BBE  C$fdc.c$5
     00002BC1  A$fdc$302 |    00002BC4  A$fdc$303 |    00002BC7  A$fdc$303
     00002BC8  A$fdc$303 |    00002BC9  A$fdc$303 |    00002BCA  A$fdc$303
     00002BCC  A$fdc$303 |    00002BCC  C$fdc.c$5 |    00002BCF  A$fdc$303
     00002BD2  A$fdc$304 |    00002BD5  A$fdc$304 |    00002BD8  A$fdc$304
     00002BDB  A$fdc$304 |    00002BDE  A$fdc$304 |    00002BE1  A$fdc$304
     00002BE4  A$fdc$304 |    00002BE4  C$fdc.c$5 |    00002BE7  A$fdc$305
     00002BEA  A$fdc$305 |    00002BED  A$fdc$305 |    00002BF0  A$fdc$305
     00002BF3  A$fdc$305 |    00002BF6  A$fdc$305 |    00002BF7  A$fdc$305
     00002BF8  A$fdc$305 |    00002BFB  A$fdc$305 |    00002BFC  A$fdc$305
     00002BFE  A$fdc$306 |    00002BFE  C$fdc.c$5 |    00002C01  A$fdc$306
     00002C04  A$fdc$306 |    00002C07  A$fdc$306 |    00002C0A  A$fdc$306
     00002C0D  A$fdc$306 |    00002C10  A$fdc$306 |    00002C11  A$fdc$307
     00002C12  A$fdc$307 |    00002C13  A$fdc$307 |    00002C14  A$fdc$307
     00002C16  A$fdc$307 |    00002C16  C$fdc.c$5 |    00002C18  A$fdc$307
     00002C1A  A$fdc$308 |    00002C1A  C$fdc.c$5 |    00002C1C  A$fdc$308
     00002C1C  C$fdc.c$5 |    00002C1D  A$fdc$309 |    00002C1E  A$fdc$309
     00002C1F  A$fdc$309 |    00002C21  A$fdc$309 |    00002C22  A$fdc$309
     00002C23  A$fdc$309 |    00002C26  A$fdc$309 |    00002C27  A$fdc$309
     00002C28  A$fdc$310 |    00002C28  C$fdc.c$5 |    00002C29  A$fdc$310
     00002C2B  A$fdc$310 |    00002C2E  A$fdc$310 |    00002C30  A$fdc$310
     00002C31  A$fdc$310 |    00002C32  A$fdc$310 |    00002C35  A$fdc$310
     00002C38  A$fdc$310 |    00002C39  A$fdc$311 |    00002C3A  A$fdc$311
     00002C3D  A$fdc$311 |    00002C40  A$fdc$311 |    00002C41  A$fdc$311
     00002C42  A$fdc$311 |    00002C42  C$fdc.c$5 |    00002C45  A$fdc$311
     00002C46  A$fdc$312 |    00002C49  A$fdc$312 |    00002C4A  A$fdc$312
     00002C4A  C$fdc.c$5 |    00002C4D  A$fdc$313 |    00002C4D  C$fdc.c$5
     00002C4D  C$fdc.c$5 |    00002C50  A$fdc$313 |    00002C51  A$fdc$313
     00002C52  A$fdc$313 |    00002C55  A$fdc$313 |    00002C56  A$fdc$313
     00002C57  A$fdc$313 |    00002C58  A$fdc$314 |    00002C5A  A$fdc$314
     00002C5A  C$fdc.c$5 |    00002C5D  A$fdc$314 |    00002C5E  A$fdc$314
     00002C61  A$fdc$315 |    00002C61  C$fdc.c$5 |    00002C64  A$fdc$315
     00002C65  A$fdc$315 |    00002C68  A$fdc$315 |    00002C69  A$fdc$315
     00002C6C  A$fdc$315 |    00002C6C  C$fdc.c$5 |    00002C6F  A$fdc$316
     00002C72  A$fdc$316 |    00002C75  A$fdc$316 |    00002C76  A$fdc$316
     00002C77  A$fdc$316 |    00002C78  A$fdc$316 |    00002C7A  A$fdc$316
     00002C7A  C$fdc.c$5 |    00002C7D  A$fdc$317 |    00002C7E  A$fdc$317
     00002C81  A$fdc$317 |    00002C81  C$fdc.c$5 |    00002C84  A$fdc$317
     00002C85  A$fdc$317 |    00002C88  A$fdc$317 |    00002C89  A$fdc$317
     00002C8C  A$fdc$318 |    00002C8C  C$fdc.c$5 |    00002C8E  A$fdc$318
     00002C8F  A$fdc$318 |    00002C90  A$fdc$318 |    00002C93  A$fdc$318
     00002C94  A$fdc$318 |    00002C95  A$fdc$319 |    00002C97  A$fdc$319
     00002C9A  A$fdc$319 |    00002C9D  A$fdc$319 |    00002CA1  A$fdc$319
     00002CA4  A$fdc$319 |    00002CA6  A$fdc$319 |    00002CA7  A$fdc$319
     00002CA8  A$fdc$319 |    00002CAB  A$fdc$319 |    00002CAC  A$fdc$320
     00002CAF  A$fdc$320 |    00002CB2  A$fdc$320 |    00002CB3  A$fdc$320
     00002CB4  A$fdc$320 |    00002CB7  A$fdc$320 |    00002CB8  A$fdc$320
     00002CB9  A$fdc$320 |    00002CBC  A$fdc$320 |    00002CBF  A$fdc$320
ASxxxx Linker V03.00 + NoICE + sdld,  page 40.
Hexadecimal  [32-Bits]

Area                       Addr        Size        Decimal Bytes (Attributes)
--------------------       ----        ----        ------- ----- ------------
_CODE                  00000000    000084DB =       34011. bytes (REL,CON)

        Value  Global            Value  Global            Value  Global    
        -----  ------            -----  ------            -----  ------    
     00002CC0  A$fdc$321 |    00002CC1  A$fdc$321 |    00002CC1  C$fdc.c$5
     00002CC4  A$fdc$321 |    00002CC5  A$fdc$321 |    00002CC8  A$fdc$321
     00002CC9  A$fdc$322 |    00002CC9  C$fdc.c$5 |    00002CCC  A$fdc$322
     00002CCE  A$fdc$322 |    00002CCF  A$fdc$322 |    00002CD2  A$fdc$322
     00002CD4  A$fdc$322 |    00002CD5  A$fdc$322 |    00002CD7  A$fdc$323
     00002CD7  C$fdc.c$5 |    00002CDA  A$fdc$323 |    00002CDC  A$fdc$323
     00002CDD  A$fdc$323 |    00002CE0  A$fdc$323 |    00002CE2  A$fdc$323
     00002CE3  A$fdc$323 |    00002CE5  A$fdc$324 |    00002CE5  C$fdc.c$5
     00002CE6  A$fdc$324 |    00002CE7  A$fdc$324 |    00002CE9  A$fdc$324
     00002CE9  C$fdc.c$5 |    00002CEA  A$fdc$324 |    00002CEB  A$fdc$324
     00002CEC  A$fdc$325 |    00002CEF  A$fdc$325 |    00002CF0  A$fdc$325
     00002CF0  C$fdc.c$5 |    00002CF3  A$fdc$325 |    00002CF6  A$fdc$325
     00002CF7  A$fdc$325 |    00002CF8  A$fdc$325 |    00002CF9  A$fdc$326
     00002CFA  A$fdc$326 |    00002CFD  A$fdc$326 |    00002CFF  A$fdc$326
     00002CFF  C$fdc.c$5 |    00002D02  A$fdc$326 |    00002D04  A$fdc$326
     00002D07  A$fdc$326 |    00002D0A  A$fdc$327 |    00002D0C  A$fdc$327
     00002D0F  A$fdc$327 |    00002D13  A$fdc$327 |    00002D16  A$fdc$327
     00002D19  A$fdc$327 |    00002D1C  A$fdc$328 |    00002D1C  C$fdc.c$5
     00002D1E  A$fdc$328 |    00002D1F  A$fdc$328 |    00002D20  A$fdc$328
     00002D23  A$fdc$328 |    00002D24  A$fdc$328 |    00002D27  A$fdc$328
     00002D27  C$fdc.c$5 |    00002D29  A$fdc$329 |    00002D2A  A$fdc$329
     00002D2B  A$fdc$329 |    00002D2E  A$fdc$329 |    00002D2F  A$fdc$329
     00002D32  A$fdc$329 |    00002D32  C$fdc.c$5 |    00002D34  A$fdc$329
     00002D35  A$fdc$330 |    00002D36  A$fdc$330 |    00002D39  A$fdc$330
     00002D3A  A$fdc$330 |    00002D3B  A$fdc$330 |    00002D3B  C$fdc.c$5
     00002D3C  A$fdc$330 |    00002D3E  A$fdc$330 |    00002D3F  A$fdc$331
     00002D40  A$fdc$331 |    00002D43  A$fdc$331 |    00002D44  A$fdc$331
     00002D45  A$fdc$331 |    00002D45  C$fdc.c$5 |    00002D48  A$fdc$331
     00002D49  A$fdc$331 |    00002D4A  A$fdc$332 |    00002D4B  A$fdc$332
     00002D4C  A$fdc$332 |    00002D4D  A$fdc$332 |    00002D50  A$fdc$332
     00002D51  A$fdc$332 |    00002D53  A$fdc$332 |    00002D56  A$fdc$332
     00002D57  A$fdc$333 |    00002D57  C$fdc.c$5 |    00002D58  A$fdc$333
     00002D59  A$fdc$333 |    00002D5A  A$fdc$333 |    00002D5B  A$fdc$333
     00002D5B  C$fdc.c$5 |    00002D5C  A$fdc$333 |    00002D5D  A$fdc$334
     00002D5E  A$fdc$334 |    00002D5F  A$fdc$334 |    00002D62  A$fdc$334
     00002D63  A$fdc$334 |    00002D63  C$fdc.c$5 |    00002D66  A$fdc$334
     00002D67  A$fdc$335 |    00002D67  C$fdc.c$5 |    00002D68  A$fdc$335
     00002D6B  A$fdc$335 |    00002D6C  A$fdc$335 |    00002D6D  A$fdc$335
     00002D6E  A$fdc$335 |    00002D6F  A$fdc$335 |    00002D70  A$fdc$335
     00002D71  A$fdc$336 |    00002D72  A$fdc$336 |    00002D73  A$fdc$336
     00002D74  A$fdc$336 |    00002D75  A$fdc$336 |    00002D76  A$fdc$336
     00002D77  A$fdc$336 |    00002D78  A$fdc$336 |    00002D79  A$fdc$336
     00002D7A  A$fdc$336 |    00002D7B  A$fdc$337 |    00002D7E  A$fdc$337
     00002D7F  A$fdc$337 |    00002D82  A$fdc$337 |    00002D85  A$fdc$337
     00002D86  A$fdc$337 |    00002D87  A$fdc$337 |    00002D88  A$fdc$337
     00002D8A  A$fdc$337 |    00002D8B  A$fdc$337 |    00002D8C  A$fdc$338
     00002D8F  A$fdc$338 |    00002D92  A$fdc$338 |    00002D93  A$fdc$338
     00002D94  A$fdc$338 |    00002D94  C$fdc.c$5 |    00002D97  A$fdc$338
     00002D9A  A$fdc$339 |    00002D9A  C$fdc.c$6 |    00002D9D  A$fdc$339
     00002D9E  A$fdc$339 |    00002DA1  A$fdc$339 |    00002DA2  A$fdc$340
     00002DA2  C$fdc.c$6 |    00002DA4  A$fdc$340 |    00002DA4  C$fdc.c$6
ASxxxx Linker V03.00 + NoICE + sdld,  page 41.
Hexadecimal  [32-Bits]

Area                       Addr        Size        Decimal Bytes (Attributes)
--------------------       ----        ----        ------- ----- ------------
_CODE                  00000000    000084DB =       34011. bytes (REL,CON)

        Value  Global            Value  Global            Value  Global    
        -----  ------            -----  ------            -----  ------    
     00002DA4  C$fdc.c$6 |    00002DA7  A$fdc$340 |    00002DAA  A$fdc$341
     00002DAB  A$fdc$341 |    00002DAE  A$fdc$341 |    00002DAF  A$fdc$341
     00002DAF  C$fdc.c$6 |    00002DB1  A$fdc$342 |    00002DB1  C$fdc.c$6
     00002DB1  C$fdc.c$6 |    00002DB4  A$fdc$342 |    00002DB6  A$fdc$342
     00002DB7  A$fdc$342 |    00002DBA  A$fdc$342 |    00002DBD  A$fdc$342
     00002DBE  A$fdc$343 |    00002DBF  A$fdc$343 |    00002DC2  A$fdc$343
     00002DC5  A$fdc$343 |    00002DC6  A$fdc$343 |    00002DC7  A$fdc$343
     00002DC7  C$fdc.c$6 |    00002DCA  A$fdc$343 |    00002DCB  A$fdc$344
     00002DCE  A$fdc$344 |    00002DCF  A$fdc$344 |    00002DCF  C$fdc.c$6
     00002DD1  A$fdc$345 |    00002DD1  C$fdc.c$6 |    00002DD1  C$fdc.c$6
     00002DD4  A$fdc$345 |    00002DD6  A$fdc$345 |    00002DD7  A$fdc$345
     00002DDA  A$fdc$345 |    00002DDD  A$fdc$345 |    00002DDE  A$fdc$345
     00002DDF  A$fdc$346 |    00002DE2  A$fdc$346 |    00002DE5  A$fdc$346
     00002DE6  A$fdc$346 |    00002DE7  A$fdc$346 |    00002DE7  C$fdc.c$6
     00002DEA  A$fdc$346 |    00002DEB  A$fdc$346 |    00002DEE  A$fdc$347
     00002DEF  A$fdc$347 |    00002DEF  C$fdc.c$6 |    00002DEF  C$fdc.c$6
     00002DF2  A$fdc$347 |    00002DF3  A$fdc$348 |    00002DF6  A$fdc$348
     00002DF7  A$fdc$348 |    00002DF9  A$fdc$348 |    00002DFB  A$fdc$349
     00002DFB  C$fdc.c$6 |    00002DFB  XG$fdcPro |    00002DFC  Ffdc$__st
     00002E09  Ffdc$__st |    00002E1A  Ffdc$__st |    00002E2E  Ffdc$__st
     00002E58  Ffdc$__st |    00002E7A  Ffdc$__st |    00002E9A  Ffdc$__st
     00002EC8  Ffdc$__st |    00002EF1  Ffdc$__st |    00002F10  Ffdc$__st
     00002F3D  Ffdc$__st |    00002F64  Ffdc$__st |    00002F78  Ffdc$__st
     00002F9D  Ffdc$__st |    00002FB4  Ffdc$__st |    00002FD8  Ffdc$__st
     00002FFB  Ffdc$__st |    0000301D  Ffdc$__st |    0000303C  Ffdc$__st
     00003054  A$fdc$357 |    00003054  C$fdc.c$6 |    00003054  G$fdcStre
     00003054  _fdcStrea |    00003056  A$fdc$357 |    0000305A  A$fdc$358
     0000305C  A$fdc$358 |    0000305C  C$fdc.c$6 |    00003060  A$fdc$358
     00003063  A$fdc$358 |    00003064  A$fdc$358 |    00003066  A$fdc$358
     00003069  A$fdc$358 |    0000306A  A$fdc$359 |    0000306C  A$fdc$359
     0000306F  A$fdc$359 |    00003072  A$fdc$359 |    00003072  C$fdc.c$6
     00003073  A$fdc$359 |    00003076  A$fdc$360 |    00003079  A$fdc$360
     0000307C  A$fdc$360 |    0000307E  A$fdc$360 |    00003081  A$fdc$360
     00003081  C$fdc.c$6 |    00003083  A$fdc$360 |    00003086  A$fdc$361
     00003087  A$fdc$361 |    00003088  A$fdc$361 |    0000308A  A$fdc$361
     0000308B  A$fdc$361 |    0000308C  A$fdc$361 |    0000308D  A$fdc$361
     00003090  A$fdc$361 |    00003093  A$fdc$362 |    00003093  C$fdc.c$6
     00003096  A$fdc$362 |    00003099  A$fdc$362 |    0000309A  A$fdc$362
     0000309D  A$fdc$362 |    0000309E  A$fdc$362 |    0000309F  A$fdc$362
     000030A2  A$fdc$362 |    000030A4  A$fdc$363 |    000030A7  A$fdc$363
     000030A7  C$fdc.c$6 |    000030AA  A$fdc$363 |    000030AB  A$fdc$363
     000030AC  A$fdc$363 |    000030AD  A$fdc$363 |    000030B0  A$fdc$363
     000030B3  A$fdc$364 |    000030B4  A$fdc$364 |    000030B5  A$fdc$364
     000030B5  C$fdc.c$6 |    000030B8  A$fdc$364 |    000030BB  A$fdc$364
     000030BC  A$fdc$364 |    000030BF  A$fdc$364 |    000030C0  A$fdc$365
     000030C1  A$fdc$365 |    000030C4  A$fdc$365 |    000030C5  A$fdc$365
     000030C6  A$fdc$365 |    000030C7  A$fdc$365 |    000030C8  A$fdc$365
     000030CA  A$fdc$365 |    000030CB  A$fdc$365 |    000030CD  A$fdc$366
     000030CD  C$fdc.c$6 |    000030D0  A$fdc$366 |    000030D3  A$fdc$366
     000030D4  A$fdc$366 |    000030D7  A$fdc$366 |    000030DA  A$fdc$366
     000030DB  A$fdc$366 |    000030DC  A$fdc$367 |    000030DF  A$fdc$367
ASxxxx Linker V03.00 + NoICE + sdld,  page 42.
Hexadecimal  [32-Bits]

Area                       Addr        Size        Decimal Bytes (Attributes)
--------------------       ----        ----        ------- ----- ------------
_CODE                  00000000    000084DB =       34011. bytes (REL,CON)

        Value  Global            Value  Global            Value  Global    
        -----  ------            -----  ------            -----  ------    
     000030DF  C$fdc.c$6 |    000030E2  A$fdc$367 |    000030E5  A$fdc$367
     000030E6  A$fdc$367 |    000030E9  A$fdc$367 |    000030EC  A$fdc$367
     000030ED  A$fdc$368 |    000030EE  A$fdc$368 |    000030F1  A$fdc$368
     000030F1  C$fdc.c$6 |    000030F4  A$fdc$368 |    000030F7  A$fdc$369
     000030F7  C$fdc.c$6 |    000030F9  A$fdc$369 |    000030FC  A$fdc$369
     000030FF  A$fdc$369 |    000030FF  C$fdc.c$6 |    00003102  A$fdc$369
     00003105  A$fdc$369 |    00003106  A$fdc$370 |    00003107  A$fdc$370
     00003108  A$fdc$370 |    0000310B  A$fdc$370 |    0000310E  A$fdc$370
     0000310F  A$fdc$370 |    00003110  A$fdc$370 |    00003110  C$fdc.c$6
     00003113  A$fdc$371 |    00003114  A$fdc$371 |    00003117  A$fdc$371
     00003118  A$fdc$371 |    00003119  A$fdc$371 |    0000311A  A$fdc$371
     0000311D  A$fdc$371 |    0000311E  A$fdc$372 |    0000311E  C$fdc.c$6
     00003121  A$fdc$372 |    00003122  A$fdc$372 |    00003125  A$fdc$372
     00003126  A$fdc$372 |    00003127  A$fdc$372 |    00003128  A$fdc$372
     0000312B  A$fdc$372 |    0000312C  A$fdc$373 |    0000312C  C$fdc.c$6
     00003130  A$fdc$373 |    00003134  A$fdc$373 |    00003137  A$fdc$373
     00003137  C$fdc.c$6 |    00003139  A$fdc$374 |    0000313B  A$fdc$374
     0000313B  C$fdc.c$6 |    0000313B  XG$fdcStr |    0000313C  A$fdc$375
     0000313C  C$fdc.c$6 |    0000313C  G$fdcStre |    0000313C  _fdcStrea
     0000313E  A$fdc$375 |    00003142  A$fdc$376 |    00003144  A$fdc$376
     00003145  A$fdc$376 |    00003145  C$fdc.c$6 |    00003149  A$fdc$376
     0000314C  A$fdc$376 |    0000314D  A$fdc$376 |    0000314F  A$fdc$376
     00003152  A$fdc$377 |    00003153  A$fdc$377 |    00003155  A$fdc$377
     00003155  C$fdc.c$6 |    00003158  A$fdc$377 |    0000315B  A$fdc$377
     0000315C  A$fdc$377 |    0000315F  A$fdc$377 |    00003160  A$fdc$378
     00003161  A$fdc$378 |    00003164  A$fdc$378 |    00003165  A$fdc$378
     00003166  A$fdc$378 |    00003167  A$fdc$378 |    00003168  A$fdc$378
     0000316A  A$fdc$378 |    0000316B  A$fdc$378 |    0000316E  A$fdc$379
     0000316E  C$fdc.c$6 |    00003171  A$fdc$379 |    00003174  A$fdc$379
     00003174  C$fdc.c$6 |    00003176  A$fdc$379 |    00003179  A$fdc$380
     00003179  C$fdc.c$6 |    0000317A  A$fdc$380 |    0000317D  A$fdc$380
     00003180  A$fdc$380 |    00003183  A$fdc$380 |    00003185  A$fdc$381
     00003188  A$fdc$381 |    00003188  C$fdc.c$6 |    0000318B  A$fdc$381
     0000318E  A$fdc$381 |    00003190  A$fdc$381 |    00003193  A$fdc$381
     00003194  A$fdc$382 |    00003195  A$fdc$382 |    00003197  A$fdc$382
     00003198  A$fdc$382 |    00003199  A$fdc$382 |    0000319A  A$fdc$382
     0000319A  C$fdc.c$6 |    0000319D  A$fdc$382 |    000031A0  A$fdc$383
     000031A1  A$fdc$383 |    000031A4  A$fdc$383 |    000031A5  A$fdc$383
     000031A6  A$fdc$383 |    000031A9  A$fdc$383 |    000031AB  A$fdc$383
     000031AE  A$fdc$384 |    000031AE  C$fdc.c$6 |    000031B1  A$fdc$384
     000031B2  A$fdc$384 |    000031B3  A$fdc$384 |    000031B4  A$fdc$384
     000031B7  A$fdc$384 |    000031BA  A$fdc$384 |    000031BB  A$fdc$384
     000031BC  A$fdc$385 |    000031BC  C$fdc.c$6 |    000031C0  A$fdc$385
     000031C3  A$fdc$385 |    000031C6  A$fdc$385 |    000031C9  A$fdc$385
     000031CC  A$fdc$385 |    000031CF  A$fdc$385 |    000031D1  A$fdc$386
     000031D4  A$fdc$386 |    000031D7  A$fdc$386 |    000031DA  A$fdc$386
     000031DC  A$fdc$386 |    000031E0  A$fdc$386 |    000031E3  A$fdc$386
     000031E4  A$fdc$386 |    000031E7  A$fdc$387 |    000031EA  A$fdc$387
     000031EB  A$fdc$387 |    000031EE  A$fdc$387 |    000031EE  C$fdc.c$6
     000031F1  A$fdc$387 |    000031F4  A$fdc$387 |    000031F5  A$fdc$387
     000031F8  A$fdc$388 |    000031FB  A$fdc$388 |    000031FC  A$fdc$388
ASxxxx Linker V03.00 + NoICE + sdld,  page 43.
Hexadecimal  [32-Bits]

Area                       Addr        Size        Decimal Bytes (Attributes)
--------------------       ----        ----        ------- ----- ------------
_CODE                  00000000    000084DB =       34011. bytes (REL,CON)

        Value  Global            Value  Global            Value  Global    
        -----  ------            -----  ------            -----  ------    
     000031FD  A$fdc$388 |    00003200  A$fdc$388 |    00003200  C$fdc.c$6
     00003203  A$fdc$388 |    00003206  A$fdc$388 |    00003207  A$fdc$389
     0000320A  A$fdc$389 |    0000320B  A$fdc$389 |    0000320C  A$fdc$389
     0000320F  A$fdc$389 |    00003210  A$fdc$389 |    00003211  A$fdc$389
     00003212  A$fdc$389 |    00003213  A$fdc$389 |    00003215  A$fdc$389
     00003216  A$fdc$390 |    00003218  A$fdc$390 |    00003218  C$fdc.c$6
     0000321B  A$fdc$390 |    0000321E  A$fdc$391 |    0000321E  C$fdc.c$6
     00003220  A$fdc$391 |    00003223  A$fdc$391 |    00003226  A$fdc$391
     00003226  C$fdc.c$6 |    00003229  A$fdc$391 |    0000322C  A$fdc$391
     0000322D  A$fdc$392 |    0000322E  A$fdc$392 |    0000322F  A$fdc$392
     00003232  A$fdc$392 |    00003235  A$fdc$392 |    00003236  A$fdc$392
     00003237  A$fdc$392 |    00003237  C$fdc.c$6 |    0000323A  A$fdc$393
     0000323B  A$fdc$393 |    0000323E  A$fdc$393 |    0000323F  A$fdc$393
     00003240  A$fdc$393 |    00003241  A$fdc$393 |    00003244  A$fdc$393
     00003245  A$fdc$394 |    00003245  C$fdc.c$6 |    00003248  A$fdc$394
     00003249  A$fdc$394 |    0000324C  A$fdc$394 |    0000324D  A$fdc$394
     0000324E  A$fdc$394 |    0000324F  A$fdc$394 |    00003252  A$fdc$394
     00003253  A$fdc$395 |    00003253  C$fdc.c$6 |    00003257  A$fdc$395
     0000325B  A$fdc$395 |    0000325E  A$fdc$395 |    0000325E  C$fdc.c$6
     00003260  A$fdc$396 |    00003261  A$fdc$396 |    00003263  A$fdc$396
     00003263  C$fdc.c$6 |    00003263  XG$fdcStr |    00003264  A$fdc$398
     00003264  C$fdc.c$6 |    00003264  C$fdc.c$6 |    00003264  G$fdcStre
     00003264  _fdcStrea |    00003267  A$fdc$398 |    0000326A  A$fdc$398
     0000326A  C$fdc.c$6 |    0000326D  A$fdc$398 |    00003270  A$fdc$399
     00003270  C$fdc.c$6 |    00003270  XG$fdcStr |    00003271  A$fdc$400
     00003271  C$fdc.c$6 |    00003271  C$fdc.c$7 |    00003271  G$fdcStre
     00003271  _fdcStrea |    00003274  A$fdc$401 |    00003277  A$fdc$401
     00003278  A$fdc$401 |    0000327B  A$fdc$401 |    0000327C  A$fdc$401
     0000327D  A$fdc$401 |    00003280  A$fdc$401 |    00003281  A$fdc$401
     00003282  A$fdc$402 |    00003282  C$fdc.c$7 |    00003285  A$fdc$402
     00003288  A$fdc$402 |    00003288  C$fdc.c$7 |    0000328B  A$fdc$402
     0000328E  A$fdc$403 |    0000328E  C$fdc.c$7 |    0000328E  XG$fdcStr
     0000328F  A$fdc$404 |    0000328F  C$fdc.c$7 |    0000328F  G$fdcStor
     0000328F  _fdcStore |    00003291  A$fdc$404 |    00003295  A$fdc$404
     00003297  A$fdc$404 |    0000329A  A$fdc$404 |    0000329B  A$fdc$405
     0000329C  A$fdc$405 |    0000329C  C$fdc.c$7 |    0000329E  A$fdc$405
     000032A1  A$fdc$405 |    000032A3  A$fdc$405 |    000032A5  A$fdc$405
     000032A8  A$fdc$406 |    000032A8  C$fdc.c$7 |    000032AB  A$fdc$406
     000032AE  A$fdc$406 |    000032B0  A$fdc$406 |    000032B1  A$fdc$406
     000032B2  A$fdc$406 |    000032B3  A$fdc$406 |    000032B4  A$fdc$407
     000032B5  A$fdc$407 |    000032B6  A$fdc$407 |    000032B7  A$fdc$407
     000032B8  A$fdc$407 |    000032B9  A$fdc$407 |    000032BA  A$fdc$407
     000032BB  A$fdc$407 |    000032BC  A$fdc$407 |    000032BD  A$fdc$407
     000032BE  A$fdc$408 |    000032C1  A$fdc$408 |    000032C4  A$fdc$408
     000032C4  C$fdc.c$7 |    000032C7  A$fdc$408 |    000032CA  A$fdc$408
     000032CB  A$fdc$408 |    000032CD  A$fdc$408 |    000032CE  A$fdc$409
     000032CF  A$fdc$409 |    000032D2  A$fdc$409 |    000032D5  A$fdc$409
     000032D6  A$fdc$409 |    000032D8  A$fdc$409 |    000032D9  A$fdc$409
     000032DA  A$fdc$409 |    000032DB  A$fdc$409 |    000032DE  A$fdc$409
     000032DF  A$fdc$410 |    000032E0  A$fdc$410 |    000032E1  A$fdc$410
     000032E2  A$fdc$410 |    000032E3  A$fdc$410 |    000032E5  A$fdc$410
ASxxxx Linker V03.00 + NoICE + sdld,  page 44.
Hexadecimal  [32-Bits]

Area                       Addr        Size        Decimal Bytes (Attributes)
--------------------       ----        ----        ------- ----- ------------
_CODE                  00000000    000084DB =       34011. bytes (REL,CON)

        Value  Global            Value  Global            Value  Global    
        -----  ------            -----  ------            -----  ------    
     000032E6  A$fdc$410 |    000032E9  A$fdc$411 |    000032E9  C$fdc.c$7
     000032EC  A$fdc$411 |    000032EC  C$fdc.c$7 |    000032EF  A$fdc$411
     000032F0  A$fdc$411 |    000032F1  A$fdc$411 |    000032F4  A$fdc$411
     000032F5  A$fdc$412 |    000032F8  A$fdc$412 |    000032FB  A$fdc$412
     000032FE  A$fdc$412 |    00003301  A$fdc$412 |    00003304  A$fdc$412
     00003305  A$fdc$412 |    00003306  A$fdc$412 |    00003309  A$fdc$412
     0000330C  A$fdc$412 |    0000330D  A$fdc$413 |    0000330D  C$fdc.c$7
     00003310  A$fdc$413 |    00003313  A$fdc$413 |    00003316  A$fdc$413
     00003317  A$fdc$413 |    00003318  A$fdc$413 |    00003319  A$fdc$414
     00003319  C$fdc.c$7 |    0000331A  A$fdc$414 |    0000331B  A$fdc$414
     0000331C  A$fdc$414 |    0000331D  A$fdc$414 |    00003320  A$fdc$414
     00003323  A$fdc$414 |    00003324  A$fdc$414 |    00003327  A$fdc$415
     00003328  A$fdc$415 |    00003329  A$fdc$415 |    0000332A  A$fdc$415
     0000332B  A$fdc$415 |    0000332B  C$fdc.c$7 |    0000332C  A$fdc$415
     0000332D  A$fdc$415 |    0000332E  A$fdc$416 |    00003331  A$fdc$416
     00003332  A$fdc$416 |    00003333  A$fdc$416 |    00003336  A$fdc$416
     00003337  A$fdc$416 |    00003338  A$fdc$416 |    00003339  A$fdc$416
     0000333A  A$fdc$416 |    0000333B  A$fdc$416 |    0000333D  A$fdc$417
     0000333E  A$fdc$417 |    00003341  A$fdc$417 |    00003341  C$fdc.c$7
     00003343  A$fdc$417 |    00003344  A$fdc$417 |    00003345  A$fdc$418
     00003346  A$fdc$418 |    00003347  A$fdc$418 |    0000334A  A$fdc$418
     0000334A  C$fdc.c$7 |    0000334B  A$fdc$418 |    0000334C  A$fdc$418
     0000334D  A$fdc$418 |    0000334E  A$fdc$419 |    00003351  A$fdc$419
     00003352  A$fdc$419 |    00003353  A$fdc$419 |    00003356  A$fdc$419
     00003357  A$fdc$419 |    00003358  A$fdc$419 |    00003359  A$fdc$420
     00003359  C$fdc.c$7 |    0000335B  A$fdc$420 |    0000335E  A$fdc$420
     00003361  A$fdc$420 |    00003362  A$fdc$420 |    00003362  C$fdc.c$7
     00003363  A$fdc$420 |    00003364  A$fdc$421 |    00003367  A$fdc$421
     00003368  A$fdc$421 |    00003369  A$fdc$421 |    0000336A  A$fdc$421
     0000336B  A$fdc$421 |    0000336C  A$fdc$421 |    0000336D  A$fdc$421
     0000336E  A$fdc$421 |    00003371  A$fdc$421 |    00003372  A$fdc$422
     00003374  A$fdc$422 |    00003377  A$fdc$422 |    00003378  A$fdc$422
     0000337B  A$fdc$422 |    0000337E  A$fdc$422 |    0000337E  C$fdc.c$7
     0000337F  A$fdc$422 |    00003382  A$fdc$423 |    00003385  A$fdc$423
     00003386  A$fdc$423 |    00003388  A$fdc$423 |    00003389  A$fdc$423
     0000338A  A$fdc$423 |    0000338B  A$fdc$423 |    0000338E  A$fdc$423
     0000338F  A$fdc$423 |    00003391  A$fdc$423 |    00003394  A$fdc$424
     00003395  A$fdc$424 |    00003396  A$fdc$424 |    00003397  A$fdc$424
     00003398  A$fdc$424 |    00003398  C$fdc.c$7 |    0000339B  A$fdc$424
     0000339D  A$fdc$424 |    000033A0  A$fdc$425 |    000033A3  A$fdc$425
     000033A5  A$fdc$425 |    000033A8  A$fdc$425 |    000033AB  A$fdc$425
     000033AE  A$fdc$425 |    000033B1  A$fdc$425 |    000033B4  A$fdc$425
     000033B8  A$fdc$425 |    000033BB  A$fdc$426 |    000033BE  A$fdc$426
     000033BF  A$fdc$426 |    000033C2  A$fdc$426 |    000033C3  A$fdc$426
     000033C6  A$fdc$426 |    000033C6  C$fdc.c$7 |    000033C7  A$fdc$426
     000033CA  A$fdc$427 |    000033CB  A$fdc$427 |    000033CC  A$fdc$427
     000033CD  A$fdc$427 |    000033CE  A$fdc$427 |    000033CF  A$fdc$427
     000033D0  A$fdc$427 |    000033D3  A$fdc$427 |    000033D4  A$fdc$427
     000033D6  A$fdc$427 |    000033D9  A$fdc$428 |    000033DA  A$fdc$428
     000033DD  A$fdc$428 |    000033E0  A$fdc$428 |    000033E0  C$fdc.c$7
     000033E1  A$fdc$428 |    000033E2  A$fdc$428 |    000033E5  A$fdc$428
ASxxxx Linker V03.00 + NoICE + sdld,  page 45.
Hexadecimal  [32-Bits]

Area                       Addr        Size        Decimal Bytes (Attributes)
--------------------       ----        ----        ------- ----- ------------
_CODE                  00000000    000084DB =       34011. bytes (REL,CON)

        Value  Global            Value  Global            Value  Global    
        -----  ------            -----  ------            -----  ------    
     000033E6  A$fdc$429 |    000033E7  A$fdc$429 |    000033E8  A$fdc$429
     000033EA  A$fdc$429 |    000033ED  A$fdc$429 |    000033F0  A$fdc$429
     000033F1  A$fdc$429 |    000033F2  A$fdc$429 |    000033F3  A$fdc$429
     000033F4  A$fdc$429 |    000033F7  A$fdc$430 |    000033F8  A$fdc$430
     000033F9  A$fdc$430 |    000033FC  A$fdc$430 |    000033FD  A$fdc$430
     000033FE  A$fdc$430 |    00003401  A$fdc$430 |    00003402  A$fdc$430
     00003403  A$fdc$430 |    00003406  A$fdc$430 |    00003407  A$fdc$431
     00003408  A$fdc$431 |    0000340B  A$fdc$431 |    0000340C  A$fdc$431
     0000340E  A$fdc$431 |    00003411  A$fdc$431 |    00003414  A$fdc$431
     00003415  A$fdc$431 |    00003418  A$fdc$431 |    0000341B  A$fdc$431
     0000341C  A$fdc$432 |    0000341E  A$fdc$432 |    0000341F  A$fdc$432
     00003420  A$fdc$432 |    00003423  A$fdc$432 |    00003426  A$fdc$432
     00003427  A$fdc$432 |    00003428  A$fdc$432 |    0000342B  A$fdc$432
     0000342E  A$fdc$432 |    00003431  A$fdc$433 |    00003434  A$fdc$433
     00003435  A$fdc$433 |    00003438  A$fdc$433 |    0000343B  A$fdc$433
     0000343C  A$fdc$433 |    0000343F  A$fdc$433 |    00003440  A$fdc$433
     00003441  A$fdc$433 |    00003442  A$fdc$433 |    00003443  A$fdc$434
     00003443  C$fdc.c$7 |    00003446  A$fdc$434 |    00003449  A$fdc$434
     00003449  C$fdc.c$7 |    0000344A  A$fdc$435 |    0000344D  A$fdc$435
     0000344D  C$fdc.c$7 |    0000344E  A$fdc$435 |    00003451  A$fdc$436
     00003451  C$fdc.c$7 |    00003454  A$fdc$436 |    00003454  C$fdc.c$7
     00003456  A$fdc$437 |    00003458  A$fdc$437 |    0000345A  A$fdc$437
     0000345A  C$fdc.c$7 |    0000345A  XG$fdcSto |    0000345B  A$fdc$438
     0000345B  C$fdc.c$7 |    0000345B  G$fdcLoad |    0000345B  _fdcLoadD
     0000345D  A$fdc$438 |    00003461  A$fdc$438 |    00003463  A$fdc$438
     00003466  A$fdc$439 |    00003467  A$fdc$439 |    00003468  A$fdc$439
     00003468  C$fdc.c$7 |    0000346A  A$fdc$439 |    0000346D  A$fdc$439
     0000346F  A$fdc$439 |    00003471  A$fdc$439 |    00003474  A$fdc$440
     00003474  C$fdc.c$7 |    00003477  A$fdc$440 |    0000347A  A$fdc$440
     0000347C  A$fdc$440 |    0000347D  A$fdc$440 |    0000347E  A$fdc$440
     0000347F  A$fdc$441 |    00003480  A$fdc$441 |    00003481  A$fdc$441
     00003482  A$fdc$441 |    00003483  A$fdc$441 |    00003484  A$fdc$441
     00003485  A$fdc$441 |    00003486  A$fdc$441 |    00003487  A$fdc$441
     00003488  A$fdc$441 |    00003489  A$fdc$442 |    0000348A  A$fdc$442
     0000348A  C$fdc.c$7 |    0000348B  A$fdc$442 |    0000348E  A$fdc$442
     0000348F  A$fdc$442 |    00003492  A$fdc$442 |    00003493  A$fdc$442
     00003494  A$fdc$443 |    00003495  A$fdc$443 |    00003496  A$fdc$443
     00003497  A$fdc$443 |    0000349A  A$fdc$443 |    0000349D  A$fdc$443
     0000349E  A$fdc$443 |    000034A0  A$fdc$443 |    000034A1  A$fdc$443
     000034A2  A$fdc$443 |    000034A3  A$fdc$444 |    000034A6  A$fdc$444
     000034A7  A$fdc$444 |    000034A8  A$fdc$444 |    000034A9  A$fdc$444
     000034AA  A$fdc$444 |    000034AB  A$fdc$444 |    000034AC  A$fdc$444
     000034AE  A$fdc$444 |    000034AF  A$fdc$444 |    000034B2  A$fdc$445
     000034B2  C$fdc.c$7 |    000034B3  A$fdc$445 |    000034B6  A$fdc$445
     000034B7  A$fdc$446 |    000034B7  C$fdc.c$7 |    000034BA  A$fdc$446
     000034BB  A$fdc$446 |    000034BE  A$fdc$446 |    000034C1  A$fdc$446
     000034C2  A$fdc$446 |    000034C3  A$fdc$446 |    000034C6  A$fdc$446
     000034C7  A$fdc$446 |    000034C8  A$fdc$446 |    000034CB  A$fdc$447
     000034CC  A$fdc$447 |    000034CD  A$fdc$447 |    000034CE  A$fdc$447
     000034CF  A$fdc$447 |    000034D0  A$fdc$447 |    000034D2  A$fdc$447
     000034D3  A$fdc$447 |    000034D6  A$fdc$448 |    000034D6  C$fdc.c$7
ASxxxx Linker V03.00 + NoICE + sdld,  page 46.
Hexadecimal  [32-Bits]

Area                       Addr        Size        Decimal Bytes (Attributes)
--------------------       ----        ----        ------- ----- ------------
_CODE                  00000000    000084DB =       34011. bytes (REL,CON)

        Value  Global            Value  Global            Value  Global    
        -----  ------            -----  ------            -----  ------    
     000034D9  A$fdc$448 |    000034DA  A$fdc$448 |    000034DB  A$fdc$448
     000034DE  A$fdc$448 |    000034E0  A$fdc$448 |    000034E3  A$fdc$448
     000034E6  A$fdc$448 |    000034E8  A$fdc$449 |    000034EB  A$fdc$449
     000034EE  A$fdc$449 |    000034F1  A$fdc$449 |    000034F2  A$fdc$449
     000034F3  A$fdc$449 |    000034F3  C$fdc.c$7 |    000034F6  A$fdc$449
     000034F7  A$fdc$450 |    000034F8  A$fdc$450 |    000034FB  A$fdc$450
     000034FE  A$fdc$450 |    000034FF  A$fdc$450 |    00003500  A$fdc$450
     00003500  C$fdc.c$7 |    00003503  A$fdc$450 |    00003504  A$fdc$451
     00003505  A$fdc$451 |    00003508  A$fdc$451 |    0000350B  A$fdc$451
     0000350C  A$fdc$451 |    0000350D  A$fdc$451 |    0000350E  A$fdc$451
     0000350F  A$fdc$452 |    0000350F  C$fdc.c$7 |    00003512  A$fdc$452
     00003513  A$fdc$452 |    00003514  A$fdc$452 |    00003517  A$fdc$452
     0000351A  A$fdc$452 |    0000351D  A$fdc$452 |    00003520  A$fdc$452
     00003524  A$fdc$452 |    00003528  A$fdc$452 |    00003529  A$fdc$453
     0000352C  A$fdc$453 |    0000352D  A$fdc$453 |    00003530  A$fdc$453
     00003532  A$fdc$453 |    00003533  A$fdc$453 |    00003533  C$fdc.c$7
     00003537  A$fdc$454 |    0000353A  A$fdc$454 |    0000353D  A$fdc$454
     00003540  A$fdc$454 |    00003541  A$fdc$454 |    00003544  A$fdc$454
     00003544  C$fdc.c$7 |    00003545  A$fdc$454 |    00003548  A$fdc$455
     0000354B  A$fdc$455 |    0000354C  A$fdc$455 |    0000354F  A$fdc$455
     00003550  A$fdc$455 |    00003551  A$fdc$455 |    00003551  C$fdc.c$7
     00003555  A$fdc$456 |    00003558  A$fdc$456 |    0000355B  A$fdc$456
     0000355E  A$fdc$456 |    0000355F  A$fdc$456 |    00003562  A$fdc$456
     00003562  C$fdc.c$7 |    00003565  A$fdc$456 |    00003566  A$fdc$457
     00003567  A$fdc$457 |    00003568  A$fdc$457 |    00003569  A$fdc$457
     0000356A  A$fdc$457 |    0000356B  A$fdc$457 |    0000356C  A$fdc$457
     0000356D  A$fdc$457 |    0000356F  A$fdc$457 |    00003570  A$fdc$457
     00003571  A$fdc$458 |    00003571  C$fdc.c$7 |    00003572  A$fdc$458
     00003574  A$fdc$458 |    00003575  A$fdc$458 |    00003576  A$fdc$458
     00003579  A$fdc$458 |    0000357A  A$fdc$458 |    0000357C  A$fdc$459
     0000357F  A$fdc$459 |    00003580  A$fdc$459 |    00003581  A$fdc$459
     00003582  A$fdc$459 |    00003583  A$fdc$459 |    00003584  A$fdc$459
     00003585  A$fdc$459 |    00003587  A$fdc$459 |    00003588  A$fdc$459
     0000358B  A$fdc$460 |    0000358B  C$fdc.c$7 |    0000358E  A$fdc$460
     0000358F  A$fdc$460 |    00003592  A$fdc$460 |    00003595  A$fdc$460
     00003598  A$fdc$460 |    0000359B  A$fdc$461 |    0000359F  A$fdc$461
     000035A2  A$fdc$461 |    000035A5  A$fdc$461 |    000035A6  A$fdc$461
     000035A9  A$fdc$461 |    000035AA  A$fdc$461 |    000035AD  A$fdc$462
     000035AD  C$fdc.c$7 |    000035B0  A$fdc$462 |    000035B1  A$fdc$462
     000035B2  A$fdc$462 |    000035B3  A$fdc$462 |    000035B4  A$fdc$462
     000035B5  A$fdc$462 |    000035B8  A$fdc$462 |    000035B9  A$fdc$462
     000035BB  A$fdc$463 |    000035BE  A$fdc$463 |    000035BF  A$fdc$463
     000035BF  C$fdc.c$7 |    000035C0  A$fdc$463 |    000035C1  A$fdc$463
     000035C2  A$fdc$463 |    000035C5  A$fdc$463 |    000035C8  A$fdc$464
     000035CB  A$fdc$464 |    000035CD  A$fdc$464 |    000035D0  A$fdc$464
     000035D1  A$fdc$464 |    000035D2  A$fdc$464 |    000035D3  A$fdc$464
     000035D6  A$fdc$464 |    000035D7  A$fdc$464 |    000035DA  A$fdc$464
     000035DB  A$fdc$465 |    000035DE  A$fdc$465 |    000035DF  A$fdc$465
     000035E0  A$fdc$465 |    000035E1  A$fdc$465 |    000035E2  A$fdc$465
     000035E3  A$fdc$465 |    000035E6  A$fdc$465 |    000035E9  A$fdc$465
     000035EA  A$fdc$465 |    000035EC  A$fdc$466 |    000035EF  A$fdc$466
ASxxxx Linker V03.00 + NoICE + sdld,  page 47.
Hexadecimal  [32-Bits]

Area                       Addr        Size        Decimal Bytes (Attributes)
--------------------       ----        ----        ------- ----- ------------
_CODE                  00000000    000084DB =       34011. bytes (REL,CON)

        Value  Global            Value  Global            Value  Global    
        -----  ------            -----  ------            -----  ------    
     000035F0  A$fdc$466 |    000035F2  A$fdc$466 |    000035F5  A$fdc$466
     000035F8  A$fdc$466 |    000035FA  A$fdc$466 |    000035FD  A$fdc$466
     000035FE  A$fdc$466 |    000035FF  A$fdc$466 |    00003600  A$fdc$467
     00003603  A$fdc$467 |    00003604  A$fdc$467 |    00003607  A$fdc$467
     00003608  A$fdc$467 |    0000360B  A$fdc$467 |    0000360C  A$fdc$467
     0000360D  A$fdc$467 |    0000360E  A$fdc$467 |    0000360F  A$fdc$467
     00003610  A$fdc$468 |    00003613  A$fdc$468 |    00003614  A$fdc$468
     00003617  A$fdc$468 |    0000361A  A$fdc$468 |    0000361B  A$fdc$468
     0000361E  A$fdc$468 |    00003621  A$fdc$468 |    00003622  A$fdc$468
     00003625  A$fdc$468 |    00003628  A$fdc$469 |    00003629  A$fdc$469
     0000362C  A$fdc$469 |    0000362F  A$fdc$469 |    00003631  A$fdc$469
     00003634  A$fdc$469 |    00003636  A$fdc$469 |    00003637  A$fdc$469
     00003638  A$fdc$469 |    00003639  A$fdc$469 |    0000363A  A$fdc$470
     0000363B  A$fdc$470 |    0000363C  A$fdc$470 |    0000363D  A$fdc$470
     0000363E  A$fdc$470 |    0000363F  A$fdc$470 |    00003640  A$fdc$470
     00003641  A$fdc$470 |    00003642  A$fdc$470 |    00003644  A$fdc$470
     00003645  A$fdc$471 |    00003646  A$fdc$471 |    00003647  A$fdc$471
     00003648  A$fdc$471 |    00003649  A$fdc$471 |    0000364C  A$fdc$471
     0000364D  A$fdc$471 |    00003650  A$fdc$471 |    00003653  A$fdc$471
     00003654  A$fdc$471 |    00003657  A$fdc$472 |    0000365A  A$fdc$472
     0000365B  A$fdc$472 |    0000365E  A$fdc$472 |    00003661  A$fdc$472
     00003662  A$fdc$472 |    00003665  A$fdc$472 |    00003666  A$fdc$472
     00003669  A$fdc$472 |    0000366C  A$fdc$472 |    0000366F  A$fdc$473
     00003670  A$fdc$473 |    00003673  A$fdc$473 |    00003675  A$fdc$473
     00003678  A$fdc$473 |    0000367B  A$fdc$473 |    0000367C  A$fdc$473
     0000367D  A$fdc$473 |    00003680  A$fdc$473 |    00003681  A$fdc$473
     00003682  A$fdc$474 |    00003683  A$fdc$474 |    00003684  A$fdc$474
     00003685  A$fdc$474 |    00003687  A$fdc$474 |    00003688  A$fdc$474
     0000368A  A$fdc$475 |    0000368A  C$fdc.c$7 |    0000368B  A$fdc$475
     0000368E  A$fdc$475 |    0000368F  A$fdc$475 |    00003690  A$fdc$475
     00003691  A$fdc$475 |    00003692  A$fdc$475 |    00003695  A$fdc$475
     00003698  A$fdc$475 |    0000369B  A$fdc$475 |    0000369C  A$fdc$476
     0000369D  A$fdc$476 |    000036A0  A$fdc$476 |    000036A2  A$fdc$476
     000036A3  A$fdc$476 |    000036A4  A$fdc$476 |    000036A5  A$fdc$476
     000036A8  A$fdc$476 |    000036A9  A$fdc$476 |    000036AA  A$fdc$476
     000036AD  A$fdc$477 |    000036B0  A$fdc$477 |    000036B1  A$fdc$477
     000036B4  A$fdc$477 |    000036B7  A$fdc$477 |    000036B8  A$fdc$477
     000036BA  A$fdc$477 |    000036BB  A$fdc$477 |    000036BC  A$fdc$477
     000036BF  A$fdc$477 |    000036C2  A$fdc$478 |    000036C3  A$fdc$478
     000036C4  A$fdc$478 |    000036C5  A$fdc$478 |    000036C5  C$fdc.c$7
     000036C8  A$fdc$478 |    000036CB  A$fdc$479 |    000036CB  C$fdc.c$7
     000036CE  A$fdc$479 |    000036D1  A$fdc$479 |    000036D1  C$fdc.c$8
     000036D4  A$fdc$479 |    000036D5  A$fdc$480 |    000036D8  A$fdc$480
     000036D9  A$fdc$480 |    000036D9  C$fdc.c$8 |    000036DC  A$fdc$480
     000036DD  A$fdc$480 |    000036DF  A$fdc$481 |    000036DF  C$fdc.c$8
     000036E0  A$fdc$481 |    000036E3  A$fdc$481 |    000036E4  A$fdc$481
     000036E5  A$fdc$481 |    000036E8  A$fdc$481 |    000036E9  A$fdc$481
     000036EA  A$fdc$482 |    000036EA  C$fdc.c$7 |    000036ED  A$fdc$482
     000036F0  A$fdc$482 |    000036F0  C$fdc.c$8 |    000036F2  A$fdc$483
     000036F4  A$fdc$483 |    000036F6  A$fdc$483 |    000036F6  C$fdc.c$8
     000036F6  XG$fdcLoa |    000036F7  A$hdmi$67 |    000036F7  C$hdmi.c$
ASxxxx Linker V03.00 + NoICE + sdld,  page 48.
Hexadecimal  [32-Bits]

Area                       Addr        Size        Decimal Bytes (Attributes)
--------------------       ----        ----        ------- ----- ------------
_CODE                  00000000    000084DB =       34011. bytes (REL,CON)

        Value  Global            Value  Global            Value  Global    
        -----  ------            -----  ------            -----  ------    
     000036F7  C$hdmi.c$ |    000036F7  G$i2cWait |    000036F7  _i2cWait 
     000036F9  A$hdmi$68 |    000036FA  A$hdmi$69 |    000036FB  A$hdmi$70
     000036FE  A$hdmi$71 |    000036FF  A$hdmi$72 |    00003701  A$hdmi$73
     00003703  A$hdmi$81 |    00003703  C$hdmi.c$ |    00003703  XG$i2cWai
     00003704  A$hdmi$94 |    00003704  C$hdmi.c$ |    00003704  C$hdmi.c$
     00003704  G$hdmi_in |    00003704  _hdmi_ini |    00003706  A$hdmi$95
     00003707  A$hdmi$96 |    00003708  A$hdmi$97 |    0000370B  A$hdmi$98
     0000370C  A$hdmi$99 |    0000370D  A$hdmi$10 |    0000370F  A$hdmi$10
     00003710  A$hdmi$10 |    00003712  A$hdmi$10 |    00003713  A$hdmi$10
     00003714  A$hdmi$10 |    00003717  A$hdmi$10 |    00003718  A$hdmi$10
     00003719  A$hdmi$10 |    0000371A  A$hdmi$10 |    0000371C  A$hdmi$11
     0000371D  A$hdmi$11 |    0000371E  A$hdmi$11 |    00003721  A$hdmi$11
     00003722  A$hdmi$11 |    00003723  A$hdmi$11 |    00003724  A$hdmi$11
     00003725  A$hdmi$11 |    00003728  A$hdmi$11 |    00003729  A$hdmi$11
     0000372A  A$hdmi$12 |    0000372D  A$hdmi$12 |    00003730  A$hdmi$12
     00003731  A$hdmi$12 |    00003732  A$hdmi$12 |    00003732  C$hdmi.c$
     00003735  A$hdmi$12 |    00003736  A$hdmi$12 |    00003739  A$hdmi$13
     00003739  C$hdmi.c$ |    0000373C  A$hdmi$13 |    0000373D  A$hdmi$13
     00003740  A$hdmi$13 |    00003740  C$hdmi.c$ |    00003743  A$hdmi$14
     00003744  A$hdmi$14 |    00003747  A$hdmi$14 |    00003747  C$hdmi.c$
     0000374A  A$hdmi$14 |    0000374B  A$hdmi$14 |    0000374E  A$hdmi$14
     0000374F  A$hdmi$15 |    0000374F  C$hdmi.c$ |    0000374F  C$hdmi.c$
     0000374F  XG$hdmi_i |    00003752  Fhdmi$__s |    0000376C  Fhdmi$__s
     0000377D  Fhdmi$__s |    00003793  A$hdmi$18 |    00003793  C$hdmi.c$
     00003793  G$hdmi_re |    00003793  _hdmi_rea |    00003794  A$hdmi$18
     00003794  C$hdmi.c$ |    00003798  A$hdmi$18 |    0000379A  A$hdmi$18
     0000379E  A$hdmi$19 |    0000379E  C$hdmi.c$ |    000037A1  A$hdmi$19
     000037A2  A$hdmi$19 |    000037A5  A$hdmi$19 |    000037A5  C$hdmi.c$
     000037A8  A$hdmi$19 |    000037A9  A$hdmi$19 |    000037AC  A$hdmi$20
     000037AC  C$hdmi.c$ |    000037AF  A$hdmi$20 |    000037B0  A$hdmi$20
     000037B3  A$hdmi$20 |    000037B3  C$hdmi.c$ |    000037B6  A$hdmi$21
     000037B7  A$hdmi$21 |    000037BA  A$hdmi$21 |    000037BB  A$hdmi$21
     000037BB  C$hdmi.c$ |    000037BD  A$hdmi$21 |    000037BE  A$hdmi$21
     000037BF  A$hdmi$22 |    000037C2  A$hdmi$22 |    000037C3  A$hdmi$22
     000037C5  A$hdmi$22 |    000037C7  A$hdmi$22 |    000037C7  C$hdmi.c$
     000037C9  A$hdmi$22 |    000037CA  A$hdmi$22 |    000037CB  A$hdmi$23
     000037CE  A$hdmi$23 |    000037CF  A$hdmi$23 |    000037D0  A$hdmi$23
     000037D2  A$hdmi$23 |    000037D3  A$hdmi$23 |    000037D4  A$hdmi$23
     000037D5  A$hdmi$24 |    000037D5  C$hdmi.c$ |    000037D6  A$hdmi$24
     000037D8  A$hdmi$24 |    000037D8  C$hdmi.c$ |    000037DB  A$hdmi$24
     000037DC  A$hdmi$24 |    000037DD  A$hdmi$24 |    000037DE  A$hdmi$24
     000037DF  A$hdmi$25 |    000037E1  A$hdmi$25 |    000037E2  A$hdmi$25
     000037E3  A$hdmi$25 |    000037E6  A$hdmi$25 |    000037E6  C$hdmi.c$
     000037E9  A$hdmi$25 |    000037EA  A$hdmi$25 |    000037ED  A$hdmi$26
     000037EE  A$hdmi$26 |    000037EE  C$hdmi.c$ |    000037F0  A$hdmi$26
     000037F1  A$hdmi$26 |    000037F2  A$hdmi$26 |    000037F5  A$hdmi$26
     000037F6  A$hdmi$27 |    000037F8  A$hdmi$27 |    000037FA  A$hdmi$27
     000037FA  C$hdmi.c$ |    000037FD  A$hdmi$27 |    000037FE  A$hdmi$27
     00003801  A$hdmi$28 |    00003801  C$hdmi.c$ |    00003804  A$hdmi$28
     00003805  A$hdmi$28 |    00003808  A$hdmi$28 |    00003808  C$hdmi.c$
     0000380B  A$hdmi$28 |    0000380C  A$hdmi$28 |    0000380F  A$hdmi$29
ASxxxx Linker V03.00 + NoICE + sdld,  page 49.
Hexadecimal  [32-Bits]

Area                       Addr        Size        Decimal Bytes (Attributes)
--------------------       ----        ----        ------- ----- ------------
_CODE                  00000000    000084DB =       34011. bytes (REL,CON)

        Value  Global            Value  Global            Value  Global    
        -----  ------            -----  ------            -----  ------    
     00003810  A$hdmi$29 |    00003810  C$hdmi.c$ |    00003812  A$hdmi$29
     00003813  A$hdmi$29 |    00003814  A$hdmi$29 |    00003817  A$hdmi$29
     00003818  A$hdmi$30 |    0000381A  A$hdmi$30 |    0000381C  A$hdmi$30
     0000381C  C$hdmi.c$ |    0000381F  A$hdmi$30 |    00003820  A$hdmi$30
     00003823  A$hdmi$30 |    00003824  A$hdmi$31 |    00003824  C$hdmi.c$
     00003826  A$hdmi$31 |    00003827  A$hdmi$31 |    00003828  A$hdmi$31
     0000382B  A$hdmi$31 |    0000382C  A$hdmi$31 |    0000382E  A$hdmi$31
     00003830  A$hdmi$32 |    00003830  C$hdmi.c$ |    00003832  A$hdmi$32
     00003833  A$hdmi$32 |    00003834  A$hdmi$32 |    00003837  A$hdmi$32
     00003838  A$hdmi$32 |    0000383C  A$hdmi$32 |    0000383E  A$hdmi$33
     00003841  A$hdmi$33 |    00003841  C$hdmi.c$ |    00003844  A$hdmi$33
     00003845  A$hdmi$33 |    00003848  A$hdmi$33 |    00003849  A$hdmi$34
     00003849  C$hdmi.c$ |    0000384B  A$hdmi$34 |    0000384C  A$hdmi$34
     0000384D  A$hdmi$34 |    00003850  A$hdmi$34 |    00003851  A$hdmi$34
     00003853  A$hdmi$34 |    00003855  A$hdmi$35 |    00003855  C$hdmi.c$
     00003858  A$hdmi$35 |    00003859  A$hdmi$35 |    0000385C  A$hdmi$35
     0000385D  A$hdmi$36 |    0000385D  C$hdmi.c$ |    00003860  A$hdmi$36
     00003861  A$hdmi$36 |    00003862  A$hdmi$36 |    00003863  A$hdmi$36
     00003865  A$hdmi$36 |    00003865  C$hdmi.c$ |    00003869  A$hdmi$36
     0000386B  A$hdmi$37 |    0000386E  A$hdmi$37 |    00003870  A$hdmi$37
     00003870  C$hdmi.c$ |    00003874  A$hdmi$37 |    00003876  A$hdmi$37
     00003879  A$hdmi$38 |    0000387A  A$hdmi$38 |    0000387A  C$hdmi.c$
     0000387A  XG$hdmi_r |    0000387B  Fhdmi$__s |    00003887  A$hdmi$40
     00003887  C$hdmi.c$ |    00003887  G$hdmi_wr |    00003887  _hdmi_wri
     00003888  A$hdmi$40 |    00003888  C$hdmi.c$ |    0000388B  A$hdmi$40
     0000388C  A$hdmi$40 |    0000388F  A$hdmi$41 |    0000388F  C$hdmi.c$
     00003892  A$hdmi$41 |    00003893  A$hdmi$41 |    00003896  A$hdmi$41
     00003896  C$hdmi.c$ |    00003899  A$hdmi$41 |    0000389A  A$hdmi$42
     0000389D  A$hdmi$42 |    0000389D  C$hdmi.c$ |    000038A0  A$hdmi$42
     000038A1  A$hdmi$42 |    000038A4  A$hdmi$42 |    000038A5  A$hdmi$43
     000038A5  C$hdmi.c$ |    000038A7  A$hdmi$43 |    000038A8  A$hdmi$43
     000038A9  A$hdmi$43 |    000038AC  A$hdmi$43 |    000038AD  A$hdmi$43
     000038AF  A$hdmi$43 |    000038B1  A$hdmi$44 |    000038B1  C$hdmi.c$
     000038B3  A$hdmi$44 |    000038B4  A$hdmi$44 |    000038B5  A$hdmi$44
     000038B8  A$hdmi$44 |    000038B9  A$hdmi$44 |    000038BA  A$hdmi$44
     000038BC  A$hdmi$44 |    000038BD  A$hdmi$45 |    000038BE  A$hdmi$45
     000038BF  A$hdmi$45 |    000038BF  C$hdmi.c$ |    000038C0  A$hdmi$45
     000038C2  A$hdmi$46 |    000038C2  C$hdmi.c$ |    000038C5  A$hdmi$46
     000038C6  A$hdmi$46 |    000038C7  A$hdmi$46 |    000038C8  A$hdmi$46
     000038C9  A$hdmi$46 |    000038CB  A$hdmi$46 |    000038CC  A$hdmi$46
     000038CD  A$hdmi$46 |    000038D0  A$hdmi$47 |    000038D0  C$hdmi.c$
     000038D3  A$hdmi$47 |    000038D4  A$hdmi$47 |    000038D7  A$hdmi$47
     000038D8  A$hdmi$48 |    000038D8  C$hdmi.c$ |    000038DA  A$hdmi$48
     000038DB  A$hdmi$48 |    000038DC  A$hdmi$48 |    000038DF  A$hdmi$48
     000038E0  A$hdmi$48 |    000038E2  A$hdmi$48 |    000038E4  A$hdmi$49
     000038E4  C$hdmi.c$ |    000038E7  A$hdmi$49 |    000038E8  A$hdmi$49
     000038E9  A$hdmi$49 |    000038EA  A$hdmi$49 |    000038EB  A$hdmi$49
     000038ED  A$hdmi$49 |    000038EE  A$hdmi$49 |    000038EF  A$hdmi$49
     000038F2  A$hdmi$50 |    000038F2  C$hdmi.c$ |    000038F5  A$hdmi$50
     000038F6  A$hdmi$50 |    000038F9  A$hdmi$50 |    000038FA  A$hdmi$51
     000038FA  C$hdmi.c$ |    000038FC  A$hdmi$51 |    000038FD  A$hdmi$51
ASxxxx Linker V03.00 + NoICE + sdld,  page 50.
Hexadecimal  [32-Bits]

Area                       Addr        Size        Decimal Bytes (Attributes)
--------------------       ----        ----        ------- ----- ------------
_CODE                  00000000    000084DB =       34011. bytes (REL,CON)

        Value  Global            Value  Global            Value  Global    
        -----  ------            -----  ------            -----  ------    
     000038FE  A$hdmi$51 |    00003901  A$hdmi$51 |    00003902  A$hdmi$51
     00003904  A$hdmi$51 |    00003906  A$hdmi$52 |    00003906  C$hdmi.c$
     00003908  A$hdmi$52 |    00003909  A$hdmi$52 |    0000390A  A$hdmi$52
     0000390D  A$hdmi$52 |    0000390E  A$hdmi$52 |    0000390F  A$hdmi$52
     00003911  A$hdmi$52 |    00003912  A$hdmi$52 |    00003913  A$hdmi$52
     00003914  A$hdmi$53 |    00003914  C$hdmi.c$ |    00003917  A$hdmi$53
     00003918  A$hdmi$53 |    0000391B  A$hdmi$53 |    0000391C  A$hdmi$54
     0000391C  C$hdmi.c$ |    0000391E  A$hdmi$54 |    0000391F  A$hdmi$54
     00003920  A$hdmi$54 |    00003923  A$hdmi$54 |    00003924  A$hdmi$54
     00003926  A$hdmi$54 |    00003928  A$hdmi$55 |    00003928  C$hdmi.c$
     0000392B  A$hdmi$55 |    0000392C  A$hdmi$55 |    0000392F  A$hdmi$55
     00003930  A$hdmi$55 |    00003930  C$hdmi.c$ |    00003933  A$hdmi$56
     00003934  A$hdmi$56 |    00003935  A$hdmi$56 |    00003936  A$hdmi$56
     00003938  A$hdmi$57 |    00003938  C$hdmi.c$ |    00003939  A$hdmi$57
     00003939  C$hdmi.c$ |    00003939  XG$hdmi_w |    0000393A  Fhdmi$__s
     00003946  A$hdmi$59 |    00003946  C$hdmi.c$ |    00003946  C$hdmi.c$
     00003946  G$hdmi_po |    00003946  _hdmi_pow |    00003949  A$hdmi$59
     0000394A  A$hdmi$59 |    0000394D  A$hdmi$59 |    0000394D  C$hdmi.c$
     00003950  A$hdmi$60 |    00003951  A$hdmi$60 |    00003954  A$hdmi$60
     00003954  C$hdmi.c$ |    00003957  A$hdmi$60 |    00003958  A$hdmi$60
     0000395B  A$hdmi$61 |    0000395B  C$hdmi.c$ |    0000395E  A$hdmi$61
     0000395F  A$hdmi$61 |    00003962  A$hdmi$61 |    00003962  C$hdmi.c$
     00003965  A$hdmi$61 |    00003966  A$hdmi$61 |    00003969  A$hdmi$62
     00003969  C$hdmi.c$ |    0000396C  A$hdmi$62 |    0000396D  A$hdmi$62
     00003970  A$hdmi$62 |    00003970  C$hdmi.c$ |    00003973  A$hdmi$63
     00003974  A$hdmi$63 |    00003977  A$hdmi$63 |    00003977  C$hdmi.c$
     0000397A  A$hdmi$63 |    0000397B  A$hdmi$63 |    0000397E  A$hdmi$64
     0000397E  C$hdmi.c$ |    00003981  A$hdmi$64 |    00003982  A$hdmi$64
     00003985  A$hdmi$64 |    00003985  C$hdmi.c$ |    00003988  A$hdmi$64
     00003989  A$hdmi$64 |    0000398C  A$hdmi$65 |    0000398C  C$hdmi.c$
     0000398F  A$hdmi$65 |    00003990  A$hdmi$65 |    00003993  A$hdmi$65
     00003993  C$hdmi.c$ |    00003996  A$hdmi$66 |    00003997  A$hdmi$66
     0000399A  A$hdmi$66 |    0000399A  C$hdmi.c$ |    0000399D  A$hdmi$66
     0000399E  A$hdmi$66 |    000039A1  A$hdmi$67 |    000039A1  C$hdmi.c$
     000039A4  A$hdmi$67 |    000039A5  A$hdmi$67 |    000039A8  A$hdmi$67
     000039A8  C$hdmi.c$ |    000039AB  A$hdmi$67 |    000039AC  A$hdmi$67
     000039AF  A$hdmi$68 |    000039AF  C$hdmi.c$ |    000039B2  A$hdmi$68
     000039B3  A$hdmi$68 |    000039B6  A$hdmi$68 |    000039B6  C$hdmi.c$
     000039B9  A$hdmi$69 |    000039BA  A$hdmi$69 |    000039BD  A$hdmi$69
     000039BD  C$hdmi.c$ |    000039C0  A$hdmi$69 |    000039C1  A$hdmi$69
     000039C4  A$hdmi$70 |    000039C4  C$hdmi.c$ |    000039C7  A$hdmi$70
     000039C8  A$hdmi$70 |    000039CB  A$hdmi$70 |    000039CB  C$hdmi.c$
     000039CE  A$hdmi$70 |    000039CF  A$hdmi$70 |    000039D2  A$hdmi$71
     000039D2  C$hdmi.c$ |    000039D5  A$hdmi$71 |    000039D6  A$hdmi$71
     000039D9  A$hdmi$71 |    000039D9  C$hdmi.c$ |    000039DC  A$hdmi$72
     000039DD  A$hdmi$72 |    000039E0  A$hdmi$72 |    000039E0  C$hdmi.c$
     000039E3  A$hdmi$72 |    000039E4  A$hdmi$72 |    000039E7  A$hdmi$73
     000039E7  C$hdmi.c$ |    000039EA  A$hdmi$73 |    000039EB  A$hdmi$73
     000039EE  A$hdmi$73 |    000039EE  C$hdmi.c$ |    000039F1  A$hdmi$73
     000039F2  A$hdmi$73 |    000039F5  A$hdmi$74 |    000039F6  A$hdmi$74
     000039F6  C$hdmi.c$ |    000039F6  XG$hdmi_p |    000039F7  A$hdmi$76
ASxxxx Linker V03.00 + NoICE + sdld,  page 51.
Hexadecimal  [32-Bits]

Area                       Addr        Size        Decimal Bytes (Attributes)
--------------------       ----        ----        ------- ----- ------------
_CODE                  00000000    000084DB =       34011. bytes (REL,CON)

        Value  Global            Value  Global            Value  Global    
        -----  ------            -----  ------            -----  ------    
     000039F7  C$hdmi.c$ |    000039F7  C$hdmi.c$ |    000039F7  G$hdmi_po
     000039F7  _hdmi_pow |    000039F9  A$hdmi$76 |    000039FA  A$hdmi$76
     000039FB  A$hdmi$76 |    000039FE  A$hdmi$76 |    000039FF  A$hdmi$76
     00003A00  A$hdmi$76 |    00003A02  A$hdmi$76 |    00003A03  A$hdmi$76
     00003A04  A$hdmi$77 |    00003A06  A$hdmi$77 |    00003A07  A$hdmi$77
     00003A08  A$hdmi$77 |    00003A0B  A$hdmi$77 |    00003A0C  A$hdmi$78
     00003A0C  C$hdmi.c$ |    00003A0C  XG$hdmi_p |    00003A0D  A$hdmi$79
     00003A0D  C$hdmi.c$ |    00003A0D  C$hdmi.c$ |    00003A0D  G$hdmiPro
     00003A0D  _hdmiProc |    00003A0F  A$hdmi$79 |    00003A10  A$hdmi$79
     00003A11  A$hdmi$79 |    00003A14  A$hdmi$79 |    00003A15  A$hdmi$80
     00003A16  A$hdmi$80 |    00003A18  A$hdmi$80 |    00003A19  A$hdmi$80
     00003A1B  A$hdmi$80 |    00003A1C  A$hdmi$80 |    00003A1E  A$hdmi$80
     00003A1F  A$hdmi$80 |    00003A21  A$hdmi$80 |    00003A23  A$hdmi$80
     00003A24  A$hdmi$81 |    00003A25  A$hdmi$81 |    00003A28  A$hdmi$81
     00003A29  A$hdmi$81 |    00003A2B  A$hdmi$81 |    00003A2D  A$hdmi$81
     00003A2D  C$hdmi.c$ |    00003A30  A$hdmi$82 |    00003A30  C$hdmi.c$
     00003A33  A$hdmi$82 |    00003A34  A$hdmi$82 |    00003A37  A$hdmi$82
     00003A38  A$hdmi$82 |    00003A38  C$hdmi.c$ |    00003A39  A$hdmi$83
     00003A39  C$hdmi.c$ |    00003A3B  A$hdmi$83 |    00003A3C  A$hdmi$83
     00003A3D  A$hdmi$83 |    00003A40  A$hdmi$83 |    00003A41  A$hdmi$83
     00003A42  A$hdmi$84 |    00003A44  A$hdmi$84 |    00003A45  A$hdmi$84
     00003A47  A$hdmi$84 |    00003A48  A$hdmi$84 |    00003A4A  A$hdmi$84
     00003A4B  A$hdmi$84 |    00003A4C  A$hdmi$85 |    00003A4C  C$hdmi.c$
     00003A4E  A$hdmi$85 |    00003A4F  A$hdmi$85 |    00003A50  A$hdmi$85
     00003A53  A$hdmi$85 |    00003A54  A$hdmi$85 |    00003A56  A$hdmi$85
     00003A58  A$hdmi$86 |    00003A58  C$hdmi.c$ |    00003A5A  A$hdmi$86
     00003A5B  A$hdmi$86 |    00003A5C  A$hdmi$86 |    00003A5F  A$hdmi$86
     00003A60  A$hdmi$86 |    00003A62  A$hdmi$86 |    00003A63  A$hdmi$87
     00003A63  C$hdmi.c$ |    00003A66  A$hdmi$87 |    00003A66  C$hdmi.c$
     00003A69  A$hdmi$87 |    00003A6A  A$hdmi$87 |    00003A6D  A$hdmi$87
     00003A6E  A$hdmi$88 |    00003A6E  C$hdmi.c$ |    00003A6E  XG$hdmiPr
     00003A6F  Fhdmi$__s |    00003A7F  Fhdmi$__s |    00003A8D  A$interru
     00003A8D  C$interru |    00003A8D  C$interru |    00003A8D  G$nmi_han
     00003A8D  XG$nmi_ha |    00003A8D  _nmi_hand |    00003A8E  A$interru
     00003A8E  C$interru |    00003A8E  C$interru |    00003A8E  G$int_han
     00003A8E  _int_hand |    00003A90  A$interru |    00003A91  A$interru
     00003A92  A$interru |    00003A95  A$interru |    00003A96  A$interru
     00003A96  C$interru |    00003A96  C$interru |    00003A96  XG$int_ha
     00003A97  A$keyboar |    00003A97  C$keyboar |    00003A97  G$pause$0
     00003A97  _pause    |    00003A99  A$keyboar |    00003A9D  A$keyboar
     00003A9F  A$keyboar |    00003AA0  A$keyboar |    00003AA1  A$keyboar
     00003AA1  C$keyboar |    00003AA4  A$keyboar |    00003AA7  A$keyboar
     00003AA8  A$keyboar |    00003AA9  A$keyboar |    00003AAB  A$keyboar
     00003AAE  A$keyboar |    00003AAF  A$keyboar |    00003AB1  A$keyboar
     00003AB4  A$keyboar |    00003AB5  A$keyboar |    00003AB7  A$keyboar
     00003ABA  A$keyboar |    00003ABB  A$keyboar |    00003ABD  A$keyboar
     00003AC0  A$keyboar |    00003AC3  A$keyboar |    00003AC6  A$keyboar
     00003AC9  A$keyboar |    00003ACC  A$keyboar |    00003ACF  A$keyboar
     00003AD2  A$keyboar |    00003AD5  A$keyboar |    00003AD8  A$keyboar
     00003ADA  A$keyboar |    00003ADC  A$keyboar |    00003ADE  A$keyboar
     00003ADE  C$keyboar |    00003ADE  XG$pause$ |    00003ADF  A$keyboar
ASxxxx Linker V03.00 + NoICE + sdld,  page 52.
Hexadecimal  [32-Bits]

Area                       Addr        Size        Decimal Bytes (Attributes)
--------------------       ----        ----        ------- ----- ------------
_CODE                  00000000    000084DB =       34011. bytes (REL,CON)

        Value  Global            Value  Global            Value  Global    
        -----  ------            -----  ------            -----  ------    
     00003ADF  C$keyboar |    00003ADF  G$hid_to_ |    00003ADF  _hid_to_s
     00003AE1  A$keyboar |    00003AE5  A$keyboar |    00003AE7  A$keyboar
     00003AEA  A$keyboar |    00003AEB  A$keyboar |    00003AEC  A$keyboar
     00003AEC  C$keyboar |    00003AEF  A$keyboar |    00003AF0  A$keyboar
     00003AF1  A$keyboar |    00003AF2  A$keyboar |    00003AF4  A$keyboar
     00003AF5  A$keyboar |    00003AF7  A$keyboar |    00003AF8  A$keyboar
     00003AF9  A$keyboar |    00003AFA  A$keyboar |    00003AFB  A$keyboar
     00003AFD  A$keyboar |    00003AFE  A$keyboar |    00003B00  A$keyboar
     00003B03  A$keyboar |    00003B04  A$keyboar |    00003B06  A$keyboar
     00003B07  A$keyboar |    00003B09  A$keyboar |    00003B0C  A$keyboar
     00003B0D  A$keyboar |    00003B0F  A$keyboar |    00003B10  A$keyboar
     00003B12  A$keyboar |    00003B15  A$keyboar |    00003B16  A$keyboar
     00003B18  A$keyboar |    00003B19  A$keyboar |    00003B1B  A$keyboar
     00003B1E  A$keyboar |    00003B1F  A$keyboar |    00003B21  A$keyboar
     00003B22  A$keyboar |    00003B24  A$keyboar |    00003B27  A$keyboar
     00003B28  A$keyboar |    00003B2A  A$keyboar |    00003B2B  A$keyboar
     00003B2D  A$keyboar |    00003B30  A$keyboar |    00003B31  A$keyboar
     00003B33  A$keyboar |    00003B34  A$keyboar |    00003B36  A$keyboar
     00003B39  A$keyboar |    00003B3A  A$keyboar |    00003B3C  A$keyboar
     00003B3D  A$keyboar |    00003B3F  A$keyboar |    00003B42  A$keyboar
     00003B43  A$keyboar |    00003B45  A$keyboar |    00003B46  A$keyboar
     00003B48  A$keyboar |    00003B4B  A$keyboar |    00003B4C  A$keyboar
     00003B4E  A$keyboar |    00003B4F  A$keyboar |    00003B51  A$keyboar
     00003B54  A$keyboar |    00003B55  A$keyboar |    00003B57  A$keyboar
     00003B58  A$keyboar |    00003B5A  A$keyboar |    00003B5D  A$keyboar
     00003B5E  A$keyboar |    00003B60  A$keyboar |    00003B61  A$keyboar
     00003B63  A$keyboar |    00003B66  A$keyboar |    00003B67  A$keyboar
     00003B69  A$keyboar |    00003B6A  A$keyboar |    00003B6C  A$keyboar
     00003B6F  A$keyboar |    00003B70  A$keyboar |    00003B72  A$keyboar
     00003B73  A$keyboar |    00003B75  A$keyboar |    00003B78  A$keyboar
     00003B79  A$keyboar |    00003B7B  A$keyboar |    00003B7C  A$keyboar
     00003B7E  A$keyboar |    00003B81  A$keyboar |    00003B82  A$keyboar
     00003B84  A$keyboar |    00003B85  A$keyboar |    00003B87  A$keyboar
     00003B8A  A$keyboar |    00003B8B  A$keyboar |    00003B8D  A$keyboar
     00003B8E  A$keyboar |    00003B90  A$keyboar |    00003B93  A$keyboar
     00003B94  A$keyboar |    00003B96  A$keyboar |    00003B97  A$keyboar
     00003B99  A$keyboar |    00003B9C  A$keyboar |    00003B9D  A$keyboar
     00003B9F  A$keyboar |    00003BA0  A$keyboar |    00003BA2  A$keyboar
     00003BA5  A$keyboar |    00003BA6  A$keyboar |    00003BA8  A$keyboar
     00003BA9  A$keyboar |    00003BAB  A$keyboar |    00003BAE  A$keyboar
     00003BAF  A$keyboar |    00003BB1  A$keyboar |    00003BB2  A$keyboar
     00003BB4  A$keyboar |    00003BB7  A$keyboar |    00003BB8  A$keyboar
     00003BBA  A$keyboar |    00003BBB  A$keyboar |    00003BBD  A$keyboar
     00003BC0  A$keyboar |    00003BC1  A$keyboar |    00003BC3  A$keyboar
     00003BC4  A$keyboar |    00003BC6  A$keyboar |    00003BC9  A$keyboar
     00003BCA  A$keyboar |    00003BCC  A$keyboar |    00003BCD  A$keyboar
     00003BCF  A$keyboar |    00003BD2  A$keyboar |    00003BD3  A$keyboar
     00003BD5  A$keyboar |    00003BD6  A$keyboar |    00003BD8  A$keyboar
     00003BDB  A$keyboar |    00003BDC  A$keyboar |    00003BDE  A$keyboar
     00003BDF  A$keyboar |    00003BE1  A$keyboar |    00003BE4  A$keyboar
     00003BE5  A$keyboar |    00003BE7  A$keyboar |    00003BE8  A$keyboar
ASxxxx Linker V03.00 + NoICE + sdld,  page 53.
Hexadecimal  [32-Bits]

Area                       Addr        Size        Decimal Bytes (Attributes)
--------------------       ----        ----        ------- ----- ------------
_CODE                  00000000    000084DB =       34011. bytes (REL,CON)

        Value  Global            Value  Global            Value  Global    
        -----  ------            -----  ------            -----  ------    
     00003BEA  A$keyboar |    00003BED  A$keyboar |    00003BEE  A$keyboar
     00003BF0  A$keyboar |    00003BF1  A$keyboar |    00003BF3  A$keyboar
     00003BF6  A$keyboar |    00003BF7  A$keyboar |    00003BF9  A$keyboar
     00003BFA  A$keyboar |    00003BFC  A$keyboar |    00003BFF  A$keyboar
     00003C00  A$keyboar |    00003C02  A$keyboar |    00003C03  A$keyboar
     00003C05  A$keyboar |    00003C08  A$keyboar |    00003C09  A$keyboar
     00003C0B  A$keyboar |    00003C0C  A$keyboar |    00003C0E  A$keyboar
     00003C11  A$keyboar |    00003C12  A$keyboar |    00003C14  A$keyboar
     00003C15  A$keyboar |    00003C17  A$keyboar |    00003C1A  A$keyboar
     00003C1B  A$keyboar |    00003C1D  A$keyboar |    00003C1E  A$keyboar
     00003C20  A$keyboar |    00003C23  A$keyboar |    00003C24  A$keyboar
     00003C26  A$keyboar |    00003C27  A$keyboar |    00003C29  A$keyboar
     00003C2C  A$keyboar |    00003C2D  A$keyboar |    00003C2F  A$keyboar
     00003C30  A$keyboar |    00003C32  A$keyboar |    00003C35  A$keyboar
     00003C36  A$keyboar |    00003C38  A$keyboar |    00003C39  A$keyboar
     00003C3B  A$keyboar |    00003C3E  A$keyboar |    00003C3F  A$keyboar
     00003C41  A$keyboar |    00003C42  A$keyboar |    00003C44  A$keyboar
     00003C47  A$keyboar |    00003C48  A$keyboar |    00003C4A  A$keyboar
     00003C4B  A$keyboar |    00003C4D  A$keyboar |    00003C50  A$keyboar
     00003C51  A$keyboar |    00003C53  A$keyboar |    00003C54  A$keyboar
     00003C56  A$keyboar |    00003C59  A$keyboar |    00003C5A  A$keyboar
     00003C5C  A$keyboar |    00003C5D  A$keyboar |    00003C5F  A$keyboar
     00003C62  A$keyboar |    00003C63  A$keyboar |    00003C65  A$keyboar
     00003C66  A$keyboar |    00003C68  A$keyboar |    00003C6B  A$keyboar
     00003C6C  A$keyboar |    00003C6E  A$keyboar |    00003C6F  A$keyboar
     00003C71  A$keyboar |    00003C74  A$keyboar |    00003C75  A$keyboar
     00003C77  A$keyboar |    00003C78  A$keyboar |    00003C7A  A$keyboar
     00003C7D  A$keyboar |    00003C7E  A$keyboar |    00003C80  A$keyboar
     00003C81  A$keyboar |    00003C83  A$keyboar |    00003C86  A$keyboar
     00003C87  A$keyboar |    00003C89  A$keyboar |    00003C8A  A$keyboar
     00003C8C  A$keyboar |    00003C8F  A$keyboar |    00003C90  A$keyboar
     00003C92  A$keyboar |    00003C93  A$keyboar |    00003C95  A$keyboar
     00003C98  A$keyboar |    00003C99  A$keyboar |    00003C9B  A$keyboar
     00003C9C  A$keyboar |    00003C9E  A$keyboar |    00003CA1  A$keyboar
     00003CA2  A$keyboar |    00003CA4  A$keyboar |    00003CA5  A$keyboar
     00003CA7  A$keyboar |    00003CAA  A$keyboar |    00003CAB  A$keyboar
     00003CAD  A$keyboar |    00003CAE  A$keyboar |    00003CB0  A$keyboar
     00003CB3  A$keyboar |    00003CB4  A$keyboar |    00003CB6  A$keyboar
     00003CB7  A$keyboar |    00003CB9  A$keyboar |    00003CBC  A$keyboar
     00003CBD  A$keyboar |    00003CBF  A$keyboar |    00003CC0  A$keyboar
     00003CC2  A$keyboar |    00003CC5  A$keyboar |    00003CC6  A$keyboar
     00003CC8  A$keyboar |    00003CC9  A$keyboar |    00003CCB  A$keyboar
     00003CCE  A$keyboar |    00003CCF  A$keyboar |    00003CD1  A$keyboar
     00003CD2  A$keyboar |    00003CD4  A$keyboar |    00003CD7  A$keyboar
     00003CD8  A$keyboar |    00003CDA  A$keyboar |    00003CDB  A$keyboar
     00003CDD  A$keyboar |    00003CE0  A$keyboar |    00003CE1  A$keyboar
     00003CE3  A$keyboar |    00003CE4  A$keyboar |    00003CE6  A$keyboar
     00003CE9  A$keyboar |    00003CEA  A$keyboar |    00003CEC  A$keyboar
     00003CED  A$keyboar |    00003CEF  A$keyboar |    00003CF2  A$keyboar
     00003CF3  A$keyboar |    00003CF5  A$keyboar |    00003CF6  A$keyboar
     00003CF8  A$keyboar |    00003CFB  A$keyboar |    00003CFC  A$keyboar
ASxxxx Linker V03.00 + NoICE + sdld,  page 54.
Hexadecimal  [32-Bits]

Area                       Addr        Size        Decimal Bytes (Attributes)
--------------------       ----        ----        ------- ----- ------------
_CODE                  00000000    000084DB =       34011. bytes (REL,CON)

        Value  Global            Value  Global            Value  Global    
        -----  ------            -----  ------            -----  ------    
     00003CFE  A$keyboar |    00003CFF  A$keyboar |    00003D01  A$keyboar
     00003D04  A$keyboar |    00003D05  A$keyboar |    00003D07  A$keyboar
     00003D08  A$keyboar |    00003D0A  A$keyboar |    00003D0D  A$keyboar
     00003D0E  A$keyboar |    00003D10  A$keyboar |    00003D11  A$keyboar
     00003D13  A$keyboar |    00003D16  A$keyboar |    00003D17  A$keyboar
     00003D19  A$keyboar |    00003D1A  A$keyboar |    00003D1C  A$keyboar
     00003D1F  A$keyboar |    00003D20  A$keyboar |    00003D22  A$keyboar
     00003D23  A$keyboar |    00003D25  A$keyboar |    00003D28  A$keyboar
     00003D29  A$keyboar |    00003D2B  A$keyboar |    00003D2C  A$keyboar
     00003D2E  A$keyboar |    00003D31  A$keyboar |    00003D32  A$keyboar
     00003D34  A$keyboar |    00003D35  A$keyboar |    00003D37  A$keyboar
     00003D3A  A$keyboar |    00003D3B  A$keyboar |    00003D3D  A$keyboar
     00003D3E  A$keyboar |    00003D40  A$keyboar |    00003D43  A$keyboar
     00003D44  A$keyboar |    00003D46  A$keyboar |    00003D47  A$keyboar
     00003D49  A$keyboar |    00003D4C  A$keyboar |    00003D4D  A$keyboar
     00003D4F  A$keyboar |    00003D50  A$keyboar |    00003D52  A$keyboar
     00003D55  A$keyboar |    00003D56  A$keyboar |    00003D58  A$keyboar
     00003D59  A$keyboar |    00003D5B  A$keyboar |    00003D5E  A$keyboar
     00003D5F  A$keyboar |    00003D61  A$keyboar |    00003D62  A$keyboar
     00003D64  A$keyboar |    00003D67  A$keyboar |    00003D68  A$keyboar
     00003D6A  A$keyboar |    00003D6B  A$keyboar |    00003D6D  A$keyboar
     00003D70  A$keyboar |    00003D71  A$keyboar |    00003D73  A$keyboar
     00003D74  A$keyboar |    00003D76  A$keyboar |    00003D79  A$keyboar
     00003D7A  A$keyboar |    00003D7C  A$keyboar |    00003D7D  A$keyboar
     00003D7F  A$keyboar |    00003D82  A$keyboar |    00003D83  A$keyboar
     00003D85  A$keyboar |    00003D86  A$keyboar |    00003D88  A$keyboar
     00003D8B  A$keyboar |    00003D8C  A$keyboar |    00003D8E  A$keyboar
     00003D8F  A$keyboar |    00003D91  A$keyboar |    00003D94  A$keyboar
     00003D95  A$keyboar |    00003D97  A$keyboar |    00003D98  A$keyboar
     00003D9A  A$keyboar |    00003D9D  A$keyboar |    00003D9E  A$keyboar
     00003DA0  A$keyboar |    00003DA1  A$keyboar |    00003DA3  A$keyboar
     00003DA6  A$keyboar |    00003DA7  A$keyboar |    00003DA9  A$keyboar
     00003DAA  A$keyboar |    00003DAC  A$keyboar |    00003DAF  A$keyboar
     00003DB0  A$keyboar |    00003DB2  A$keyboar |    00003DB3  A$keyboar
     00003DB5  A$keyboar |    00003DB8  A$keyboar |    00003DB9  A$keyboar
     00003DBB  A$keyboar |    00003DBC  A$keyboar |    00003DBE  A$keyboar
     00003DC1  A$keyboar |    00003DC2  A$keyboar |    00003DC4  A$keyboar
     00003DC5  A$keyboar |    00003DC7  A$keyboar |    00003DCA  A$keyboar
     00003DCB  A$keyboar |    00003DCD  A$keyboar |    00003DCE  A$keyboar
     00003DD0  A$keyboar |    00003DD3  A$keyboar |    00003DD4  A$keyboar
     00003DD6  A$keyboar |    00003DD7  A$keyboar |    00003DD9  A$keyboar
     00003DDC  A$keyboar |    00003DDD  A$keyboar |    00003DDF  A$keyboar
     00003DE0  A$keyboar |    00003DE2  A$keyboar |    00003DE5  A$keyboar
     00003DE6  A$keyboar |    00003DE8  A$keyboar |    00003DE9  A$keyboar
     00003DEB  A$keyboar |    00003DEE  A$keyboar |    00003DEF  A$keyboar
     00003DF1  A$keyboar |    00003DF2  A$keyboar |    00003DF4  A$keyboar
     00003DF7  A$keyboar |    00003DF8  A$keyboar |    00003DFA  A$keyboar
     00003DFB  A$keyboar |    00003DFD  A$keyboar |    00003E00  A$keyboar
     00003E01  A$keyboar |    00003E03  A$keyboar |    00003E04  A$keyboar
     00003E06  A$keyboar |    00003E09  A$keyboar |    00003E0A  A$keyboar
     00003E0C  A$keyboar |    00003E0D  A$keyboar |    00003E0F  A$keyboar
ASxxxx Linker V03.00 + NoICE + sdld,  page 55.
Hexadecimal  [32-Bits]

Area                       Addr        Size        Decimal Bytes (Attributes)
--------------------       ----        ----        ------- ----- ------------
_CODE                  00000000    000084DB =       34011. bytes (REL,CON)

        Value  Global            Value  Global            Value  Global    
        -----  ------            -----  ------            -----  ------    
     00003E12  A$keyboar |    00003E13  A$keyboar |    00003E15  A$keyboar
     00003E16  A$keyboar |    00003E18  A$keyboar |    00003E1B  A$keyboar
     00003E1C  A$keyboar |    00003E1E  A$keyboar |    00003E1F  A$keyboar
     00003E21  A$keyboar |    00003E24  A$keyboar |    00003E25  A$keyboar
     00003E27  A$keyboar |    00003E28  A$keyboar |    00003E2A  A$keyboar
     00003E2D  A$keyboar |    00003E2E  A$keyboar |    00003E30  A$keyboar
     00003E31  A$keyboar |    00003E33  A$keyboar |    00003E36  A$keyboar
     00003E37  A$keyboar |    00003E39  A$keyboar |    00003E3A  A$keyboar
     00003E3C  A$keyboar |    00003E3F  A$keyboar |    00003E40  A$keyboar
     00003E42  A$keyboar |    00003E43  A$keyboar |    00003E45  A$keyboar
     00003E48  A$keyboar |    00003E49  A$keyboar |    00003E4B  A$keyboar
     00003E4C  A$keyboar |    00003E4E  A$keyboar |    00003E51  A$keyboar
     00003E52  A$keyboar |    00003E54  A$keyboar |    00003E55  A$keyboar
     00003E57  A$keyboar |    00003E5A  A$keyboar |    00003E5B  A$keyboar
     00003E5D  A$keyboar |    00003E5E  A$keyboar |    00003E60  A$keyboar
     00003E63  A$keyboar |    00003E64  A$keyboar |    00003E66  A$keyboar
     00003E67  A$keyboar |    00003E69  A$keyboar |    00003E6C  A$keyboar
     00003E6D  A$keyboar |    00003E6F  A$keyboar |    00003E70  A$keyboar
     00003E72  A$keyboar |    00003E72  C$keyboar |    00003E75  A$keyboar
     00003E76  A$keyboar |    00003E77  A$keyboar |    00003E78  A$keyboar
     00003E79  A$keyboar |    00003E7B  A$keyboar |    00003E7C  A$keyboar
     00003E7E  A$keyboar |    00003E7F  A$keyboar |    00003E80  A$keyboar
     00003E81  A$keyboar |    00003E82  A$keyboar |    00003E84  A$keyboar
     00003E85  A$keyboar |    00003E87  A$keyboar |    00003E8A  A$keyboar
     00003E8B  A$keyboar |    00003E8D  A$keyboar |    00003E8E  A$keyboar
     00003E90  A$keyboar |    00003E93  A$keyboar |    00003E94  A$keyboar
     00003E96  A$keyboar |    00003E97  A$keyboar |    00003E99  A$keyboar
     00003E9C  A$keyboar |    00003E9D  A$keyboar |    00003E9F  A$keyboar
     00003EA0  A$keyboar |    00003EA2  A$keyboar |    00003EA5  A$keyboar
     00003EA6  A$keyboar |    00003EA8  A$keyboar |    00003EA9  A$keyboar
     00003EAB  A$keyboar |    00003EAE  A$keyboar |    00003EAF  A$keyboar
     00003EB1  A$keyboar |    00003EB2  A$keyboar |    00003EB4  A$keyboar
     00003EB7  A$keyboar |    00003EB8  A$keyboar |    00003EBA  A$keyboar
     00003EBB  A$keyboar |    00003EBD  A$keyboar |    00003EC0  A$keyboar
     00003EC1  A$keyboar |    00003EC3  A$keyboar |    00003EC4  A$keyboar
     00003EC6  A$keyboar |    00003EC9  A$keyboar |    00003ECA  A$keyboar
     00003ECC  A$keyboar |    00003ECD  A$keyboar |    00003ECF  A$keyboar
     00003ED2  A$keyboar |    00003ED3  A$keyboar |    00003ED5  A$keyboar
     00003ED6  A$keyboar |    00003ED8  A$keyboar |    00003EDB  A$keyboar
     00003EDC  A$keyboar |    00003EDE  A$keyboar |    00003EDF  A$keyboar
     00003EE1  A$keyboar |    00003EE4  A$keyboar |    00003EE5  A$keyboar
     00003EE7  A$keyboar |    00003EE8  A$keyboar |    00003EEA  A$keyboar
     00003EED  A$keyboar |    00003EEE  A$keyboar |    00003EF0  A$keyboar
     00003EF1  A$keyboar |    00003EF3  A$keyboar |    00003EF6  A$keyboar
     00003EF7  A$keyboar |    00003EF9  A$keyboar |    00003EFA  A$keyboar
     00003EFC  A$keyboar |    00003EFF  A$keyboar |    00003F00  A$keyboar
     00003F02  A$keyboar |    00003F03  A$keyboar |    00003F05  A$keyboar
     00003F08  A$keyboar |    00003F09  A$keyboar |    00003F0B  A$keyboar
     00003F0C  A$keyboar |    00003F0E  A$keyboar |    00003F11  A$keyboar
     00003F12  A$keyboar |    00003F14  A$keyboar |    00003F15  A$keyboar
     00003F17  A$keyboar |    00003F1A  A$keyboar |    00003F1B  A$keyboar
ASxxxx Linker V03.00 + NoICE + sdld,  page 56.
Hexadecimal  [32-Bits]

Area                       Addr        Size        Decimal Bytes (Attributes)
--------------------       ----        ----        ------- ----- ------------
_CODE                  00000000    000084DB =       34011. bytes (REL,CON)

        Value  Global            Value  Global            Value  Global    
        -----  ------            -----  ------            -----  ------    
     00003F1D  A$keyboar |    00003F1E  A$keyboar |    00003F20  A$keyboar
     00003F23  A$keyboar |    00003F24  A$keyboar |    00003F26  A$keyboar
     00003F27  A$keyboar |    00003F29  A$keyboar |    00003F2C  A$keyboar
     00003F2D  A$keyboar |    00003F2F  A$keyboar |    00003F30  A$keyboar
     00003F32  A$keyboar |    00003F35  A$keyboar |    00003F36  A$keyboar
     00003F38  A$keyboar |    00003F39  A$keyboar |    00003F3B  A$keyboar
     00003F3E  A$keyboar |    00003F3F  A$keyboar |    00003F41  A$keyboar
     00003F42  A$keyboar |    00003F44  A$keyboar |    00003F47  A$keyboar
     00003F48  A$keyboar |    00003F4A  A$keyboar |    00003F4B  A$keyboar
     00003F4D  A$keyboar |    00003F50  A$keyboar |    00003F51  A$keyboar
     00003F53  A$keyboar |    00003F54  A$keyboar |    00003F56  A$keyboar
     00003F59  A$keyboar |    00003F5A  A$keyboar |    00003F5C  A$keyboar
     00003F5D  A$keyboar |    00003F5F  A$keyboar |    00003F62  A$keyboar
     00003F63  A$keyboar |    00003F65  A$keyboar |    00003F66  A$keyboar
     00003F68  A$keyboar |    00003F6B  A$keyboar |    00003F6C  A$keyboar
     00003F6E  A$keyboar |    00003F6F  A$keyboar |    00003F71  A$keyboar
     00003F74  A$keyboar |    00003F75  A$keyboar |    00003F77  A$keyboar
     00003F78  A$keyboar |    00003F7A  A$keyboar |    00003F7D  A$keyboar
     00003F7E  A$keyboar |    00003F80  A$keyboar |    00003F81  A$keyboar
     00003F83  A$keyboar |    00003F86  A$keyboar |    00003F87  A$keyboar
     00003F89  A$keyboar |    00003F8A  A$keyboar |    00003F8C  A$keyboar
     00003F8F  A$keyboar |    00003F90  A$keyboar |    00003F92  A$keyboar
     00003F93  A$keyboar |    00003F95  A$keyboar |    00003F98  A$keyboar
     00003F99  A$keyboar |    00003F9B  A$keyboar |    00003F9C  A$keyboar
     00003F9E  A$keyboar |    00003FA1  A$keyboar |    00003FA2  A$keyboar
     00003FA4  A$keyboar |    00003FA5  A$keyboar |    00003FA7  A$keyboar
     00003FAA  A$keyboar |    00003FAB  A$keyboar |    00003FAD  A$keyboar
     00003FAE  A$keyboar |    00003FB0  A$keyboar |    00003FB3  A$keyboar
     00003FB4  A$keyboar |    00003FB6  A$keyboar |    00003FB7  A$keyboar
     00003FB9  A$keyboar |    00003FBC  A$keyboar |    00003FBD  A$keyboar
     00003FBF  A$keyboar |    00003FC0  A$keyboar |    00003FC2  A$keyboar
     00003FC5  A$keyboar |    00003FC6  A$keyboar |    00003FC8  A$keyboar
     00003FC9  A$keyboar |    00003FCB  A$keyboar |    00003FCE  A$keyboar
     00003FCF  A$keyboar |    00003FD1  A$keyboar |    00003FD2  A$keyboar
     00003FD4  A$keyboar |    00003FD7  A$keyboar |    00003FD8  A$keyboar
     00003FDA  A$keyboar |    00003FDB  A$keyboar |    00003FDD  A$keyboar
     00003FE0  A$keyboar |    00003FE1  A$keyboar |    00003FE3  A$keyboar
     00003FE4  A$keyboar |    00003FE6  A$keyboar |    00003FE9  A$keyboar
     00003FEA  A$keyboar |    00003FEC  A$keyboar |    00003FED  A$keyboar
     00003FEF  A$keyboar |    00003FF2  A$keyboar |    00003FF3  A$keyboar
     00003FF5  A$keyboar |    00003FF6  A$keyboar |    00003FF8  A$keyboar
     00003FFB  A$keyboar |    00003FFC  A$keyboar |    00003FFE  A$keyboar
     00003FFF  A$keyboar |    00004001  A$keyboar |    00004004  A$keyboar
     00004005  A$keyboar |    00004007  A$keyboar |    00004008  A$keyboar
     0000400A  A$keyboar |    0000400D  A$keyboar |    0000400E  A$keyboar
     00004010  A$keyboar |    00004011  A$keyboar |    00004013  A$keyboar
     00004016  A$keyboar |    00004017  A$keyboar |    00004019  A$keyboar
     0000401A  A$keyboar |    0000401C  A$keyboar |    0000401F  A$keyboar
     00004020  A$keyboar |    00004022  A$keyboar |    00004023  A$keyboar
     00004025  A$keyboar |    00004028  A$keyboar |    00004029  A$keyboar
     0000402B  A$keyboar |    0000402C  A$keyboar |    0000402E  A$keyboar
ASxxxx Linker V03.00 + NoICE + sdld,  page 57.
Hexadecimal  [32-Bits]

Area                       Addr        Size        Decimal Bytes (Attributes)
--------------------       ----        ----        ------- ----- ------------
_CODE                  00000000    000084DB =       34011. bytes (REL,CON)

        Value  Global            Value  Global            Value  Global    
        -----  ------            -----  ------            -----  ------    
     00004031  A$keyboar |    00004032  A$keyboar |    00004034  A$keyboar
     00004035  A$keyboar |    00004037  A$keyboar |    0000403A  A$keyboar
     0000403B  A$keyboar |    0000403D  A$keyboar |    0000403E  A$keyboar
     00004040  A$keyboar |    00004043  A$keyboar |    00004044  A$keyboar
     00004046  A$keyboar |    00004047  A$keyboar |    00004049  A$keyboar
     0000404C  A$keyboar |    0000404D  A$keyboar |    0000404F  A$keyboar
     00004050  A$keyboar |    00004052  A$keyboar |    00004055  A$keyboar
     00004056  A$keyboar |    00004058  A$keyboar |    00004059  A$keyboar
     0000405B  A$keyboar |    0000405E  A$keyboar |    0000405F  A$keyboar
     00004061  A$keyboar |    00004062  A$keyboar |    00004064  A$keyboar
     00004067  A$keyboar |    00004068  A$keyboar |    0000406A  A$keyboar
     0000406B  A$keyboar |    0000406D  A$keyboar |    00004070  A$keyboar
     00004071  A$keyboar |    00004073  A$keyboar |    00004074  A$keyboar
     00004076  A$keyboar |    00004079  A$keyboar |    0000407A  A$keyboar
     0000407C  A$keyboar |    0000407D  A$keyboar |    0000407F  A$keyboar
     00004082  A$keyboar |    00004083  A$keyboar |    00004085  A$keyboar
     00004086  A$keyboar |    00004088  A$keyboar |    0000408B  A$keyboar
     0000408C  A$keyboar |    0000408E  A$keyboar |    0000408F  A$keyboar
     00004091  A$keyboar |    00004094  A$keyboar |    00004095  A$keyboar
     00004097  A$keyboar |    00004098  A$keyboar |    0000409A  A$keyboar
     0000409D  A$keyboar |    0000409E  A$keyboar |    000040A0  A$keyboar
     000040A1  A$keyboar |    000040A3  A$keyboar |    000040A6  A$keyboar
     000040A7  A$keyboar |    000040A9  A$keyboar |    000040AA  A$keyboar
     000040AC  A$keyboar |    000040AF  A$keyboar |    000040B0  A$keyboar
     000040B2  A$keyboar |    000040B3  A$keyboar |    000040B5  A$keyboar
     000040B8  A$keyboar |    000040B9  A$keyboar |    000040BB  A$keyboar
     000040BC  A$keyboar |    000040BE  A$keyboar |    000040C1  A$keyboar
     000040C2  A$keyboar |    000040C4  A$keyboar |    000040C5  A$keyboar
     000040C7  A$keyboar |    000040CA  A$keyboar |    000040CB  A$keyboar
     000040CD  A$keyboar |    000040CE  A$keyboar |    000040D0  A$keyboar
     000040D3  A$keyboar |    000040D4  A$keyboar |    000040D6  A$keyboar
     000040D7  A$keyboar |    000040D9  A$keyboar |    000040DC  A$keyboar
     000040DD  A$keyboar |    000040DF  A$keyboar |    000040E0  A$keyboar
     000040E2  A$keyboar |    000040E5  A$keyboar |    000040E6  A$keyboar
     000040E8  A$keyboar |    000040E9  A$keyboar |    000040EB  A$keyboar
     000040EE  A$keyboar |    000040EF  A$keyboar |    000040F1  A$keyboar
     000040F2  A$keyboar |    000040F4  A$keyboar |    000040F7  A$keyboar
     000040F8  A$keyboar |    000040FA  A$keyboar |    000040FB  A$keyboar
     000040FD  A$keyboar |    00004100  A$keyboar |    00004101  A$keyboar
     00004103  A$keyboar |    00004104  A$keyboar |    00004106  A$keyboar
     00004109  A$keyboar |    0000410A  A$keyboar |    0000410C  A$keyboar
     0000410D  A$keyboar |    0000410F  A$keyboar |    00004112  A$keyboar
     00004113  A$keyboar |    00004115  A$keyboar |    00004116  A$keyboar
     00004118  A$keyboar |    0000411B  A$keyboar |    0000411C  A$keyboar
     0000411E  A$keyboar |    0000411F  A$keyboar |    00004121  A$keyboar
     00004124  A$keyboar |    00004125  A$keyboar |    00004127  A$keyboar
     00004128  A$keyboar |    0000412A  A$keyboar |    0000412D  A$keyboar
     0000412E  A$keyboar |    00004130  A$keyboar |    00004131  A$keyboar
     00004133  A$keyboar |    00004136  A$keyboar |    00004137  A$keyboar
     00004139  A$keyboar |    0000413A  A$keyboar |    0000413C  A$keyboar
     0000413F  A$keyboar |    00004140  A$keyboar |    00004142  A$keyboar
ASxxxx Linker V03.00 + NoICE + sdld,  page 58.
Hexadecimal  [32-Bits]

Area                       Addr        Size        Decimal Bytes (Attributes)
--------------------       ----        ----        ------- ----- ------------
_CODE                  00000000    000084DB =       34011. bytes (REL,CON)

        Value  Global            Value  Global            Value  Global    
        -----  ------            -----  ------            -----  ------    
     00004143  A$keyboar |    00004145  A$keyboar |    00004148  A$keyboar
     00004149  A$keyboar |    0000414B  A$keyboar |    0000414C  A$keyboar
     0000414E  A$keyboar |    00004151  A$keyboar |    00004152  A$keyboar
     00004154  A$keyboar |    00004155  A$keyboar |    00004157  A$keyboar
     0000415A  A$keyboar |    0000415B  A$keyboar |    0000415D  A$keyboar
     0000415E  A$keyboar |    00004160  A$keyboar |    00004163  A$keyboar
     00004164  A$keyboar |    00004166  A$keyboar |    00004167  A$keyboar
     00004169  A$keyboar |    0000416C  A$keyboar |    0000416D  A$keyboar
     0000416F  A$keyboar |    00004170  A$keyboar |    00004172  A$keyboar
     00004175  A$keyboar |    00004176  A$keyboar |    00004178  A$keyboar
     00004179  A$keyboar |    0000417B  A$keyboar |    0000417E  A$keyboar
     0000417F  A$keyboar |    00004181  A$keyboar |    00004182  A$keyboar
     00004184  A$keyboar |    00004187  A$keyboar |    00004188  A$keyboar
     0000418A  A$keyboar |    0000418B  A$keyboar |    0000418D  A$keyboar
     00004190  A$keyboar |    00004191  A$keyboar |    00004193  A$keyboar
     00004194  A$keyboar |    00004196  A$keyboar |    00004199  A$keyboar
     0000419A  A$keyboar |    0000419C  A$keyboar |    0000419D  A$keyboar
     0000419F  A$keyboar |    000041A2  A$keyboar |    000041A3  A$keyboar
     000041A5  A$keyboar |    000041A6  A$keyboar |    000041A8  A$keyboar
     000041AB  A$keyboar |    000041AC  A$keyboar |    000041AE  A$keyboar
     000041AF  A$keyboar |    000041B1  A$keyboar |    000041B4  A$keyboar
     000041B5  A$keyboar |    000041B7  A$keyboar |    000041B8  A$keyboar
     000041BA  A$keyboar |    000041BD  A$keyboar |    000041BE  A$keyboar
     000041C0  A$keyboar |    000041C1  A$keyboar |    000041C3  A$keyboar
     000041C6  A$keyboar |    000041C7  A$keyboar |    000041C9  A$keyboar
     000041CA  A$keyboar |    000041CC  A$keyboar |    000041CF  A$keyboar
     000041D0  A$keyboar |    000041D2  A$keyboar |    000041D3  A$keyboar
     000041D5  A$keyboar |    000041D8  A$keyboar |    000041D9  A$keyboar
     000041DB  A$keyboar |    000041DC  A$keyboar |    000041DE  A$keyboar
     000041E1  A$keyboar |    000041E2  A$keyboar |    000041E4  A$keyboar
     000041E5  A$keyboar |    000041E7  A$keyboar |    000041EA  A$keyboar
     000041EB  A$keyboar |    000041ED  A$keyboar |    000041EE  A$keyboar
     000041F0  A$keyboar |    000041F3  A$keyboar |    000041F4  A$keyboar
     000041F6  A$keyboar |    000041F7  A$keyboar |    000041F9  A$keyboar
     000041F9  C$keyboar |    000041FB  A$keyboar |    000041FE  A$keyboar
     00004200  A$keyboar |    00004203  A$keyboar |    00004206  A$keyboar
     00004206  C$keyboar |    00004209  A$keyboar |    0000420B  A$keyboar
     0000420C  A$keyboar |    0000420F  A$keyboar |    00004212  A$keyboar
     00004213  A$keyboar |    00004216  A$keyboar |    00004219  A$keyboar
     0000421A  A$keyboar |    0000421D  A$keyboar |    00004220  A$keyboar
     00004223  A$keyboar |    00004224  A$keyboar |    00004227  A$keyboar
     00004229  A$keyboar |    00004229  C$keyboar |    0000422C  A$keyboar
     0000422D  A$keyboar |    00004230  A$keyboar |    00004233  A$keyboar
     00004234  A$keyboar |    00004237  A$keyboar |    00004237  C$keyboar
     0000423A  A$keyboar |    0000423B  A$keyboar |    0000423D  A$keyboar
     00004240  A$keyboar |    00004241  A$keyboar |    00004243  A$keyboar
     00004246  A$keyboar |    00004247  A$keyboar |    00004249  A$keyboar
     0000424C  A$keyboar |    0000424E  A$keyboar |    00004250  A$keyboar
     00004253  A$keyboar |    00004254  A$keyboar |    00004256  A$keyboar
     00004259  A$keyboar |    0000425B  A$keyboar |    0000425D  A$keyboar
     0000425F  A$keyboar |    0000425F  C$keyboar |    0000425F  C$keyboar
ASxxxx Linker V03.00 + NoICE + sdld,  page 59.
Hexadecimal  [32-Bits]

Area                       Addr        Size        Decimal Bytes (Attributes)
--------------------       ----        ----        ------- ----- ------------
_CODE                  00000000    000084DB =       34011. bytes (REL,CON)

        Value  Global            Value  Global            Value  Global    
        -----  ------            -----  ------            -----  ------    
     00004262  A$keyboar |    00004265  A$keyboar |    00004266  A$keyboar
     00004267  A$keyboar |    00004268  A$keyboar |    00004269  A$keyboar
     0000426B  A$keyboar |    0000426B  C$keyboar |    0000426B  C$keyboar
     0000426E  A$keyboar |    00004271  A$keyboar |    00004272  A$keyboar
     00004273  A$keyboar |    00004274  A$keyboar |    00004275  A$keyboar
     00004277  A$keyboar |    00004277  C$keyboar |    00004277  C$keyboar
     0000427A  A$keyboar |    0000427D  A$keyboar |    0000427E  A$keyboar
     0000427F  A$keyboar |    00004280  A$keyboar |    00004281  A$keyboar
     00004283  A$keyboar |    00004285  A$keyboar |    00004285  C$keyboar
     00004285  C$keyboar |    00004288  A$keyboar |    0000428B  A$keyboar
     0000428C  A$keyboar |    0000428D  A$keyboar |    0000428E  A$keyboar
     00004290  A$keyboar |    00004291  A$keyboar |    00004292  A$keyboar
     00004294  A$keyboar |    00004294  C$keyboar |    00004294  C$keyboar
     00004297  A$keyboar |    00004297  C$keyboar |    00004299  A$keyboar
     0000429B  A$keyboar |    0000429B  C$keyboar |    0000429B  XG$hid_to
     0000429C  A$keyboar |    0000429C  C$keyboar |    0000429C  C$keyboar
     0000429C  G$key_cle |    0000429C  _key_clea |    0000429F  A$keyboar
     000042A0  A$keyboar |    000042A3  A$keyboar |    000042A4  A$keyboar
     000042A4  C$keyboar |    000042A4  XG$key_cl |    000042A5  A$keyboar
     000042A5  C$keyboar |    000042A5  C$keyboar |    000042A5  G$update$
     000042A5  _update   |    000042A8  A$keyboar |    000042A9  A$keyboar
     000042AC  A$keyboar |    000042AD  A$keyboar |    000042AD  C$keyboar
     000042AD  XG$update |    000042AE  A$keyboar |    000042AE  C$keyboar
     000042AE  G$setLRep |    000042AE  _setLRepo |    000042B0  A$keyboar
     000042B4  A$keyboar |    000042B6  A$keyboar |    000042B6  C$keyboar
     000042B9  A$keyboar |    000042BB  A$keyboar |    000042BD  A$keyboar
     000042BF  A$keyboar |    000042BF  C$keyboar |    000042C1  A$keyboar
     000042C1  C$keyboar |    000042C4  A$keyboar |    000042C8  A$keyboar
     000042CB  A$keyboar |    000042CD  A$keyboar |    000042CE  A$keyboar
     000042CF  A$keyboar |    000042D0  A$keyboar |    000042D1  A$keyboar
     000042D2  A$keyboar |    000042D2  C$keyboar |    000042D5  A$keyboar
     000042D8  A$keyboar |    000042DB  A$keyboar |    000042DD  A$keyboar
     000042DD  C$keyboar |    000042E0  A$keyboar |    000042E0  C$keyboar
     000042E3  A$keyboar |    000042E5  A$keyboar |    000042E5  C$keyboar
     000042E5  XG$setLRe |    000042E6  Fkeyboard |    0000431D  A$keyboar
     0000431D  C$keyboar |    0000431D  G$getLRep |    0000431D  _getLRepo
     0000431F  A$keyboar |    00004323  A$keyboar |    00004325  A$keyboar
     00004325  C$keyboar |    00004328  A$keyboar |    00004329  A$keyboar
     0000432B  A$keyboar |    0000432E  A$keyboar |    00004330  A$keyboar
     00004330  C$keyboar |    00004333  A$keyboar |    00004336  A$keyboar
     00004339  A$keyboar |    0000433C  A$keyboar |    0000433E  A$keyboar
     0000433E  C$keyboar |    00004341  A$keyboar |    00004344  A$keyboar
     00004347  A$keyboar |    00004349  A$keyboar |    00004349  C$keyboar
     0000434C  A$keyboar |    0000434D  A$keyboar |    0000434D  C$keyboar
     00004350  A$keyboar |    00004353  A$keyboar |    00004355  A$keyboar
     00004355  C$keyboar |    00004355  XG$getLRe |    00004356  A$keyboar
     00004356  C$keyboar |    00004356  G$kbdProc |    00004356  _kbdProce
     00004358  A$keyboar |    0000435C  A$keyboar |    0000435E  A$keyboar
     00004361  A$keyboar |    00004362  A$keyboar |    00004363  A$keyboar
     00004363  C$keyboar |    00004366  A$keyboar |    00004367  A$keyboar
     00004368  A$keyboar |    00004369  A$keyboar |    0000436A  A$keyboar
ASxxxx Linker V03.00 + NoICE + sdld,  page 60.
Hexadecimal  [32-Bits]

Area                       Addr        Size        Decimal Bytes (Attributes)
--------------------       ----        ----        ------- ----- ------------
_CODE                  00000000    000084DB =       34011. bytes (REL,CON)

        Value  Global            Value  Global            Value  Global    
        -----  ------            -----  ------            -----  ------    
     0000436B  A$keyboar |    0000436C  A$keyboar |    0000436D  A$keyboar
     00004370  A$keyboar |    00004371  A$keyboar |    00004372  A$keyboar
     00004373  A$keyboar |    00004374  A$keyboar |    00004375  A$keyboar
     00004377  A$keyboar |    00004378  A$keyboar |    00004379  A$keyboar
     0000437A  A$keyboar |    0000437B  A$keyboar |    0000437E  A$keyboar
     0000437F  A$keyboar |    00004380  A$keyboar |    00004381  A$keyboar
     00004382  A$keyboar |    00004385  A$keyboar |    00004385  C$keyboar
     00004388  A$keyboar |    00004389  A$keyboar |    0000438C  A$keyboar
     0000438F  A$keyboar |    00004390  A$keyboar |    00004392  A$keyboar
     00004394  A$keyboar |    00004395  A$keyboar |    00004397  A$keyboar
     00004398  A$keyboar |    00004398  C$keyboar |    00004399  A$keyboar
     0000439A  A$keyboar |    0000439C  A$keyboar |    0000439E  A$keyboar
     000043A1  A$keyboar |    000043A3  A$keyboar |    000043A6  A$keyboar
     000043A6  C$keyboar |    000043A7  A$keyboar |    000043A9  A$keyboar
     000043AB  A$keyboar |    000043AE  A$keyboar |    000043B0  A$keyboar
     000043B3  A$keyboar |    000043B4  A$keyboar |    000043B5  A$keyboar
     000043B6  A$keyboar |    000043B7  A$keyboar |    000043B8  A$keyboar
     000043B9  A$keyboar |    000043B9  C$keyboar |    000043BD  A$keyboar
     000043BD  C$keyboar |    000043C1  A$keyboar |    000043C5  A$keyboar
     000043C5  C$keyboar |    000043C8  A$keyboar |    000043CA  A$keyboar
     000043CB  A$keyboar |    000043CC  A$keyboar |    000043CD  A$keyboar
     000043CF  A$keyboar |    000043D0  A$keyboar |    000043D1  A$keyboar
     000043D2  A$keyboar |    000043D3  A$keyboar |    000043D4  A$keyboar
     000043D7  A$keyboar |    000043D8  A$keyboar |    000043D9  A$keyboar
     000043DA  A$keyboar |    000043DB  A$keyboar |    000043DE  A$keyboar
     000043E1  A$keyboar |    000043E1  C$keyboar |    000043E4  A$keyboar
     000043E6  A$keyboar |    000043E9  A$keyboar |    000043EB  A$keyboar
     000043EB  C$keyboar |    000043EE  A$keyboar |    000043F0  A$keyboar
     000043F2  A$keyboar |    000043F4  A$keyboar |    000043F6  A$keyboar
     000043F8  A$keyboar |    000043FA  A$keyboar |    000043FC  A$keyboar
     000043FC  C$keyboar |    000043FF  A$keyboar |    00004401  A$keyboar
     00004404  A$keyboar |    00004404  C$keyboar |    00004406  A$keyboar
     00004407  A$keyboar |    00004409  A$keyboar |    0000440A  A$keyboar
     0000440D  A$keyboar |    0000440E  A$keyboar |    00004410  A$keyboar
     00004413  A$keyboar |    00004414  A$keyboar |    00004415  A$keyboar
     00004418  A$keyboar |    0000441B  A$keyboar |    0000441F  A$keyboar
     00004420  A$keyboar |    00004422  A$keyboar |    00004426  A$keyboar
     00004427  A$keyboar |    00004429  A$keyboar |    0000442C  A$keyboar
     0000442F  A$keyboar |    00004430  A$keyboar |    00004430  C$keyboar
     00004433  A$keyboar |    00004436  A$keyboar |    00004437  A$keyboar
     00004438  A$keyboar |    0000443C  A$keyboar |    0000443E  A$keyboar
     00004440  A$keyboar |    00004441  A$keyboar |    00004441  C$keyboar
     00004445  A$keyboar |    00004447  A$keyboar |    00004449  A$keyboar
     0000444A  A$keyboar |    0000444A  C$keyboar |    0000444D  A$keyboar
     00004450  A$keyboar |    00004452  A$keyboar |    00004455  A$keyboar
     00004455  C$keyboar |    00004457  A$keyboar |    00004457  C$keyboar
     0000445A  A$keyboar |    0000445D  A$keyboar |    0000445F  A$keyboar
     00004460  A$keyboar |    00004461  A$keyboar |    00004462  A$keyboar
     00004464  A$keyboar |    00004465  A$keyboar |    00004466  A$keyboar
     00004467  A$keyboar |    00004468  A$keyboar |    0000446B  A$keyboar
     0000446C  A$keyboar |    0000446D  A$keyboar |    0000446D  C$keyboar
ASxxxx Linker V03.00 + NoICE + sdld,  page 61.
Hexadecimal  [32-Bits]

Area                       Addr        Size        Decimal Bytes (Attributes)
--------------------       ----        ----        ------- ----- ------------
_CODE                  00000000    000084DB =       34011. bytes (REL,CON)

        Value  Global            Value  Global            Value  Global    
        -----  ------            -----  ------            -----  ------    
     0000446E  A$keyboar |    0000446F  A$keyboar |    00004471  A$keyboar
     00004473  A$keyboar |    00004473  C$keyboar |    00004476  A$keyboar
     00004478  A$keyboar |    0000447A  A$keyboar |    0000447A  C$keyboar
     0000447A  XG$kbdPro |    0000447B  A$keyboar |    0000447B  C$keyboar
     0000447B  C$keyboar |    0000447B  G$kbdInit |    0000447B  _kbdInit 
     0000447E  A$keyboar |    00004480  A$keyboar |    00004480  C$keyboar
     00004483  A$keyboar |    00004484  A$keyboar |    00004487  A$keyboar
     00004488  A$keyboar |    00004488  C$keyboar |    00004488  XG$kbdIni
     00004489  Fkeyboard |    000044A2  A$keyboar |    000044A2  C$keyboar
     000044A2  G$keyCapt |    000044A2  _keyCaptu |    000044A4  A$keyboar
     000044A8  A$keyboar |    000044AA  A$keyboar |    000044AD  A$keyboar
     000044AE  A$keyboar |    000044AF  A$keyboar |    000044AF  C$keyboar
     000044B2  A$keyboar |    000044B3  A$keyboar |    000044B5  A$keyboar
     000044B7  A$keyboar |    000044BA  A$keyboar |    000044BC  A$keyboar
     000044BC  C$keyboar |    000044BF  A$keyboar |    000044C0  A$keyboar
     000044C1  A$keyboar |    000044C3  A$keyboar |    000044C3  C$keyboar
     000044C4  A$keyboar |    000044C6  A$keyboar |    000044C7  A$keyboar
     000044C8  A$keyboar |    000044C9  A$keyboar |    000044CA  A$keyboar
     000044CD  A$keyboar |    000044D0  A$keyboar |    000044D3  A$keyboar
     000044D4  A$keyboar |    000044D5  A$keyboar |    000044D6  A$keyboar
     000044D9  A$keyboar |    000044DA  A$keyboar |    000044DA  C$keyboar
     000044DB  A$keyboar |    000044DD  A$keyboar |    000044DE  A$keyboar
     000044DE  C$keyboar |    000044DF  A$keyboar |    000044E0  A$keyboar
     000044E2  A$keyboar |    000044E4  A$keyboar |    000044E4  C$keyboar
     000044E5  A$keyboar |    000044E8  A$keyboar |    000044EA  A$keyboar
     000044EC  A$keyboar |    000044EC  C$keyboar |    000044EC  XG$keyCap
     000044ED  A$keyboar |    000044ED  C$keyboar |    000044ED  C$keyboar
     000044ED  G$kbdClea |    000044ED  _kbdClear |    000044EF  A$keyboar
     000044F0  A$keyboar |    000044F2  A$keyboar |    000044F3  A$keyboar
     000044F4  A$keyboar |    000044F5  A$keyboar |    000044F6  A$keyboar
     000044F7  A$keyboar |    000044F8  A$keyboar |    000044F9  A$keyboar
     000044FC  A$keyboar |    000044FD  A$keyboar |    000044FE  A$keyboar
     000044FF  A$keyboar |    00004500  A$keyboar |    00004502  A$keyboar
     00004504  A$keyboar |    00004504  C$keyboar |    00004504  C$keyboar
     00004504  XG$kbdCle |    00004507  A$library |    00004507  C$library
     00004507  C$library |    00004507  G$globals |    00004507  _globals 
     0000450A  A$library |    0000450A  C$library |    0000450A  XG$global
     0000450B  A$library |    0000450B  C$library |    0000450B  C$library
     0000450B  G$process |    0000450B  _processE |    0000450E  A$library
     0000450E  C$library |    00004511  A$library |    00004511  C$library
     00004514  A$library |    00004514  C$library |    00004517  A$library
     00004517  C$library |    00004517  C$library |    00004517  XG$proces
     0000451A  A$library |    0000451A  C$library |    0000451A  C$library
     0000451A  G$earlyEv |    0000451A  _earlyEve |    0000451D  A$library
     0000451D  C$library |    0000451D  C$library |    0000451D  XG$earlyE
     00004520  A$library |    00004520  C$library |    00004520  G$console
     00004520  _console  |    00004522  A$library |    00004526  A$library
     00004528  A$library |    00004529  A$library |    0000452A  A$library
     0000452A  C$library |    0000452D  A$library |    0000452E  A$library
     0000452F  A$library |    00004532  A$library |    00004535  A$library
     00004537  A$library |    0000453B  A$library |    0000453E  A$library
ASxxxx Linker V03.00 + NoICE + sdld,  page 62.
Hexadecimal  [32-Bits]

Area                       Addr        Size        Decimal Bytes (Attributes)
--------------------       ----        ----        ------- ----- ------------
_CODE                  00000000    000084DB =       34011. bytes (REL,CON)

        Value  Global            Value  Global            Value  Global    
        -----  ------            -----  ------            -----  ------    
     00004540  A$library |    00004543  A$library |    00004545  A$library
     00004548  A$library |    0000454A  A$library |    0000454D  A$library
     00004550  A$library |    00004553  A$library |    00004554  A$library
     00004557  A$library |    0000455A  A$library |    0000455B  A$library
     0000455E  A$library |    00004561  A$library |    00004562  A$library
     00004565  A$library |    00004566  A$library |    00004569  A$library
     0000456C  A$library |    0000456D  A$library |    0000456E  A$library
     00004570  A$library |    00004572  A$library |    00004572  C$library
     00004572  XG$consol |    00004573  Flibrary$ |    0000457F  A$library
     0000457F  C$library |    0000457F  C$library |    0000457F  G$ul$0$0 
     0000457F  _ul       |    00004582  A$library |    00004583  A$library
     00004586  A$library |    00004587  A$library |    0000458A  A$library
     0000458B  A$library |    0000458C  A$library |    0000458D  A$library
     0000458E  A$library |    00004590  A$library |    00004591  A$library
     00004592  A$library |    00004593  A$library |    00004594  A$library
     00004596  A$library |    00004598  A$library |    00004598  C$library
     0000459B  A$library |    0000459C  A$library |    0000459F  A$library
     000045A0  A$library |    000045A0  C$library |    000045A0  XG$ul$0$0
     000045A1  A$library |    000045A1  C$library |    000045A1  G$OUTIe$0
     000045A1  _OUTIe    |    000045A3  A$library |    000045A7  A$library
     000045A9  A$library |    000045AA  A$library |    000045AA  C$library
     000045AD  A$library |    000045B0  A$library |    000045B3  A$library
     000045B6  A$library |    000045B8  A$library |    000045B8  C$library
     000045BA  A$library |    000045BD  A$library |    000045BF  A$library
     000045C2  A$library |    000045C4  A$library |    000045C5  A$library
     000045C8  A$library |    000045CB  A$library |    000045CE  A$library
     000045D1  A$library |    000045D2  A$library |    000045D4  A$library
     000045D7  A$library |    000045D9  A$library |    000045DA  A$library
     000045DB  A$library |    000045DC  A$library |    000045DD  A$library
     000045DE  A$library |    000045DF  A$library |    000045E0  A$library
     000045E3  A$library |    000045E4  A$library |    000045E5  A$library
     000045E8  A$library |    000045E9  A$library |    000045EA  A$library
     000045EB  A$library |    000045EC  A$library |    000045EC  C$library
     000045EF  A$library |    000045F0  A$library |    000045F2  A$library
     000045F5  A$library |    000045F8  A$library |    000045F9  A$library
     000045FC  A$library |    000045FF  A$library |    00004600  A$library
     00004603  A$library |    00004603  C$library |    00004606  A$library
     00004607  A$library |    00004608  A$library |    00004609  A$library
     0000460B  A$library |    0000460C  A$library |    0000460E  A$library
     0000460E  C$library |    0000460E  XG$OUTIe$ |    0000460F  A$library
     0000460F  C$library |    0000460F  G$INIe$0$ |    0000460F  _INIe    
     00004611  A$library |    00004615  A$library |    00004617  A$library
     00004618  A$library |    00004618  C$library |    0000461B  A$library
     0000461E  A$library |    00004621  A$library |    00004624  A$library
     00004626  A$library |    00004626  C$library |    00004628  A$library
     0000462B  A$library |    0000462D  A$library |    00004630  A$library
     00004632  A$library |    00004633  A$library |    00004636  A$library
     00004639  A$library |    0000463C  A$library |    0000463F  A$library
     00004640  A$library |    00004642  A$library |    00004645  A$library
     00004647  A$library |    00004648  A$library |    00004649  A$library
     0000464A  A$library |    0000464B  A$library |    0000464C  A$library
ASxxxx Linker V03.00 + NoICE + sdld,  page 63.
Hexadecimal  [32-Bits]

Area                       Addr        Size        Decimal Bytes (Attributes)
--------------------       ----        ----        ------- ----- ------------
_CODE                  00000000    000084DB =       34011. bytes (REL,CON)

        Value  Global            Value  Global            Value  Global    
        -----  ------            -----  ------            -----  ------    
     0000464D  A$library |    0000464E  A$library |    00004651  A$library
     00004652  A$library |    00004653  A$library |    00004656  A$library
     00004657  A$library |    00004658  A$library |    00004659  A$library
     0000465A  A$library |    0000465A  C$library |    0000465D  A$library
     0000465E  A$library |    00004660  A$library |    00004663  A$library
     00004666  A$library |    00004667  A$library |    0000466A  A$library
     0000466D  A$library |    0000466E  A$library |    00004671  A$library
     00004671  C$library |    00004674  A$library |    00004675  A$library
     00004676  A$library |    00004677  A$library |    00004679  A$library
     0000467A  A$library |    0000467C  A$library |    0000467C  C$library
     0000467C  XG$INIe$0 |    0000467D  A$main$10 |    0000467D  C$main.c$
     0000467D  G$init$0$ |    0000467D  _init     |    0000467F  A$main$10
     00004683  A$main$10 |    00004685  A$main$10 |    00004688  A$main$11
     00004689  A$main$11 |    0000468A  A$main$11 |    0000468A  C$main.c$
     0000468D  A$main$11 |    0000468D  C$main.c$ |    00004690  A$main$12
     00004692  A$main$12 |    00004693  A$main$12 |    00004694  A$main$12
     00004695  A$main$12 |    00004698  A$main$12 |    0000469A  A$main$12
     0000469A  C$main.c$ |    0000469D  A$main$13 |    0000469D  C$main.c$
     000046A0  A$main$13 |    000046A1  A$main$13 |    000046A4  A$main$13
     000046A4  C$main.c$ |    000046A7  A$main$14 |    000046A8  A$main$14
     000046AB  A$main$14 |    000046AC  A$main$14 |    000046AF  A$main$14
     000046AF  C$main.c$ |    000046B2  A$main$14 |    000046B3  A$main$14
     000046B6  A$main$15 |    000046B6  C$main.c$ |    000046B8  A$main$15
     000046B9  A$main$15 |    000046BA  A$main$15 |    000046BD  A$main$15
     000046BE  A$main$15 |    000046BF  A$main$15 |    000046C1  A$main$16
     000046C4  A$main$16 |    000046C5  A$main$16 |    000046C6  A$main$16
     000046C7  A$main$16 |    000046C8  A$main$16 |    000046C9  A$main$16
     000046CC  A$main$16 |    000046CD  A$main$16 |    000046CE  A$main$16
     000046D1  A$main$17 |    000046D4  A$main$17 |    000046D5  A$main$17
     000046D6  A$main$17 |    000046D9  A$main$17 |    000046D9  C$main.c$
     000046DC  A$main$17 |    000046DD  A$main$17 |    000046E0  A$main$18
     000046E1  A$main$18 |    000046E1  C$main.c$ |    000046E4  A$main$18
     000046E5  A$main$18 |    000046E6  A$main$18 |    000046E8  A$main$18
     000046E9  A$main$19 |    000046EB  A$main$19 |    000046EB  C$main.c$
     000046EE  A$main$19 |    000046F1  A$main$19 |    000046F2  A$main$19
     000046F3  A$main$19 |    000046F6  A$main$20 |    000046F7  A$main$20
     000046F7  C$main.c$ |    000046FA  A$main$20 |    000046FD  A$main$20
     000046FE  A$main$20 |    00004701  A$main$20 |    00004702  A$main$21
     00004703  A$main$21 |    00004704  A$main$21 |    00004706  A$main$21
     00004709  A$main$21 |    0000470B  A$main$21 |    0000470B  C$main.c$
     0000470E  A$main$22 |    0000470E  C$main.c$ |    00004711  A$main$22
     00004714  A$main$22 |    00004715  A$main$22 |    00004716  A$main$22
     00004717  A$main$22 |    00004719  A$main$23 |    0000471C  A$main$23
     0000471E  A$main$23 |    0000471E  C$main.c$ |    00004721  A$main$24
     00004721  C$main.c$ |    00004724  A$main$24 |    00004724  C$main.c$
     00004727  A$main$24 |    00004727  C$main.c$ |    0000472A  A$main$25
     0000472A  C$main.c$ |    0000472D  A$main$25 |    0000472D  C$main.c$
     00004730  A$main$26 |    00004730  C$main.c$ |    00004733  A$main$26
     00004735  A$main$26 |    00004737  A$main$27 |    00004737  C$main.c$
     00004737  XG$init$0 |    00004738  Fmain$__s |    00004740  Fmain$__s
     0000476D  Fmain$__s |    00004776  Fmain$__s |    0000478F  Fmain$__s
ASxxxx Linker V03.00 + NoICE + sdld,  page 64.
Hexadecimal  [32-Bits]

Area                       Addr        Size        Decimal Bytes (Attributes)
--------------------       ----        ----        ------- ----- ------------
_CODE                  00000000    000084DB =       34011. bytes (REL,CON)

        Value  Global            Value  Global            Value  Global    
        -----  ------            -----  ------            -----  ------    
     000047A3  A$main$30 |    000047A3  C$main.c$ |    000047A3  G$dumpdat
     000047A3  _dumpdata |    000047A5  A$main$30 |    000047A9  A$main$30
     000047AB  A$main$30 |    000047AE  A$main$30 |    000047AF  A$main$30
     000047B0  A$main$31 |    000047B0  C$main.c$ |    000047B3  A$main$31
     000047B3  C$main.c$ |    000047B7  A$main$31 |    000047BB  A$main$32
     000047BB  C$main.c$ |    000047BE  A$main$32 |    000047C1  A$main$32
     000047C2  A$main$32 |    000047C5  A$main$32 |    000047C6  A$main$32
     000047C9  A$main$32 |    000047CA  A$main$32 |    000047CB  A$main$33
     000047CB  C$main.c$ |    000047CF  A$main$33 |    000047D3  A$main$33
     000047D3  C$main.c$ |    000047D6  A$main$34 |    000047D9  A$main$34
     000047DC  A$main$34 |    000047DF  A$main$34 |    000047E2  A$main$34
     000047E5  A$main$34 |    000047E8  A$main$34 |    000047EB  A$main$34
     000047EE  A$main$34 |    000047F1  A$main$34 |    000047F4  A$main$35
     000047F7  A$main$35 |    000047F8  A$main$35 |    000047F9  A$main$35
     000047FA  A$main$35 |    000047FC  A$main$35 |    000047FD  A$main$35
     00004800  A$main$35 |    00004801  A$main$35 |    00004804  A$main$35
     00004805  A$main$36 |    00004806  A$main$36 |    00004806  C$main.c$
     00004809  A$main$36 |    0000480B  A$main$36 |    0000480E  A$main$36
     00004811  A$main$36 |    00004813  A$main$37 |    00004816  A$main$37
     00004817  A$main$37 |    00004818  A$main$37 |    00004819  A$main$37
     0000481B  A$main$37 |    0000481D  A$main$37 |    0000481D  C$main.c$
     00004820  A$main$38 |    00004821  A$main$38 |    00004824  A$main$38
     00004825  A$main$38 |    00004825  C$main.c$ |    00004828  A$main$39
     00004828  C$main.c$ |    0000482B  A$main$39 |    0000482C  A$main$39
     0000482D  A$main$39 |    00004830  A$main$39 |    00004831  A$main$39
     00004832  A$main$39 |    00004835  A$main$39 |    00004838  A$main$39
     00004839  A$main$40 |    0000483A  A$main$40 |    0000483C  A$main$40
     0000483D  A$main$40 |    0000483F  A$main$40 |    00004840  A$main$40
     00004842  A$main$40 |    00004844  A$main$40 |    00004846  A$main$40
     00004848  A$main$41 |    0000484B  A$main$41 |    0000484C  A$main$41
     0000484D  A$main$41 |    00004850  A$main$41 |    00004851  A$main$41
     00004854  A$main$41 |    00004855  A$main$41 |    00004856  A$main$41
     00004857  A$main$42 |    00004857  C$main.c$ |    00004858  A$main$42
     00004859  A$main$42 |    0000485B  A$main$42 |    0000485C  A$main$42
     0000485D  A$main$42 |    0000485E  A$main$42 |    0000485F  A$main$43
     00004861  A$main$43 |    00004863  A$main$43 |    00004863  C$main.c$
     00004866  A$main$43 |    00004867  A$main$43 |    0000486A  A$main$43
     0000486B  A$main$44 |    0000486B  C$main.c$ |    0000486E  A$main$44
     0000486E  C$main.c$ |    00004871  A$main$44 |    00004873  A$main$44
     00004876  A$main$44 |    00004878  A$main$45 |    0000487B  A$main$45
     0000487E  A$main$45 |    00004880  A$main$45 |    00004882  A$main$45
     00004885  A$main$45 |    00004885  C$main.c$ |    00004888  A$main$46
     00004889  A$main$46 |    0000488C  A$main$46 |    0000488E  A$main$46
     00004890  A$main$47 |    00004890  C$main.c$ |    00004890  XG$dumpda
     00004891  Fmain$__s |    00004897  Fmain$__s |    0000489D  Fmain$__s
     000048A0  Fmain$__s |    000048A2  A$main$49 |    000048A2  C$main.c$
     000048A2  G$main$0$ |    000048A2  _main     |    000048A4  A$main$49
     000048A8  A$main$49 |    000048AA  A$main$50 |    000048AD  A$main$50
     000048AE  A$main$50 |    000048AF  A$main$50 |    000048AF  C$main.c$
     000048B0  A$main$50 |    000048B3  A$main$50 |    000048B6  A$main$50
     000048B9  A$main$51 |    000048BC  A$main$51 |    000048BC  C$main.c$
ASxxxx Linker V03.00 + NoICE + sdld,  page 65.
Hexadecimal  [32-Bits]

Area                       Addr        Size        Decimal Bytes (Attributes)
--------------------       ----        ----        ------- ----- ------------
_CODE                  00000000    000084DB =       34011. bytes (REL,CON)

        Value  Global            Value  Global            Value  Global    
        -----  ------            -----  ------            -----  ------    
     000048BF  A$main$51 |    000048BF  C$main.c$ |    000048C2  A$main$52
     000048C2  C$main.c$ |    000048C5  A$main$52 |    000048C6  A$main$52
     000048C7  A$main$52 |    000048C9  A$main$52 |    000048CC  A$main$52
     000048CE  A$main$53 |    000048CE  C$main.c$ |    000048D1  A$main$53
     000048D1  C$main.c$ |    000048D4  A$main$53 |    000048D5  A$main$53
     000048D7  A$main$54 |    000048D9  A$main$54 |    000048DC  A$main$54
     000048DD  A$main$54 |    000048E0  A$main$54 |    000048E1  A$main$54
     000048E2  A$main$54 |    000048E3  A$main$54 |    000048E4  A$main$54
     000048E7  A$main$54 |    000048E8  A$main$55 |    000048E9  A$main$55
     000048EA  A$main$55 |    000048EC  A$main$55 |    000048EC  C$main.c$
     000048EF  A$main$55 |    000048F1  A$main$55 |    000048F3  A$main$56
     000048F6  A$main$56 |    000048F7  A$main$56 |    000048F9  A$main$56
     000048FA  A$main$56 |    000048FB  A$main$56 |    000048FC  A$main$56
     000048FD  A$main$56 |    00004900  A$main$56 |    00004901  A$main$56
     00004902  A$main$57 |    00004903  A$main$57 |    00004905  A$main$57
     00004905  C$main.c$ |    00004908  A$main$57 |    0000490A  A$main$57
     0000490C  A$main$57 |    0000490D  A$main$58 |    0000490E  A$main$58
     0000490F  A$main$58 |    00004912  A$main$58 |    00004913  A$main$58
     00004915  A$main$58 |    00004915  C$main.c$ |    00004918  A$main$59
     0000491A  A$main$59 |    0000491C  A$main$59 |    0000491D  A$main$59
     0000491E  A$main$59 |    0000491F  A$main$59 |    00004922  A$main$59
     00004923  A$main$59 |    00004924  A$main$59 |    00004925  A$main$59
     00004927  A$main$60 |    0000492A  A$main$60 |    0000492C  A$main$60
     0000492F  A$main$60 |    00004930  A$main$60 |    00004933  A$main$60
     00004934  A$main$60 |    00004936  A$main$61 |    00004936  C$main.c$
     00004939  A$main$61 |    0000493B  A$main$61 |    0000493D  A$main$61
     0000493E  A$main$61 |    0000493F  A$main$61 |    00004940  A$main$61
     00004943  A$main$62 |    00004944  A$main$62 |    00004945  A$main$62
     00004946  A$main$62 |    00004948  A$main$62 |    0000494B  A$main$62
     0000494D  A$main$62 |    00004950  A$main$62 |    00004951  A$main$63
     00004954  A$main$63 |    00004955  A$main$63 |    00004958  A$main$63
     00004958  C$main.c$ |    0000495B  A$main$63 |    0000495D  A$main$63
     0000495F  A$main$64 |    00004962  A$main$64 |    00004965  A$main$64
     00004965  C$main.c$ |    00004968  A$main$64 |    0000496A  A$main$64
     0000496D  A$main$64 |    0000496F  A$main$65 |    00004972  A$main$65
     00004972  C$main.c$ |    00004975  A$main$65 |    00004977  A$main$65
     00004979  A$main$65 |    0000497C  A$main$65 |    0000497F  A$main$66
     0000497F  C$main.c$ |    00004982  A$main$66 |    00004984  A$main$66
     00004986  A$main$67 |    00004986  C$main.c$ |    00004989  A$main$67
     0000498C  A$main$67 |    0000498F  A$main$67 |    00004992  A$main$67
     00004995  A$main$67 |    00004995  C$main.c$ |    00004998  A$main$68
     0000499A  A$main$68 |    0000499C  A$main$68 |    0000499C  C$main.c$
     0000499F  A$main$68 |    000049A2  A$main$68 |    000049A5  A$main$68
     000049A6  A$main$68 |    000049A8  A$main$69 |    000049AB  A$main$69
     000049AE  A$main$69 |    000049B0  A$main$69 |    000049B3  A$main$69
     000049B6  A$main$69 |    000049B9  A$main$69 |    000049BC  A$main$69
     000049BD  A$main$69 |    000049BE  A$main$69 |    000049C1  A$main$70
     000049C2  A$main$70 |    000049C3  A$main$70 |    000049C6  A$main$70
     000049C7  A$main$70 |    000049C8  A$main$70 |    000049CB  A$main$70
     000049CC  A$main$70 |    000049CD  A$main$70 |    000049D0  A$main$71
     000049D0  C$main.c$ |    000049D0  C$main.c$ |    000049D3  A$main$71
ASxxxx Linker V03.00 + NoICE + sdld,  page 66.
Hexadecimal  [32-Bits]

Area                       Addr        Size        Decimal Bytes (Attributes)
--------------------       ----        ----        ------- ----- ------------
_CODE                  00000000    000084DB =       34011. bytes (REL,CON)

        Value  Global            Value  Global            Value  Global    
        -----  ------            -----  ------            -----  ------    
     000049D5  A$main$71 |    000049D7  A$main$72 |    000049D7  C$main.c$
     000049DA  A$main$72 |    000049DD  A$main$72 |    000049E0  A$main$72
     000049E1  A$main$72 |    000049E3  A$main$72 |    000049E6  A$main$72
     000049E9  A$main$72 |    000049EB  A$main$73 |    000049EE  A$main$73
     000049F1  A$main$73 |    000049F4  A$main$73 |    000049F7  A$main$73
     000049F8  A$main$73 |    000049F9  A$main$73 |    000049FC  A$main$73
     000049FD  A$main$73 |    000049FE  A$main$73 |    00004A01  A$main$74
     00004A02  A$main$74 |    00004A03  A$main$74 |    00004A06  A$main$74
     00004A07  A$main$74 |    00004A08  A$main$74 |    00004A0B  A$main$75
     00004A0B  C$main.c$ |    00004A0B  C$main.c$ |    00004A0E  A$main$75
     00004A10  A$main$75 |    00004A12  A$main$75 |    00004A12  C$main.c$
     00004A15  A$main$76 |    00004A16  A$main$76 |    00004A19  A$main$76
     00004A1C  A$main$76 |    00004A1E  A$main$76 |    00004A1F  A$main$76
     00004A20  A$main$76 |    00004A21  A$main$76 |    00004A24  A$main$76
     00004A26  A$main$77 |    00004A26  C$main.c$ |    00004A29  A$main$77
     00004A2C  A$main$77 |    00004A2D  A$main$77 |    00004A30  A$main$77
     00004A31  A$main$77 |    00004A32  A$main$77 |    00004A35  A$main$77
     00004A36  A$main$78 |    00004A37  A$main$78 |    00004A38  A$main$78
     00004A3B  A$main$78 |    00004A3E  A$main$78 |    00004A3F  A$main$78
     00004A42  A$main$78 |    00004A45  A$main$78 |    00004A46  A$main$78
     00004A47  A$main$78 |    00004A4A  A$main$79 |    00004A4B  A$main$79
     00004A4C  A$main$79 |    00004A4D  A$main$79 |    00004A4E  A$main$79
     00004A4F  A$main$79 |    00004A50  A$main$79 |    00004A52  A$main$80
     00004A52  C$main.c$ |    00004A55  A$main$80 |    00004A58  A$main$80
     00004A59  A$main$80 |    00004A5C  A$main$80 |    00004A5D  A$main$80
     00004A5F  A$main$81 |    00004A5F  C$main.c$ |    00004A62  A$main$81
     00004A62  C$main.c$ |    00004A65  A$main$81 |    00004A68  A$main$81
     00004A6A  A$main$81 |    00004A6B  A$main$81 |    00004A6C  A$main$82
     00004A6D  A$main$82 |    00004A70  A$main$82 |    00004A72  A$main$82
     00004A75  A$main$82 |    00004A75  C$main.c$ |    00004A78  A$main$82
     00004A7A  A$main$83 |    00004A7C  A$main$83 |    00004A7C  C$main.c$
     00004A7F  A$main$83 |    00004A81  A$main$83 |    00004A84  A$main$83
     00004A87  A$main$83 |    00004A89  A$main$83 |    00004A8C  A$main$84
     00004A8F  A$main$84 |    00004A91  A$main$84 |    00004A94  A$main$84
     00004A97  A$main$84 |    00004A99  A$main$84 |    00004A9C  A$main$84
     00004A9C  C$main.c$ |    00004A9F  A$main$85 |    00004A9F  C$main.c$
     00004AA2  A$main$85 |    00004AA4  A$main$85 |    00004AA6  A$main$86
     00004AA6  C$main.c$ |    00004AA9  A$main$86 |    00004AAC  A$main$86
     00004AAF  A$main$86 |    00004AB2  A$main$86 |    00004AB5  A$main$86
     00004AB8  A$main$86 |    00004ABB  A$main$87 |    00004ABB  C$main.c$
     00004ABE  A$main$87 |    00004ABE  C$main.c$ |    00004AC1  A$main$87
     00004AC3  A$main$87 |    00004AC5  A$main$88 |    00004AC5  C$main.c$
     00004AC8  A$main$88 |    00004AC9  A$main$88 |    00004ACA  A$main$88
     00004ACB  A$main$88 |    00004ACC  A$main$88 |    00004ACD  A$main$88
     00004ACF  A$main$88 |    00004AD0  A$main$88 |    00004AD1  A$main$89
     00004AD2  A$main$89 |    00004AD5  A$main$89 |    00004AD7  A$main$89
     00004AD8  A$main$89 |    00004AD8  C$main.c$ |    00004ADB  A$main$89
     00004ADC  A$main$89 |    00004ADD  A$main$90 |    00004ADE  A$main$90
     00004ADF  A$main$90 |    00004AE0  A$main$90 |    00004AE3  A$main$90
     00004AE4  A$main$90 |    00004AE5  A$main$90 |    00004AE6  A$main$91
     00004AE6  C$main.c$ |    00004AE9  A$main$91 |    00004AEC  A$main$91
ASxxxx Linker V03.00 + NoICE + sdld,  page 67.
Hexadecimal  [32-Bits]

Area                       Addr        Size        Decimal Bytes (Attributes)
--------------------       ----        ----        ------- ----- ------------
_CODE                  00000000    000084DB =       34011. bytes (REL,CON)

        Value  Global            Value  Global            Value  Global    
        -----  ------            -----  ------            -----  ------    
     00004AED  A$main$91 |    00004AEE  A$main$91 |    00004AEF  A$main$91
     00004AF0  A$main$91 |    00004AF3  A$main$91 |    00004AF4  A$main$91
     00004AF5  A$main$91 |    00004AF8  A$main$92 |    00004AF9  A$main$92
     00004AFA  A$main$92 |    00004AFB  A$main$92 |    00004AFE  A$main$92
     00004AFF  A$main$92 |    00004B00  A$main$92 |    00004B01  A$main$92
     00004B02  A$main$92 |    00004B05  A$main$92 |    00004B08  A$main$93
     00004B09  A$main$93 |    00004B0C  A$main$93 |    00004B0F  A$main$93
     00004B10  A$main$93 |    00004B11  A$main$93 |    00004B14  A$main$93
     00004B15  A$main$93 |    00004B16  A$main$93 |    00004B17  A$main$93
     00004B18  A$main$94 |    00004B19  A$main$94 |    00004B1A  A$main$94
     00004B1D  A$main$94 |    00004B1D  C$main.c$ |    00004B20  A$main$95
     00004B20  C$main.c$ |    00004B23  A$main$95 |    00004B23  C$main.c$
     00004B26  A$main$95 |    00004B28  A$main$95 |    00004B2B  A$main$96
     00004B2B  C$main.c$ |    00004B2E  A$main$96 |    00004B31  A$main$96
     00004B32  A$main$96 |    00004B33  A$main$96 |    00004B34  A$main$96
     00004B35  A$main$96 |    00004B36  A$main$96 |    00004B39  A$main$96
     00004B3A  A$main$97 |    00004B3B  A$main$97 |    00004B3B  C$main.c$
     00004B3C  A$main$97 |    00004B3F  A$main$97 |    00004B40  A$main$97
     00004B43  A$main$97 |    00004B44  A$main$97 |    00004B45  A$main$98
     00004B48  A$main$98 |    00004B49  A$main$98 |    00004B4A  A$main$98
     00004B4B  A$main$98 |    00004B4C  A$main$98 |    00004B4D  A$main$98
     00004B4E  A$main$98 |    00004B51  A$main$98 |    00004B54  A$main$98
     00004B55  A$main$99 |    00004B56  A$main$99 |    00004B59  A$main$99
     00004B5A  A$main$99 |    00004B5D  A$main$99 |    00004B5E  A$main$99
     00004B60  A$main$99 |    00004B61  A$main$99 |    00004B62  A$main$99
     00004B63  A$main$99 |    00004B64  A$main$10 |    00004B65  A$main$10
     00004B66  A$main$10 |    00004B67  A$main$10 |    00004B6A  A$main$10
     00004B6D  A$main$10 |    00004B6E  A$main$10 |    00004B6F  A$main$10
     00004B6F  C$main.c$ |    00004B72  A$main$10 |    00004B75  A$main$10
     00004B75  C$main.c$ |    00004B79  A$main$10 |    00004B7D  A$main$10
     00004B7E  A$main$10 |    00004B81  A$main$10 |    00004B84  A$main$10
     00004B87  A$main$10 |    00004B8A  A$main$10 |    00004B8A  C$main.c$
     00004B8D  A$main$10 |    00004B8F  A$main$10 |    00004B92  A$main$10
     00004B94  A$main$10 |    00004B96  A$main$10 |    00004B99  A$main$10
     00004B9C  A$main$10 |    00004B9D  A$main$10 |    00004B9E  A$main$10
     00004B9F  A$main$10 |    00004BA1  A$main$10 |    00004BA4  A$main$10
     00004BA5  A$main$10 |    00004BA7  A$main$10 |    00004BAA  A$main$10
     00004BAB  A$main$10 |    00004BAE  A$main$10 |    00004BB0  A$main$10
     00004BB2  A$main$10 |    00004BB2  C$main.c$ |    00004BB5  A$main$10
     00004BB8  A$main$10 |    00004BB9  A$main$10 |    00004BBA  A$main$10
     00004BBC  A$main$10 |    00004BBD  A$main$10 |    00004BBE  A$main$10
     00004BBF  A$main$10 |    00004BC2  A$main$10 |    00004BC4  A$main$10
     00004BC4  C$main.c$ |    00004BC7  A$main$10 |    00004BCA  A$main$10
     00004BCD  A$main$10 |    00004BCF  A$main$10 |    00004BD2  A$main$10
     00004BD2  C$main.c$ |    00004BD5  A$main$10 |    00004BD8  A$main$10
     00004BD9  A$main$10 |    00004BDA  A$main$10 |    00004BDB  A$main$10
     00004BDE  A$main$10 |    00004BDF  A$main$10 |    00004BE2  A$main$10
     00004BE3  A$main$10 |    00004BE4  A$main$10 |    00004BE5  A$main$10
     00004BE8  A$main$10 |    00004BE9  A$main$10 |    00004BEA  A$main$10
     00004BEA  C$main.c$ |    00004BED  A$main$10 |    00004BEF  A$main$10
     00004BF2  A$main$10 |    00004BF4  A$main$10 |    00004BF7  A$main$10
ASxxxx Linker V03.00 + NoICE + sdld,  page 68.
Hexadecimal  [32-Bits]

Area                       Addr        Size        Decimal Bytes (Attributes)
--------------------       ----        ----        ------- ----- ------------
_CODE                  00000000    000084DB =       34011. bytes (REL,CON)

        Value  Global            Value  Global            Value  Global    
        -----  ------            -----  ------            -----  ------    
     00004BF9  A$main$10 |    00004BFC  A$main$10 |    00004BFF  A$main$10
     00004C01  A$main$10 |    00004C04  A$main$10 |    00004C06  A$main$11
     00004C09  A$main$11 |    00004C0B  A$main$11 |    00004C0E  A$main$11
     00004C10  A$main$11 |    00004C13  A$main$11 |    00004C13  C$main.c$
     00004C16  A$main$11 |    00004C17  A$main$11 |    00004C18  A$main$11
     00004C1B  A$main$11 |    00004C1C  A$main$11 |    00004C1F  A$main$11
     00004C21  A$main$11 |    00004C24  A$main$11 |    00004C24  C$main.c$
     00004C27  A$main$11 |    00004C29  A$main$11 |    00004C2C  A$main$11
     00004C2C  C$main.c$ |    00004C2F  A$main$11 |    00004C30  A$main$11
     00004C33  A$main$11 |    00004C36  A$main$11 |    00004C39  A$main$11
     00004C3C  A$main$11 |    00004C3F  A$main$11 |    00004C40  A$main$11
     00004C42  A$main$11 |    00004C45  A$main$11 |    00004C48  A$main$11
     00004C4A  A$main$11 |    00004C4D  A$main$11 |    00004C50  A$main$11
     00004C53  A$main$11 |    00004C54  A$main$11 |    00004C57  A$main$11
     00004C58  A$main$11 |    00004C59  A$main$11 |    00004C5A  A$main$11
     00004C5B  A$main$11 |    00004C5E  A$main$11 |    00004C61  A$main$11
     00004C62  A$main$11 |    00004C65  A$main$11 |    00004C68  A$main$11
     00004C69  A$main$11 |    00004C6A  A$main$11 |    00004C6A  C$main.c$
     00004C6D  A$main$11 |    00004C70  A$main$11 |    00004C73  A$main$11
     00004C74  A$main$11 |    00004C76  A$main$11 |    00004C79  A$main$11
     00004C7C  A$main$11 |    00004C7E  A$main$11 |    00004C81  A$main$11
     00004C84  A$main$11 |    00004C86  A$main$11 |    00004C89  A$main$11
     00004C8B  A$main$11 |    00004C8E  A$main$11 |    00004C91  A$main$11
     00004C94  A$main$11 |    00004C96  A$main$11 |    00004C97  A$main$11
     00004C99  A$main$11 |    00004C99  C$main.c$ |    00004C9C  A$main$11
     00004C9F  A$main$11 |    00004CA2  A$main$11 |    00004CA3  A$main$11
     00004CA5  A$main$11 |    00004CA8  A$main$11 |    00004CAB  A$main$11
     00004CAD  A$main$11 |    00004CB0  A$main$11 |    00004CB3  A$main$11
     00004CB5  A$main$11 |    00004CB8  A$main$11 |    00004CBA  A$main$11
     00004CBD  A$main$11 |    00004CC0  A$main$11 |    00004CC3  A$main$11
     00004CC5  A$main$11 |    00004CC6  A$main$11 |    00004CC8  A$main$12
     00004CC8  C$main.c$ |    00004CCB  A$main$12 |    00004CCE  A$main$12
     00004CD1  A$main$12 |    00004CD2  A$main$12 |    00004CD4  A$main$12
     00004CD7  A$main$12 |    00004CDA  A$main$12 |    00004CDC  A$main$12
     00004CDF  A$main$12 |    00004CE2  A$main$12 |    00004CE3  A$main$12
     00004CE6  A$main$12 |    00004CE9  A$main$12 |    00004CEA  A$main$12
     00004CED  A$main$12 |    00004CEE  A$main$12 |    00004CEF  A$main$12
     00004CEF  C$main.c$ |    00004CF2  A$main$12 |    00004CF4  A$main$12
     00004CF6  A$main$12 |    00004CF6  C$main.c$ |    00004CF9  A$main$12
     00004CFC  A$main$12 |    00004CFD  A$main$12 |    00004CFE  A$main$12
     00004D01  A$main$12 |    00004D02  A$main$12 |    00004D02  C$main.c$
     00004D05  A$main$12 |    00004D08  A$main$12 |    00004D0B  A$main$12
     00004D0C  A$main$12 |    00004D0E  A$main$12 |    00004D11  A$main$12
     00004D14  A$main$12 |    00004D16  A$main$12 |    00004D19  A$main$12
     00004D1C  A$main$12 |    00004D1D  A$main$12 |    00004D20  A$main$12
     00004D23  A$main$12 |    00004D24  A$main$12 |    00004D27  A$main$12
     00004D28  A$main$12 |    00004D29  A$main$12 |    00004D29  C$main.c$
     00004D2C  A$main$12 |    00004D2C  C$main.c$ |    00004D2F  A$main$12
     00004D31  A$main$12 |    00004D34  A$main$12 |    00004D34  C$main.c$
     00004D37  A$main$12 |    00004D3A  A$main$12 |    00004D3B  A$main$12
     00004D3C  A$main$12 |    00004D3F  A$main$12 |    00004D40  A$main$12
ASxxxx Linker V03.00 + NoICE + sdld,  page 69.
Hexadecimal  [32-Bits]

Area                       Addr        Size        Decimal Bytes (Attributes)
--------------------       ----        ----        ------- ----- ------------
_CODE                  00000000    000084DB =       34011. bytes (REL,CON)

        Value  Global            Value  Global            Value  Global    
        -----  ------            -----  ------            -----  ------    
     00004D40  C$main.c$ |    00004D43  A$main$12 |    00004D46  A$main$12
     00004D49  A$main$12 |    00004D4A  A$main$12 |    00004D4C  A$main$12
     00004D4F  A$main$12 |    00004D52  A$main$12 |    00004D54  A$main$12
     00004D57  A$main$12 |    00004D5A  A$main$12 |    00004D5C  A$main$12
     00004D5F  A$main$12 |    00004D61  A$main$12 |    00004D64  A$main$12
     00004D67  A$main$12 |    00004D6A  A$main$12 |    00004D6C  A$main$12
     00004D6D  A$main$12 |    00004D6F  A$main$13 |    00004D6F  C$main.c$
     00004D72  A$main$13 |    00004D75  A$main$13 |    00004D78  A$main$13
     00004D79  A$main$13 |    00004D7B  A$main$13 |    00004D7E  A$main$13
     00004D81  A$main$13 |    00004D83  A$main$13 |    00004D86  A$main$13
     00004D89  A$main$13 |    00004D8B  A$main$13 |    00004D8E  A$main$13
     00004D90  A$main$13 |    00004D93  A$main$13 |    00004D96  A$main$13
     00004D99  A$main$13 |    00004D9B  A$main$13 |    00004D9C  A$main$13
     00004D9E  A$main$13 |    00004D9E  C$main.c$ |    00004DA1  A$main$13
     00004DA4  A$main$13 |    00004DA7  A$main$13 |    00004DA8  A$main$13
     00004DAA  A$main$13 |    00004DAD  A$main$13 |    00004DB0  A$main$13
     00004DB2  A$main$13 |    00004DB5  A$main$13 |    00004DB8  A$main$13
     00004DBA  A$main$13 |    00004DBD  A$main$13 |    00004DBF  A$main$13
     00004DC2  A$main$13 |    00004DC5  A$main$13 |    00004DC8  A$main$13
     00004DCA  A$main$13 |    00004DCB  A$main$13 |    00004DCD  A$main$13
     00004DCD  C$main.c$ |    00004DD0  A$main$13 |    00004DD3  A$main$13
     00004DD6  A$main$13 |    00004DD7  A$main$13 |    00004DD9  A$main$13
     00004DDC  A$main$13 |    00004DDF  A$main$13 |    00004DE1  A$main$13
     00004DE4  A$main$13 |    00004DE7  A$main$13 |    00004DE9  A$main$13
     00004DEC  A$main$13 |    00004DEE  A$main$13 |    00004DF1  A$main$13
     00004DF4  A$main$13 |    00004DF7  A$main$13 |    00004DF9  A$main$13
     00004DFA  A$main$13 |    00004DFC  A$main$13 |    00004DFC  C$main.c$
     00004DFF  A$main$13 |    00004E02  A$main$13 |    00004E05  A$main$13
     00004E06  A$main$13 |    00004E08  A$main$13 |    00004E0B  A$main$13
     00004E0E  A$main$13 |    00004E10  A$main$13 |    00004E13  A$main$13
     00004E16  A$main$13 |    00004E18  A$main$13 |    00004E1B  A$main$13
     00004E1D  A$main$13 |    00004E20  A$main$13 |    00004E23  A$main$13
     00004E26  A$main$13 |    00004E28  A$main$13 |    00004E29  A$main$13
     00004E2B  A$main$13 |    00004E2B  C$main.c$ |    00004E2E  A$main$13
     00004E31  A$main$13 |    00004E34  A$main$13 |    00004E35  A$main$13
     00004E37  A$main$13 |    00004E3A  A$main$14 |    00004E3D  A$main$14
     00004E3F  A$main$14 |    00004E42  A$main$14 |    00004E45  A$main$14
     00004E47  A$main$14 |    00004E4A  A$main$14 |    00004E4C  A$main$14
     00004E4F  A$main$14 |    00004E52  A$main$14 |    00004E55  A$main$14
     00004E57  A$main$14 |    00004E58  A$main$14 |    00004E5A  A$main$14
     00004E5A  C$main.c$ |    00004E5D  A$main$14 |    00004E60  A$main$14
     00004E63  A$main$14 |    00004E64  A$main$14 |    00004E66  A$main$14
     00004E69  A$main$14 |    00004E6C  A$main$14 |    00004E6E  A$main$14
     00004E71  A$main$14 |    00004E74  A$main$14 |    00004E76  A$main$14
     00004E79  A$main$14 |    00004E7B  A$main$14 |    00004E7E  A$main$14
     00004E81  A$main$14 |    00004E84  A$main$14 |    00004E86  A$main$14
     00004E87  A$main$14 |    00004E89  A$main$14 |    00004E89  C$main.c$
     00004E8C  A$main$14 |    00004E8F  A$main$14 |    00004E92  A$main$14
     00004E93  A$main$14 |    00004E95  A$main$14 |    00004E98  A$main$14
     00004E9B  A$main$14 |    00004E9D  A$main$14 |    00004EA0  A$main$14
     00004EA3  A$main$14 |    00004EA4  A$main$14 |    00004EA7  A$main$14
ASxxxx Linker V03.00 + NoICE + sdld,  page 70.
Hexadecimal  [32-Bits]

Area                       Addr        Size        Decimal Bytes (Attributes)
--------------------       ----        ----        ------- ----- ------------
_CODE                  00000000    000084DB =       34011. bytes (REL,CON)

        Value  Global            Value  Global            Value  Global    
        -----  ------            -----  ------            -----  ------    
     00004EAA  A$main$14 |    00004EAB  A$main$14 |    00004EAE  A$main$14
     00004EAF  A$main$14 |    00004EB0  A$main$14 |    00004EB0  C$main.c$
     00004EB3  A$main$14 |    00004EB3  C$main.c$ |    00004EB6  A$main$14
     00004EB8  A$main$14 |    00004EBA  A$main$14 |    00004EBD  A$main$14
     00004EC0  A$main$14 |    00004EC1  A$main$14 |    00004EC2  A$main$14
     00004EC5  A$main$14 |    00004EC6  A$main$14 |    00004EC9  A$main$14
     00004ECA  A$main$14 |    00004ECB  A$main$14 |    00004ECE  A$main$14
     00004ED1  A$main$14 |    00004ED2  A$main$14 |    00004ED3  A$main$14
     00004ED6  A$main$14 |    00004ED6  C$main.c$ |    00004ED9  A$main$14
     00004EDB  A$main$14 |    00004EDE  A$main$14 |    00004EDE  C$main.c$
     00004EE1  A$main$14 |    00004EE2  A$main$14 |    00004EE5  A$main$14
     00004EE5  C$main.c$ |    00004EE7  A$main$14 |    00004EE8  A$main$15
     00004EE9  A$main$15 |    00004EEC  A$main$15 |    00004EED  A$main$15
     00004EEF  A$main$15 |    00004EF0  A$main$15 |    00004EF1  A$main$15
     00004EF4  A$main$15 |    00004EF5  A$main$15 |    00004EF7  A$main$15
     00004EF8  A$main$15 |    00004EF9  A$main$15 |    00004EFC  A$main$15
     00004EFD  A$main$15 |    00004EFF  A$main$15 |    00004F00  A$main$15
     00004F01  A$main$15 |    00004F04  A$main$15 |    00004F05  A$main$15
     00004F05  C$main.c$ |    00004F06  A$main$15 |    00004F06  C$main.c$
     00004F06  XG$main$0 |    00004F09  Fmain$__s |    00004F14  Fmain$__s
     00004F1C  Fmain$__s |    00004F26  Fmain$__s |    00004F2E  Fmain$__s
     00004F38  Fmain$__s |    00004F5D  Fmain$__s |    00004F81  Fmain$__s
     00004F93  Fmain$__s |    00004F9F  Fmain$__s |    00004FB1  Fmain$__s
     00004FC4  Fmain$__s |    00004FD0  Fmain$__s |    00004FDB  Fmain$__s
     00004FEE  Fmain$__s |    00005007  Fmain$__s |    00005019  Fmain$__s
     00005026  Fmain$__s |    00005030  Fmain$__s |    0000503D  Fmain$__s
     00005050  Fmain$__s |    00005055  Fmain$__s |    0000506D  Fmain$__s
     0000507B  Fmain$__s |    00005088  Fmain$__s |    00005095  Fmain$__s
     000050AA  Fmain$__s |    000050D4  A$phy$59  |    000050D4  C$phy.c$2
     000050D4  G$phy_ini |    000050D4  _phy_init |    000050D6  A$phy$60 
     000050DA  A$phy$61  |    000050DC  A$phy$62  |    000050DD  A$phy$63 
     000050DE  A$phy$67  |    000050DE  C$phy.c$3 |    000050E0  A$phy$68 
     000050E1  A$phy$69  |    000050E2  A$phy$70  |    000050E5  A$phy$71 
     000050E6  A$phy$72  |    000050E7  A$phy$73  |    000050E9  A$phy$74 
     000050EA  A$phy$75  |    000050EC  A$phy$76  |    000050ED  A$phy$77 
     000050EE  A$phy$78  |    000050F1  A$phy$79  |    000050F2  A$phy$80 
     000050F3  A$phy$81  |    000050F6  A$phy$82  |    000050FA  A$phy$86 
     000050FA  C$phy.c$3 |    000050FB  A$phy$87  |    000050FC  A$phy$88 
     000050FD  A$phy$89  |    000050FE  A$phy$90  |    00005101  A$phy$91 
     00005102  A$phy$92  |    00005103  A$phy$93  |    00005106  A$phy$94 
     0000510A  A$phy$95  |    0000510B  A$phy$96  |    0000510D  A$phy$97 
     0000510E  A$phy$98  |    0000510F  A$phy$99  |    00005112  A$phy$100
     00005113  A$phy$101 |    00005114  A$phy$102 |    00005115  A$phy$103
     00005117  A$phy$107 |    00005117  C$phy.c$3 |    00005118  A$phy$108
     00005119  A$phy$109 |    0000511C  A$phy$110 |    0000511D  A$phy$111
     0000511E  A$phy$112 |    0000511F  A$phy$113 |    00005122  A$phy$114
     00005125  A$phy$115 |    00005126  A$phy$116 |    00005129  A$phy$117
     0000512C  A$phy$118 |    0000512D  A$phy$119 |    0000512E  A$phy$120
     00005131  A$phy$121 |    00005132  A$phy$122 |    00005133  A$phy$123
     00005136  A$phy$124 |    00005139  A$phy$125 |    0000513A  A$phy$126
     0000513B  A$phy$130 |    0000513B  C$phy.c$3 |    0000513E  A$phy$131
ASxxxx Linker V03.00 + NoICE + sdld,  page 71.
Hexadecimal  [32-Bits]

Area                       Addr        Size        Decimal Bytes (Attributes)
--------------------       ----        ----        ------- ----- ------------
_CODE                  00000000    000084DB =       34011. bytes (REL,CON)

        Value  Global            Value  Global            Value  Global    
        -----  ------            -----  ------            -----  ------    
     0000513F  A$phy$132 |    00005142  A$phy$136 |    00005142  C$phy.c$4
     00005145  A$phy$137 |    00005146  A$phy$138 |    00005149  A$phy$142
     00005149  C$phy.c$4 |    0000514C  A$phy$143 |    0000514D  A$phy$144
     00005150  A$phy$148 |    00005150  C$phy.c$4 |    00005153  A$phy$149
     00005154  A$phy$150 |    00005157  A$phy$154 |    00005157  C$phy.c$4
     0000515A  A$phy$155 |    0000515B  A$phy$156 |    0000515E  A$phy$160
     0000515E  C$phy.c$5 |    00005161  A$phy$161 |    00005162  A$phy$162
     00005165  A$phy$166 |    00005167  A$phy$167 |    00005169  A$phy$172
     00005169  C$phy.c$6 |    00005169  XG$phy_in |    0000516A  Fphy$__st
     00005187  A$phy$189 |    00005187  C$phy.c$6 |    00005187  C$phy.c$6
     00005187  G$phy_reg |    00005187  _phy_reg_ |    0000518A  A$phy$190
     0000518B  A$phy$191 |    0000518C  A$phy$192 |    0000518D  A$phy$193
     0000518E  A$phy$194 |    00005190  A$phy$195 |    00005191  A$phy$196
     00005192  A$phy$197 |    00005195  A$phy$201 |    00005195  C$phy.c$6
     00005198  A$phy$202 |    00005199  A$phy$203 |    0000519C  A$phy$204
     0000519D  A$phy$209 |    0000519D  C$phy.c$7 |    0000519F  A$phy$210
     000051A0  A$phy$211 |    000051A1  A$phy$212 |    000051A4  A$phy$213
     000051A5  A$phy$214 |    000051A7  A$phy$215 |    000051A9  A$phy$216
     000051AA  A$phy$217 |    000051AC  A$phy$222 |    000051AC  C$phy.c$7
     000051AE  A$phy$223 |    000051AF  A$phy$224 |    000051B0  A$phy$225
     000051B3  A$phy$226 |    000051B4  A$phy$234 |    000051B4  C$phy.c$7
     000051B4  XG$phy_re |    000051B5  A$phy$247 |    000051B5  C$phy.c$7
     000051B5  C$phy.c$7 |    000051B5  G$phy_reg |    000051B5  _phy_reg_
     000051B8  A$phy$248 |    000051B9  A$phy$249 |    000051BA  A$phy$250
     000051BB  A$phy$251 |    000051BC  A$phy$252 |    000051BE  A$phy$253
     000051BF  A$phy$254 |    000051C0  A$phy$255 |    000051C3  A$phy$256
     000051C4  A$phy$260 |    000051C4  C$phy.c$8 |    000051C7  A$phy$261
     000051C8  A$phy$262 |    000051C9  A$phy$263 |    000051CA  A$phy$264
     000051CB  A$phy$265 |    000051CD  A$phy$266 |    000051CE  A$phy$267
     000051CF  A$phy$268 |    000051D2  A$phy$272 |    000051D2  C$phy.c$8
     000051D5  A$phy$273 |    000051D6  A$phy$274 |    000051D9  A$phy$275
     000051DA  A$phy$280 |    000051DA  C$phy.c$8 |    000051DC  A$phy$281
     000051DD  A$phy$282 |    000051DE  A$phy$283 |    000051E1  A$phy$284
     000051E2  A$phy$285 |    000051E4  A$phy$286 |    000051E5  A$phy$287
     000051E6  A$phy$295 |    000051E6  C$phy.c$8 |    000051E6  XG$phy_re
     000051E8  A$rommgr$ |    000051E8  C$rommgr. |    000051E8  C$rommgr.
     000051E8  G$romInit |    000051E8  _romInit  |    000051EA  A$rommgr$
     000051EB  A$rommgr$ |    000051EC  A$rommgr$ |    000051EF  A$rommgr$
     000051F0  A$rommgr$ |    000051F0  C$rommgr. |    000051F3  A$rommgr$
     000051F4  A$rommgr$ |    000051F7  A$rommgr$ |    000051F7  C$rommgr.
     000051FA  A$rommgr$ |    000051FB  A$rommgr$ |    000051FE  A$rommgr$
     000051FE  C$rommgr. |    00005201  A$rommgr$ |    00005202  A$rommgr$
     00005205  A$rommgr$ |    00005206  A$rommgr$ |    00005206  C$rommgr.
     00005208  A$rommgr$ |    00005208  C$rommgr. |    00005209  A$rommgr$
     0000520C  A$rommgr$ |    0000520D  A$rommgr$ |    00005210  A$rommgr$
     00005211  A$rommgr$ |    00005214  A$rommgr$ |    00005215  A$rommgr$
     00005216  A$rommgr$ |    00005217  A$rommgr$ |    00005218  A$rommgr$
     0000521A  A$rommgr$ |    0000521B  A$rommgr$ |    0000521C  A$rommgr$
     0000521D  A$rommgr$ |    0000521E  A$rommgr$ |    0000521F  A$rommgr$
     00005220  A$rommgr$ |    00005221  A$rommgr$ |    00005223  A$rommgr$
     00005224  A$rommgr$ |    00005226  A$rommgr$ |    00005226  C$rommgr.
ASxxxx Linker V03.00 + NoICE + sdld,  page 72.
Hexadecimal  [32-Bits]

Area                       Addr        Size        Decimal Bytes (Attributes)
--------------------       ----        ----        ------- ----- ------------
_CODE                  00000000    000084DB =       34011. bytes (REL,CON)

        Value  Global            Value  Global            Value  Global    
        -----  ------            -----  ------            -----  ------    
     00005227  A$rommgr$ |    00005228  A$rommgr$ |    0000522A  A$rommgr$
     0000522A  C$rommgr. |    0000522B  A$rommgr$ |    0000522D  A$rommgr$
     0000522D  C$rommgr. |    0000522E  A$rommgr$ |    0000522F  A$rommgr$
     00005232  A$rommgr$ |    00005233  A$rommgr$ |    00005234  A$rommgr$
     00005235  A$rommgr$ |    00005238  A$rommgr$ |    00005239  A$rommgr$
     0000523A  A$rommgr$ |    0000523B  A$rommgr$ |    0000523C  A$rommgr$
     0000523D  A$rommgr$ |    0000523E  A$rommgr$ |    0000523F  A$rommgr$
     00005240  A$rommgr$ |    00005243  A$rommgr$ |    00005244  A$rommgr$
     00005245  A$rommgr$ |    00005246  A$rommgr$ |    00005247  A$rommgr$
     00005249  A$rommgr$ |    00005249  C$rommgr. |    0000524A  A$rommgr$
     0000524B  A$rommgr$ |    0000524C  A$rommgr$ |    0000524D  A$rommgr$
     0000524E  A$rommgr$ |    0000524F  A$rommgr$ |    00005250  A$rommgr$
     00005253  A$rommgr$ |    00005254  A$rommgr$ |    00005255  A$rommgr$
     00005255  C$rommgr. |    00005256  A$rommgr$ |    00005258  A$rommgr$
     00005259  A$rommgr$ |    0000525B  A$rommgr$ |    0000525B  C$rommgr.
     0000525B  XG$romIni |    0000525C  Frommgr$_ |    00005274  A$rommgr$
     00005274  C$rommgr. |    00005274  C$rommgr. |    00005274  G$romClea
     00005274  _romClear |    00005277  A$rommgr$ |    00005278  A$rommgr$
     00005279  A$rommgr$ |    0000527A  A$rommgr$ |    0000527C  A$rommgr$
     0000527F  A$rommgr$ |    00005280  A$rommgr$ |    00005283  A$rommgr$
     00005284  A$rommgr$ |    00005285  A$rommgr$ |    00005285  C$rommgr.
     00005288  A$rommgr$ |    00005289  A$rommgr$ |    0000528A  A$rommgr$
     0000528C  A$rommgr$ |    0000528D  A$rommgr$ |    0000528F  A$rommgr$
     00005290  A$rommgr$ |    00005291  A$rommgr$ |    00005292  A$rommgr$
     00005294  A$rommgr$ |    00005295  A$rommgr$ |    00005296  A$rommgr$
     00005299  A$rommgr$ |    0000529A  A$rommgr$ |    0000529A  C$rommgr.
     0000529A  XG$romCle |    0000529B  A$rommgr$ |    0000529B  C$rommgr.
     0000529B  G$romSetW |    0000529B  _romSetWr |    0000529D  A$rommgr$
     000052A1  A$rommgr$ |    000052A3  A$rommgr$ |    000052A4  A$rommgr$
     000052A5  A$rommgr$ |    000052A5  C$rommgr. |    000052A8  A$rommgr$
     000052AA  A$rommgr$ |    000052AC  A$rommgr$ |    000052AF  A$rommgr$
     000052B1  A$rommgr$ |    000052B4  A$rommgr$ |    000052B4  C$rommgr.
     000052B7  A$rommgr$ |    000052B9  A$rommgr$ |    000052BA  A$rommgr$
     000052BB  A$rommgr$ |    000052BD  A$rommgr$ |    000052BE  A$rommgr$
     000052BF  A$rommgr$ |    000052C0  A$rommgr$ |    000052C1  A$rommgr$
     000052C2  A$rommgr$ |    000052C3  A$rommgr$ |    000052C6  A$rommgr$
     000052C9  A$rommgr$ |    000052C9  C$rommgr. |    000052CC  A$rommgr$
     000052CE  A$rommgr$ |    000052D0  A$rommgr$ |    000052D3  A$rommgr$
     000052D4  A$rommgr$ |    000052D7  A$rommgr$ |    000052DB  A$rommgr$
     000052DD  A$rommgr$ |    000052DD  C$rommgr. |    000052DE  A$rommgr$
     000052E1  A$rommgr$ |    000052E2  A$rommgr$ |    000052E3  A$rommgr$
     000052E6  A$rommgr$ |    000052E9  A$rommgr$ |    000052EA  A$rommgr$
     000052EB  A$rommgr$ |    000052EE  A$rommgr$ |    000052EF  A$rommgr$
     000052F0  A$rommgr$ |    000052F3  A$rommgr$ |    000052F6  A$rommgr$
     000052F7  A$rommgr$ |    000052F8  A$rommgr$ |    000052F9  A$rommgr$
     000052FB  A$rommgr$ |    000052FB  C$rommgr. |    000052FC  A$rommgr$
     000052FF  A$rommgr$ |    00005300  A$rommgr$ |    00005301  A$rommgr$
     00005304  A$rommgr$ |    00005307  A$rommgr$ |    00005308  A$rommgr$
     00005309  A$rommgr$ |    0000530C  A$rommgr$ |    0000530D  A$rommgr$
     0000530E  A$rommgr$ |    00005311  A$rommgr$ |    00005314  A$rommgr$
     00005315  A$rommgr$ |    00005316  A$rommgr$ |    00005317  A$rommgr$
ASxxxx Linker V03.00 + NoICE + sdld,  page 73.
Hexadecimal  [32-Bits]

Area                       Addr        Size        Decimal Bytes (Attributes)
--------------------       ----        ----        ------- ----- ------------
_CODE                  00000000    000084DB =       34011. bytes (REL,CON)

        Value  Global            Value  Global            Value  Global    
        -----  ------            -----  ------            -----  ------    
     00005317  C$rommgr. |    00005318  A$rommgr$ |    0000531B  A$rommgr$
     0000531C  A$rommgr$ |    0000531F  A$rommgr$ |    00005322  A$rommgr$
     00005323  A$rommgr$ |    00005326  A$rommgr$ |    00005327  A$rommgr$
     00005328  A$rommgr$ |    00005328  C$rommgr. |    0000532B  A$rommgr$
     0000532C  A$rommgr$ |    0000532D  A$rommgr$ |    0000532E  A$rommgr$
     00005330  A$rommgr$ |    00005331  A$rommgr$ |    00005332  A$rommgr$
     00005335  A$rommgr$ |    00005336  A$rommgr$ |    00005337  A$rommgr$
     00005337  C$rommgr. |    0000533A  A$rommgr$ |    0000533C  A$rommgr$
     0000533D  A$rommgr$ |    0000533E  A$rommgr$ |    0000533F  A$rommgr$
     00005341  A$rommgr$ |    00005342  A$rommgr$ |    00005343  A$rommgr$
     00005346  A$rommgr$ |    00005349  A$rommgr$ |    0000534A  A$rommgr$
     0000534D  A$rommgr$ |    0000534E  A$rommgr$ |    0000534F  A$rommgr$
     0000534F  C$rommgr. |    00005353  A$rommgr$ |    00005355  A$rommgr$
     00005357  A$rommgr$ |    00005358  A$rommgr$ |    00005359  A$rommgr$
     0000535A  A$rommgr$ |    0000535C  A$rommgr$ |    0000535D  A$rommgr$
     0000535E  A$rommgr$ |    00005361  A$rommgr$ |    00005362  A$rommgr$
     00005364  A$rommgr$ |    00005366  A$rommgr$ |    00005366  C$rommgr.
     00005366  XG$romSet |    00005367  Frommgr$_ |    00005380  A$rommgr$
     00005380  C$rommgr. |    00005380  C$rommgr. |    00005380  G$romSend
     00005380  _romSendD |    00005383  A$rommgr$ |    00005384  A$rommgr$
     00005387  A$rommgr$ |    00005388  A$rommgr$ |    00005388  C$rommgr.
     0000538B  A$rommgr$ |    0000538C  A$rommgr$ |    0000538D  A$rommgr$
     0000538E  A$rommgr$ |    0000538F  A$rommgr$ |    00005390  A$rommgr$
     00005393  A$rommgr$ |    00005394  A$rommgr$ |    00005395  A$rommgr$
     00005396  A$rommgr$ |    00005397  A$rommgr$ |    00005398  A$rommgr$
     0000539A  A$rommgr$ |    0000539B  A$rommgr$ |    0000539C  A$rommgr$
     0000539F  A$rommgr$ |    000053A0  A$rommgr$ |    000053A0  C$rommgr.
     000053A1  A$rommgr$ |    000053A4  A$rommgr$ |    000053A5  A$rommgr$
     000053A8  A$rommgr$ |    000053A9  A$rommgr$ |    000053A9  C$rommgr.
     000053A9  XG$romSen |    000053AA  A$rommgr$ |    000053AA  C$rommgr.
     000053AA  G$sramPut |    000053AA  _sramPut  |    000053AC  A$rommgr$
     000053B0  A$rommgr$ |    000053B2  A$rommgr$ |    000053B3  A$rommgr$
     000053B3  C$rommgr. |    000053B6  A$rommgr$ |    000053B7  A$rommgr$
     000053B8  A$rommgr$ |    000053B9  A$rommgr$ |    000053BA  A$rommgr$
     000053BB  A$rommgr$ |    000053BD  A$rommgr$ |    000053BE  A$rommgr$
     000053BE  C$rommgr. |    000053BF  A$rommgr$ |    000053C1  A$rommgr$
     000053C1  C$rommgr. |    000053C4  A$rommgr$ |    000053C4  C$rommgr.
     000053C7  A$rommgr$ |    000053C8  A$rommgr$ |    000053CA  A$rommgr$
     000053CB  A$rommgr$ |    000053CC  A$rommgr$ |    000053CD  A$rommgr$
     000053CE  A$rommgr$ |    000053CF  A$rommgr$ |    000053D0  A$rommgr$
     000053D3  A$rommgr$ |    000053D4  A$rommgr$ |    000053D5  A$rommgr$
     000053D6  A$rommgr$ |    000053D6  C$rommgr. |    000053D9  A$rommgr$
     000053DB  A$rommgr$ |    000053DC  A$rommgr$ |    000053DE  A$rommgr$
     000053DF  A$rommgr$ |    000053E0  A$rommgr$ |    000053E1  A$rommgr$
     000053E2  A$rommgr$ |    000053E3  A$rommgr$ |    000053E4  A$rommgr$
     000053E7  A$rommgr$ |    000053E8  A$rommgr$ |    000053E9  A$rommgr$
     000053EA  A$rommgr$ |    000053EA  C$rommgr. |    000053ED  A$rommgr$
     000053F0  A$rommgr$ |    000053F1  A$rommgr$ |    000053F3  A$rommgr$
     000053F4  A$rommgr$ |    000053F5  A$rommgr$ |    000053F6  A$rommgr$
     000053F7  A$rommgr$ |    000053F8  A$rommgr$ |    000053F9  A$rommgr$
     000053FC  A$rommgr$ |    000053FD  A$rommgr$ |    000053FE  A$rommgr$
ASxxxx Linker V03.00 + NoICE + sdld,  page 74.
Hexadecimal  [32-Bits]

Area                       Addr        Size        Decimal Bytes (Attributes)
--------------------       ----        ----        ------- ----- ------------
_CODE                  00000000    000084DB =       34011. bytes (REL,CON)

        Value  Global            Value  Global            Value  Global    
        -----  ------            -----  ------            -----  ------    
     000053FF  A$rommgr$ |    000053FF  C$rommgr. |    00005402  A$rommgr$
     00005404  A$rommgr$ |    00005405  A$rommgr$ |    00005407  A$rommgr$
     00005408  A$rommgr$ |    00005409  A$rommgr$ |    0000540A  A$rommgr$
     0000540B  A$rommgr$ |    0000540C  A$rommgr$ |    0000540D  A$rommgr$
     00005410  A$rommgr$ |    00005411  A$rommgr$ |    00005412  A$rommgr$
     00005413  A$rommgr$ |    00005413  C$rommgr. |    00005414  A$rommgr$
     00005416  A$rommgr$ |    00005417  A$rommgr$ |    00005418  A$rommgr$
     00005419  A$rommgr$ |    0000541B  A$rommgr$ |    0000541C  A$rommgr$
     0000541D  A$rommgr$ |    0000541E  A$rommgr$ |    0000541F  A$rommgr$
     00005422  A$rommgr$ |    00005423  A$rommgr$ |    00005426  A$rommgr$
     00005427  A$rommgr$ |    00005428  A$rommgr$ |    00005429  A$rommgr$
     0000542A  A$rommgr$ |    0000542C  A$rommgr$ |    0000542D  A$rommgr$
     0000542E  A$rommgr$ |    00005430  A$rommgr$ |    00005430  C$rommgr.
     00005431  A$rommgr$ |    00005432  A$rommgr$ |    00005433  A$rommgr$
     00005434  A$rommgr$ |    00005437  A$rommgr$ |    00005438  A$rommgr$
     00005439  A$rommgr$ |    0000543A  A$rommgr$ |    0000543C  A$rommgr$
     0000543E  A$rommgr$ |    0000543E  C$rommgr. |    00005441  A$rommgr$
     00005444  A$rommgr$ |    00005445  A$rommgr$ |    00005447  A$rommgr$
     0000544A  A$rommgr$ |    0000544B  A$rommgr$ |    0000544E  A$rommgr$
     00005451  A$rommgr$ |    00005452  A$rommgr$ |    00005453  A$rommgr$
     00005456  A$rommgr$ |    00005457  A$rommgr$ |    00005458  A$rommgr$
     0000545B  A$rommgr$ |    0000545C  A$rommgr$ |    0000545D  A$rommgr$
     0000545E  A$rommgr$ |    0000545F  A$rommgr$ |    0000545F  C$rommgr.
     00005460  A$rommgr$ |    00005461  A$rommgr$ |    00005462  A$rommgr$
     00005463  A$rommgr$ |    00005464  A$rommgr$ |    00005465  A$rommgr$
     00005468  A$rommgr$ |    00005469  A$rommgr$ |    0000546C  A$rommgr$
     0000546D  A$rommgr$ |    0000546E  A$rommgr$ |    0000546F  A$rommgr$
     00005471  A$rommgr$ |    00005472  A$rommgr$ |    00005473  A$rommgr$
     00005475  A$rommgr$ |    00005475  C$rommgr. |    00005476  A$rommgr$
     00005477  A$rommgr$ |    00005478  A$rommgr$ |    0000547B  A$rommgr$
     0000547C  A$rommgr$ |    0000547D  A$rommgr$ |    0000547F  A$rommgr$
     00005481  A$rommgr$ |    00005482  A$rommgr$ |    00005484  A$rommgr$
     00005484  C$rommgr. |    00005484  XG$sramPu |    00005485  Frommgr$_
     0000549D  A$rommgr$ |    0000549D  C$rommgr. |    0000549D  G$sramGet
     0000549D  _sramGet  |    0000549F  A$rommgr$ |    000054A3  A$rommgr$
     000054A5  A$rommgr$ |    000054A6  A$rommgr$ |    000054A6  C$rommgr.
     000054A9  A$rommgr$ |    000054AA  A$rommgr$ |    000054AB  A$rommgr$
     000054AC  A$rommgr$ |    000054AD  A$rommgr$ |    000054AE  A$rommgr$
     000054B0  A$rommgr$ |    000054B1  A$rommgr$ |    000054B1  C$rommgr.
     000054B2  A$rommgr$ |    000054B4  A$rommgr$ |    000054B4  C$rommgr.
     000054B7  A$rommgr$ |    000054B7  C$rommgr. |    000054BA  A$rommgr$
     000054BB  A$rommgr$ |    000054BD  A$rommgr$ |    000054BE  A$rommgr$
     000054BF  A$rommgr$ |    000054C0  A$rommgr$ |    000054C1  A$rommgr$
     000054C2  A$rommgr$ |    000054C3  A$rommgr$ |    000054C6  A$rommgr$
     000054C7  A$rommgr$ |    000054C8  A$rommgr$ |    000054C9  A$rommgr$
     000054C9  C$rommgr. |    000054CC  A$rommgr$ |    000054CE  A$rommgr$
     000054CF  A$rommgr$ |    000054D1  A$rommgr$ |    000054D2  A$rommgr$
     000054D3  A$rommgr$ |    000054D4  A$rommgr$ |    000054D5  A$rommgr$
     000054D6  A$rommgr$ |    000054D7  A$rommgr$ |    000054DA  A$rommgr$
     000054DB  A$rommgr$ |    000054DC  A$rommgr$ |    000054DD  A$rommgr$
     000054DD  C$rommgr. |    000054E0  A$rommgr$ |    000054E3  A$rommgr$
ASxxxx Linker V03.00 + NoICE + sdld,  page 75.
Hexadecimal  [32-Bits]

Area                       Addr        Size        Decimal Bytes (Attributes)
--------------------       ----        ----        ------- ----- ------------
_CODE                  00000000    000084DB =       34011. bytes (REL,CON)

        Value  Global            Value  Global            Value  Global    
        -----  ------            -----  ------            -----  ------    
     000054E4  A$rommgr$ |    000054E6  A$rommgr$ |    000054E7  A$rommgr$
     000054E8  A$rommgr$ |    000054E9  A$rommgr$ |    000054EA  A$rommgr$
     000054EB  A$rommgr$ |    000054EC  A$rommgr$ |    000054EF  A$rommgr$
     000054F0  A$rommgr$ |    000054F1  A$rommgr$ |    000054F2  A$rommgr$
     000054F2  C$rommgr. |    000054F5  A$rommgr$ |    000054F7  A$rommgr$
     000054F8  A$rommgr$ |    000054FA  A$rommgr$ |    000054FB  A$rommgr$
     000054FC  A$rommgr$ |    000054FD  A$rommgr$ |    000054FE  A$rommgr$
     000054FF  A$rommgr$ |    00005500  A$rommgr$ |    00005503  A$rommgr$
     00005504  A$rommgr$ |    00005505  A$rommgr$ |    00005506  A$rommgr$
     00005506  C$rommgr. |    00005507  A$rommgr$ |    00005509  A$rommgr$
     0000550A  A$rommgr$ |    0000550B  A$rommgr$ |    0000550C  A$rommgr$
     0000550E  A$rommgr$ |    0000550F  A$rommgr$ |    00005510  A$rommgr$
     00005511  A$rommgr$ |    00005512  A$rommgr$ |    00005515  A$rommgr$
     00005516  A$rommgr$ |    00005519  A$rommgr$ |    0000551A  A$rommgr$
     0000551B  A$rommgr$ |    0000551C  A$rommgr$ |    0000551D  A$rommgr$
     0000551F  A$rommgr$ |    00005520  A$rommgr$ |    00005521  A$rommgr$
     00005523  A$rommgr$ |    00005523  C$rommgr. |    00005524  A$rommgr$
     00005525  A$rommgr$ |    00005526  A$rommgr$ |    00005527  A$rommgr$
     0000552A  A$rommgr$ |    0000552B  A$rommgr$ |    0000552C  A$rommgr$
     0000552D  A$rommgr$ |    0000552F  A$rommgr$ |    00005531  A$rommgr$
     00005531  C$rommgr. |    00005534  A$rommgr$ |    00005537  A$rommgr$
     00005538  A$rommgr$ |    0000553A  A$rommgr$ |    0000553D  A$rommgr$
     0000553E  A$rommgr$ |    00005541  A$rommgr$ |    00005544  A$rommgr$
     00005545  A$rommgr$ |    00005546  A$rommgr$ |    00005549  A$rommgr$
     0000554A  A$rommgr$ |    0000554B  A$rommgr$ |    0000554E  A$rommgr$
     0000554F  A$rommgr$ |    00005550  A$rommgr$ |    00005551  A$rommgr$
     00005552  A$rommgr$ |    00005552  C$rommgr. |    00005553  A$rommgr$
     00005554  A$rommgr$ |    00005555  A$rommgr$ |    00005556  A$rommgr$
     00005557  A$rommgr$ |    00005558  A$rommgr$ |    0000555B  A$rommgr$
     0000555C  A$rommgr$ |    0000555F  A$rommgr$ |    00005560  A$rommgr$
     00005561  A$rommgr$ |    00005562  A$rommgr$ |    00005564  A$rommgr$
     00005565  A$rommgr$ |    00005566  A$rommgr$ |    00005568  A$rommgr$
     00005568  C$rommgr. |    00005569  A$rommgr$ |    0000556A  A$rommgr$
     0000556B  A$rommgr$ |    0000556E  A$rommgr$ |    0000556F  A$rommgr$
     00005570  A$rommgr$ |    00005572  A$rommgr$ |    00005574  A$rommgr$
     00005575  A$rommgr$ |    00005577  A$rommgr$ |    00005577  C$rommgr.
     00005577  XG$sramGe |    00005578  Frommgr$_ |    00005590  A$sdc$95 
     00005590  C$sdc.c$3 |    00005590  G$sdcInte |    00005590  _sdcInter
     00005592  A$sdc$96  |    00005596  A$sdc$97  |    00005598  A$sdc$101
     00005598  C$sdc.c$4 |    0000559B  A$sdc$102 |    0000559E  A$sdc$103
     000055A1  A$sdc$104 |    000055A2  A$sdc$105 |    000055A3  A$sdc$106
     000055A4  A$sdc$107 |    000055A6  A$sdc$108 |    000055A8  A$sdc$112
     000055A8  C$sdc.c$4 |    000055AA  A$sdc$113 |    000055AB  A$sdc$117
     000055AB  C$sdc.c$4 |    000055AE  A$sdc$118 |    000055AF  A$sdc$119
     000055B2  A$sdc$120 |    000055B3  A$sdc$124 |    000055B3  C$sdc.c$4
     000055B5  A$sdc$129 |    000055B5  C$sdc.c$4 |    000055B6  A$sdc$130
     000055B7  A$sdc$131 |    000055BA  A$sdc$132 |    000055BB  A$sdc$133
     000055BC  A$sdc$134 |    000055BD  A$sdc$135 |    000055BE  A$sdc$136
     000055BF  A$sdc$137 |    000055C0  A$sdc$138 |    000055C1  A$sdc$139
     000055C2  A$sdc$140 |    000055C3  A$sdc$141 |    000055C4  A$sdc$142
     000055C5  A$sdc$143 |    000055C6  A$sdc$144 |    000055C8  A$sdc$145
ASxxxx Linker V03.00 + NoICE + sdld,  page 76.
Hexadecimal  [32-Bits]

Area                       Addr        Size        Decimal Bytes (Attributes)
--------------------       ----        ----        ------- ----- ------------
_CODE                  00000000    000084DB =       34011. bytes (REL,CON)

        Value  Global            Value  Global            Value  Global    
        -----  ------            -----  ------            -----  ------    
     000055CA  A$sdc$146 |    000055CC  A$sdc$147 |    000055CD  A$sdc$148
     000055CF  A$sdc$152 |    000055CF  C$sdc.c$5 |    000055D1  A$sdc$153
     000055D3  A$sdc$157 |    000055D3  C$sdc.c$5 |    000055D4  A$sdc$158
     000055D6  A$sdc$159 |    000055D7  A$sdc$160 |    000055DA  A$sdc$161
     000055DD  A$sdc$162 |    000055DE  A$sdc$163 |    000055DF  A$sdc$164
     000055E2  A$sdc$165 |    000055E5  A$sdc$166 |    000055E6  A$sdc$167
     000055E7  A$sdc$171 |    000055E7  C$sdc.c$5 |    000055EA  A$sdc$172
     000055EB  A$sdc$173 |    000055EE  A$sdc$174 |    000055EF  A$sdc$178
     000055EF  C$sdc.c$5 |    000055F1  A$sdc$183 |    000055F1  C$sdc.c$5
     000055F2  A$sdc$184 |    000055F5  A$sdc$185 |    000055F6  A$sdc$186
     000055F9  A$sdc$187 |    000055FB  A$sdc$188 |    000055FC  A$sdc$189
     000055FD  A$sdc$190 |    00005600  A$sdc$191 |    00005601  A$sdc$192
     00005604  A$sdc$193 |    00005605  A$sdc$194 |    00005606  A$sdc$195
     00005607  A$sdc$196 |    00005608  A$sdc$197 |    0000560B  A$sdc$198
     0000560C  A$sdc$199 |    0000560D  A$sdc$200 |    0000560E  A$sdc$204
     0000560E  C$sdc.c$6 |    0000560F  A$sdc$205 |    00005610  A$sdc$210
     00005612  A$sdc$215 |    00005612  C$sdc.c$6 |    00005612  XG$sdcInt
     00005613  Fsdc$__st |    0000562B  Fsdc$__st |    0000565B  Fsdc$__st
     0000566C  A$sdc$237 |    0000566C  C$sdc.c$7 |    0000566C  G$sdcInit
     0000566C  _sdcInit  |    0000566E  A$sdc$238 |    00005672  A$sdc$239
     00005674  A$sdc$243 |    00005674  C$sdc.c$7 |    00005676  A$sdc$244
     00005677  A$sdc$245 |    00005678  A$sdc$246 |    0000567B  A$sdc$247
     0000567C  A$sdc$248 |    0000567D  A$sdc$252 |    0000567D  C$sdc.c$7
     0000567E  A$sdc$253 |    0000567F  A$sdc$254 |    00005682  A$sdc$255
     00005683  A$sdc$256 |    00005684  A$sdc$257 |    00005687  A$sdc$258
     00005688  A$sdc$259 |    00005689  A$sdc$260 |    0000568C  A$sdc$261
     0000568F  A$sdc$262 |    00005690  A$sdc$263 |    00005691  A$sdc$267
     00005691  C$sdc.c$7 |    00005694  A$sdc$268 |    00005695  A$sdc$269
     00005698  A$sdc$273 |    00005698  C$sdc.c$7 |    0000569B  A$sdc$274
     0000569C  A$sdc$275 |    0000569F  A$sdc$276 |    000056A0  A$sdc$277
     000056A2  A$sdc$278 |    000056A3  A$sdc$279 |    000056A4  A$sdc$280
     000056A7  A$sdc$281 |    000056A8  A$sdc$282 |    000056A9  A$sdc$283
     000056AA  A$sdc$287 |    000056AA  C$sdc.c$7 |    000056AC  A$sdc$288
     000056AD  A$sdc$289 |    000056AE  A$sdc$290 |    000056B1  A$sdc$291
     000056B2  A$sdc$295 |    000056B2  C$sdc.c$7 |    000056B3  A$sdc$296
     000056B4  A$sdc$297 |    000056B5  A$sdc$298 |    000056B8  A$sdc$299
     000056B9  A$sdc$303 |    000056B9  C$sdc.c$7 |    000056BC  A$sdc$304
     000056BD  A$sdc$305 |    000056C0  A$sdc$306 |    000056C1  A$sdc$307
     000056C3  A$sdc$308 |    000056C4  A$sdc$309 |    000056C5  A$sdc$310
     000056C8  A$sdc$311 |    000056C9  A$sdc$315 |    000056C9  C$sdc.c$8
     000056CA  A$sdc$316 |    000056CD  A$sdc$317 |    000056CE  A$sdc$318
     000056D1  A$sdc$319 |    000056D2  A$sdc$320 |    000056D4  A$sdc$321
     000056D5  A$sdc$322 |    000056D6  A$sdc$323 |    000056D9  A$sdc$324
     000056DA  A$sdc$328 |    000056DA  C$sdc.c$8 |    000056DB  A$sdc$329
     000056DE  A$sdc$330 |    000056DF  A$sdc$331 |    000056E2  A$sdc$332
     000056E3  A$sdc$333 |    000056E5  A$sdc$334 |    000056E6  A$sdc$335
     000056E7  A$sdc$336 |    000056EA  A$sdc$337 |    000056EB  A$sdc$341
     000056EB  C$sdc.c$8 |    000056EC  A$sdc$342 |    000056EF  A$sdc$343
     000056F0  A$sdc$344 |    000056F3  A$sdc$345 |    000056F4  A$sdc$346
     000056F6  A$sdc$347 |    000056F7  A$sdc$348 |    000056F8  A$sdc$349
     000056FB  A$sdc$350 |    000056FC  A$sdc$354 |    000056FC  C$sdc.c$8
ASxxxx Linker V03.00 + NoICE + sdld,  page 77.
Hexadecimal  [32-Bits]

Area                       Addr        Size        Decimal Bytes (Attributes)
--------------------       ----        ----        ------- ----- ------------
_CODE                  00000000    000084DB =       34011. bytes (REL,CON)

        Value  Global            Value  Global            Value  Global    
        -----  ------            -----  ------            -----  ------    
     000056FD  A$sdc$355 |    00005700  A$sdc$356 |    00005701  A$sdc$357
     00005704  A$sdc$358 |    00005705  A$sdc$359 |    00005707  A$sdc$360
     00005708  A$sdc$361 |    00005709  A$sdc$362 |    0000570C  A$sdc$363
     0000570D  A$sdc$364 |    0000570E  A$sdc$365 |    0000570F  A$sdc$369
     0000570F  C$sdc.c$8 |    00005712  A$sdc$370 |    00005715  A$sdc$371
     00005718  A$sdc$372 |    00005719  A$sdc$373 |    0000571B  A$sdc$377
     0000571B  C$sdc.c$8 |    0000571E  A$sdc$378 |    0000571F  A$sdc$379
     00005721  A$sdc$383 |    00005721  C$sdc.c$8 |    00005724  A$sdc$384
     00005725  A$sdc$385 |    00005727  A$sdc$389 |    00005727  C$sdc.c$8
     0000572A  A$sdc$390 |    0000572D  A$sdc$391 |    0000572E  A$sdc$392
     00005730  A$sdc$396 |    00005730  C$sdc.c$8 |    00005733  A$sdc$397
     00005734  A$sdc$398 |    00005736  A$sdc$402 |    00005736  C$sdc.c$9
     00005739  A$sdc$403 |    0000573A  A$sdc$404 |    0000573B  A$sdc$405
     0000573C  A$sdc$406 |    0000573D  A$sdc$407 |    0000573E  A$sdc$408
     0000573F  A$sdc$409 |    00005740  A$sdc$410 |    00005741  A$sdc$411
     00005743  A$sdc$415 |    00005743  C$sdc.c$9 |    00005747  A$sdc$419
     00005747  C$sdc.c$9 |    00005748  A$sdc$420 |    00005749  A$sdc$421
     0000574A  A$sdc$422 |    0000574D  A$sdc$423 |    0000574E  A$sdc$424
     00005751  A$sdc$425 |    00005752  A$sdc$426 |    00005755  A$sdc$427
     00005756  A$sdc$428 |    00005759  A$sdc$429 |    0000575A  A$sdc$430
     0000575D  A$sdc$431 |    0000575E  A$sdc$432 |    00005761  A$sdc$433
     00005762  A$sdc$434 |    00005765  A$sdc$435 |    00005766  A$sdc$436
     00005769  A$sdc$437 |    0000576A  A$sdc$438 |    0000576D  A$sdc$439
     0000576E  A$sdc$440 |    00005771  A$sdc$441 |    00005772  A$sdc$442
     00005775  A$sdc$443 |    00005776  A$sdc$444 |    00005779  A$sdc$445
     0000577C  A$sdc$446 |    0000577D  A$sdc$447 |    0000577E  A$sdc$451
     0000577E  C$sdc.c$1 |    00005780  A$sdc$452 |    00005781  A$sdc$453
     00005782  A$sdc$454 |    00005785  A$sdc$455 |    00005786  A$sdc$456
     00005789  A$sdc$457 |    0000578A  A$sdc$458 |    0000578D  A$sdc$459
     0000578E  A$sdc$460 |    00005791  A$sdc$461 |    00005792  A$sdc$462
     00005795  A$sdc$463 |    00005796  A$sdc$464 |    00005799  A$sdc$465
     0000579A  A$sdc$466 |    0000579D  A$sdc$467 |    0000579E  A$sdc$468
     000057A1  A$sdc$469 |    000057A2  A$sdc$470 |    000057A5  A$sdc$471
     000057A6  A$sdc$472 |    000057A9  A$sdc$473 |    000057AA  A$sdc$474
     000057AD  A$sdc$475 |    000057AE  A$sdc$476 |    000057B1  A$sdc$477
     000057B4  A$sdc$478 |    000057B5  A$sdc$479 |    000057B6  A$sdc$483
     000057B6  C$sdc.c$1 |    000057B7  A$sdc$484 |    000057B8  A$sdc$485
     000057B9  A$sdc$486 |    000057BC  A$sdc$487 |    000057BD  A$sdc$488
     000057C0  A$sdc$489 |    000057C1  A$sdc$490 |    000057C4  A$sdc$491
     000057C5  A$sdc$492 |    000057C8  A$sdc$493 |    000057C9  A$sdc$494
     000057CC  A$sdc$495 |    000057CD  A$sdc$496 |    000057D0  A$sdc$497
     000057D1  A$sdc$498 |    000057D4  A$sdc$499 |    000057D5  A$sdc$500
     000057D8  A$sdc$501 |    000057D9  A$sdc$502 |    000057DC  A$sdc$503
     000057DD  A$sdc$504 |    000057E0  A$sdc$505 |    000057E1  A$sdc$506
     000057E4  A$sdc$507 |    000057E5  A$sdc$508 |    000057E8  A$sdc$509
     000057EB  A$sdc$510 |    000057EC  A$sdc$511 |    000057ED  A$sdc$515
     000057ED  C$sdc.c$1 |    000057EF  A$sdc$516 |    000057F0  A$sdc$517
     000057F1  A$sdc$518 |    000057F4  A$sdc$519 |    000057F5  A$sdc$520
     000057F8  A$sdc$521 |    000057F9  A$sdc$522 |    000057FC  A$sdc$523
     000057FD  A$sdc$524 |    00005800  A$sdc$525 |    00005801  A$sdc$526
     00005804  A$sdc$527 |    00005805  A$sdc$528 |    00005808  A$sdc$529
ASxxxx Linker V03.00 + NoICE + sdld,  page 78.
Hexadecimal  [32-Bits]

Area                       Addr        Size        Decimal Bytes (Attributes)
--------------------       ----        ----        ------- ----- ------------
_CODE                  00000000    000084DB =       34011. bytes (REL,CON)

        Value  Global            Value  Global            Value  Global    
        -----  ------            -----  ------            -----  ------    
     00005809  A$sdc$530 |    0000580C  A$sdc$531 |    0000580D  A$sdc$532
     00005810  A$sdc$533 |    00005811  A$sdc$534 |    00005814  A$sdc$535
     00005815  A$sdc$536 |    00005818  A$sdc$537 |    00005819  A$sdc$538
     0000581C  A$sdc$539 |    0000581D  A$sdc$540 |    00005820  A$sdc$541
     00005823  A$sdc$542 |    00005824  A$sdc$543 |    00005825  A$sdc$547
     00005825  C$sdc.c$1 |    00005827  A$sdc$548 |    00005828  A$sdc$549
     00005829  A$sdc$550 |    0000582C  A$sdc$551 |    0000582D  A$sdc$552
     00005830  A$sdc$553 |    00005831  A$sdc$554 |    00005834  A$sdc$555
     00005835  A$sdc$556 |    00005838  A$sdc$557 |    00005839  A$sdc$558
     0000583C  A$sdc$559 |    0000583D  A$sdc$560 |    00005840  A$sdc$561
     00005841  A$sdc$562 |    00005844  A$sdc$563 |    00005845  A$sdc$564
     00005848  A$sdc$565 |    00005849  A$sdc$566 |    0000584C  A$sdc$567
     0000584D  A$sdc$568 |    00005850  A$sdc$569 |    00005851  A$sdc$570
     00005854  A$sdc$571 |    00005855  A$sdc$572 |    00005858  A$sdc$573
     0000585B  A$sdc$574 |    0000585C  A$sdc$575 |    0000585D  A$sdc$579
     0000585F  A$sdc$584 |    0000585F  C$sdc.c$1 |    0000585F  XG$sdcIni
     00005860  Fsdc$__st |    0000588B  A$sdc$601 |    0000588B  C$sdc.c$1
     0000588B  C$sdc.c$1 |    0000588B  G$sdcSetR |    0000588B  _sdcSetRe
     0000588E  A$sdc$602 |    0000588F  A$sdc$603 |    00005890  A$sdc$604
     00005891  A$sdc$605 |    00005892  A$sdc$606 |    00005894  A$sdc$607
     00005895  A$sdc$608 |    00005896  A$sdc$609 |    00005899  A$sdc$613
     00005899  C$sdc.c$1 |    0000589C  A$sdc$614 |    0000589D  A$sdc$615
     000058A0  A$sdc$619 |    000058A0  C$sdc.c$1 |    000058A3  A$sdc$620
     000058A4  A$sdc$621 |    000058A7  A$sdc$625 |    000058A7  C$sdc.c$1
     000058AA  A$sdc$626 |    000058AB  A$sdc$627 |    000058AE  A$sdc$628
     000058AF  A$sdc$632 |    000058AF  C$sdc.c$1 |    000058B2  A$sdc$633
     000058B3  A$sdc$634 |    000058B4  A$sdc$635 |    000058B5  A$sdc$636
     000058B6  A$sdc$637 |    000058B8  A$sdc$638 |    000058B9  A$sdc$639
     000058BA  A$sdc$640 |    000058BD  A$sdc$641 |    000058BE  A$sdc$645
     000058BE  C$sdc.c$1 |    000058C1  A$sdc$646 |    000058C2  A$sdc$647
     000058C3  A$sdc$648 |    000058C5  A$sdc$649 |    000058C6  A$sdc$650
     000058C7  A$sdc$651 |    000058C9  A$sdc$652 |    000058CA  A$sdc$653
     000058CB  A$sdc$654 |    000058CE  A$sdc$655 |    000058CF  A$sdc$659
     000058CF  C$sdc.c$1 |    000058D3  A$sdc$660 |    000058D5  A$sdc$661
     000058D8  A$sdc$662 |    000058DB  A$sdc$663 |    000058DC  A$sdc$664
     000058DD  A$sdc$665 |    000058DF  A$sdc$666 |    000058E0  A$sdc$667
     000058E1  A$sdc$668 |    000058E4  A$sdc$669 |    000058E5  A$sdc$673
     000058E5  C$sdc.c$1 |    000058E8  A$sdc$674 |    000058E9  A$sdc$675
     000058EA  A$sdc$676 |    000058EC  A$sdc$677 |    000058ED  A$sdc$678
     000058EE  A$sdc$679 |    000058F0  A$sdc$680 |    000058F1  A$sdc$681
     000058F2  A$sdc$682 |    000058F5  A$sdc$686 |    000058F5  C$sdc.c$1
     000058F8  A$sdc$687 |    000058F9  A$sdc$688 |    000058FC  A$sdc$689
     000058FD  A$sdc$697 |    000058FD  C$sdc.c$1 |    000058FD  XG$sdcSet
     000058FE  A$sdc$707 |    000058FE  C$sdc.c$1 |    000058FE  G$sdcGetR
     000058FE  _sdcGetRe |    00005900  A$sdc$708 |    00005904  A$sdc$709
     00005906  A$sdc$710 |    00005907  A$sdc$711 |    00005908  A$sdc$715
     00005908  C$sdc.c$1 |    0000590B  A$sdc$716 |    0000590C  A$sdc$717
     0000590D  A$sdc$718 |    0000590F  A$sdc$719 |    00005910  A$sdc$720
     00005911  A$sdc$721 |    00005914  A$sdc$725 |    00005914  C$sdc.c$1
     00005917  A$sdc$726 |    00005918  A$sdc$727 |    0000591B  A$sdc$731
     0000591B  C$sdc.c$1 |    0000591E  A$sdc$732 |    0000591F  A$sdc$733
ASxxxx Linker V03.00 + NoICE + sdld,  page 79.
Hexadecimal  [32-Bits]

Area                       Addr        Size        Decimal Bytes (Attributes)
--------------------       ----        ----        ------- ----- ------------
_CODE                  00000000    000084DB =       34011. bytes (REL,CON)

        Value  Global            Value  Global            Value  Global    
        -----  ------            -----  ------            -----  ------    
     00005922  A$sdc$737 |    00005922  C$sdc.c$1 |    00005925  A$sdc$738
     00005926  A$sdc$739 |    00005929  A$sdc$743 |    00005929  C$sdc.c$1
     0000592C  A$sdc$744 |    0000592D  A$sdc$745 |    00005930  A$sdc$746
     00005931  A$sdc$751 |    00005931  C$sdc.c$1 |    00005933  A$sdc$752
     00005934  A$sdc$753 |    00005935  A$sdc$754 |    00005938  A$sdc$755
     00005939  A$sdc$756 |    0000593B  A$sdc$757 |    0000593D  A$sdc$758
     0000593F  A$sdc$759 |    00005940  A$sdc$760 |    00005942  A$sdc$765
     00005942  C$sdc.c$1 |    00005944  A$sdc$766 |    00005945  A$sdc$767
     00005946  A$sdc$768 |    00005949  A$sdc$769 |    0000594A  A$sdc$770
     0000594C  A$sdc$771 |    0000594F  A$sdc$772 |    00005952  A$sdc$773
     00005955  A$sdc$774 |    00005958  A$sdc$775 |    0000595B  A$sdc$779
     0000595B  C$sdc.c$1 |    0000595D  A$sdc$780 |    0000595E  A$sdc$781
     0000595F  A$sdc$782 |    00005962  A$sdc$783 |    00005963  A$sdc$784
     00005965  A$sdc$785 |    00005967  A$sdc$786 |    00005968  A$sdc$787
     00005969  A$sdc$788 |    0000596A  A$sdc$789 |    0000596C  A$sdc$790
     0000596F  A$sdc$791 |    00005970  A$sdc$792 |    00005973  A$sdc$793
     00005976  A$sdc$794 |    00005977  A$sdc$795 |    0000597A  A$sdc$796
     0000597D  A$sdc$797 |    0000597E  A$sdc$798 |    00005981  A$sdc$799
     00005984  A$sdc$800 |    00005985  A$sdc$801 |    00005988  A$sdc$805
     00005988  C$sdc.c$1 |    0000598A  A$sdc$806 |    0000598B  A$sdc$807
     0000598C  A$sdc$808 |    0000598F  A$sdc$809 |    00005990  A$sdc$810
     00005992  A$sdc$811 |    00005995  A$sdc$812 |    00005998  A$sdc$813
     00005999  A$sdc$814 |    0000599C  A$sdc$815 |    0000599F  A$sdc$816
     000059A0  A$sdc$817 |    000059A3  A$sdc$818 |    000059A6  A$sdc$819
     000059A7  A$sdc$820 |    000059AA  A$sdc$821 |    000059AD  A$sdc$822
     000059AE  A$sdc$823 |    000059B1  A$sdc$827 |    000059B1  C$sdc.c$1
     000059B3  A$sdc$828 |    000059B4  A$sdc$829 |    000059B5  A$sdc$830
     000059B8  A$sdc$831 |    000059B9  A$sdc$832 |    000059BA  A$sdc$833
     000059BD  A$sdc$834 |    000059BF  A$sdc$835 |    000059C2  A$sdc$836
     000059C3  A$sdc$837 |    000059C4  A$sdc$838 |    000059C7  A$sdc$839
     000059C8  A$sdc$840 |    000059C9  A$sdc$841 |    000059CC  A$sdc$842
     000059CD  A$sdc$843 |    000059CE  A$sdc$844 |    000059D1  A$sdc$845
     000059D2  A$sdc$846 |    000059D3  A$sdc$850 |    000059D5  A$sdc$851
     000059D7  A$sdc$856 |    000059D7  C$sdc.c$1 |    000059D7  XG$sdcGet
     000059D8  A$sdc$866 |    000059D8  C$sdc.c$1 |    000059D8  G$sdcSetC
     000059D8  _sdcSetCl |    000059DA  A$sdc$867 |    000059DE  A$sdc$868
     000059E0  A$sdc$872 |    000059E0  C$sdc.c$1 |    000059E3  A$sdc$873
     000059E5  A$sdc$874 |    000059E6  A$sdc$875 |    000059E7  A$sdc$876
     000059E8  A$sdc$877 |    000059E9  A$sdc$878 |    000059EA  A$sdc$879
     000059EB  A$sdc$880 |    000059EC  A$sdc$881 |    000059ED  A$sdc$882
     000059F0  A$sdc$883 |    000059F1  A$sdc$884 |    000059F4  A$sdc$885
     000059F5  A$sdc$886 |    000059F8  A$sdc$887 |    000059F9  A$sdc$888
     000059FA  A$sdc$889 |    000059FB  A$sdc$890 |    000059FC  A$sdc$891
     000059FD  A$sdc$892 |    000059FE  A$sdc$893 |    000059FF  A$sdc$894
     00005A02  A$sdc$895 |    00005A03  A$sdc$896 |    00005A04  A$sdc$897
     00005A07  A$sdc$898 |    00005A08  A$sdc$899 |    00005A09  A$sdc$900
     00005A0C  A$sdc$901 |    00005A0F  A$sdc$902 |    00005A10  A$sdc$903
     00005A11  A$sdc$907 |    00005A11  C$sdc.c$1 |    00005A14  A$sdc$908
     00005A15  A$sdc$909 |    00005A18  A$sdc$910 |    00005A19  A$sdc$914
     00005A19  C$sdc.c$1 |    00005A1C  A$sdc$915 |    00005A1E  A$sdc$916
     00005A21  A$sdc$917 |    00005A22  A$sdc$918 |    00005A23  A$sdc$919
ASxxxx Linker V03.00 + NoICE + sdld,  page 80.
Hexadecimal  [32-Bits]

Area                       Addr        Size        Decimal Bytes (Attributes)
--------------------       ----        ----        ------- ----- ------------
_CODE                  00000000    000084DB =       34011. bytes (REL,CON)

        Value  Global            Value  Global            Value  Global    
        -----  ------            -----  ------            -----  ------    
     00005A25  A$sdc$920 |    00005A26  A$sdc$921 |    00005A27  A$sdc$922
     00005A2A  A$sdc$923 |    00005A2B  A$sdc$924 |    00005A2C  A$sdc$925
     00005A2D  A$sdc$929 |    00005A2F  A$sdc$934 |    00005A2F  C$sdc.c$1
     00005A2F  XG$sdcSet |    00005A30  Fsdc$__st |    00005A51  A$sdc$948
     00005A51  C$sdc.c$1 |    00005A51  G$sdcSetI |    00005A51  _sdcSetIF
     00005A53  A$sdc$949 |    00005A57  A$sdc$950 |    00005A59  A$sdc$951
     00005A5A  A$sdc$955 |    00005A5A  C$sdc.c$1 |    00005A5D  A$sdc$956
     00005A5E  A$sdc$957 |    00005A60  A$sdc$958 |    00005A63  A$sdc$961
     00005A64  A$sdc$963 |    00005A65  A$sdc$964 |    00005A67  A$sdc$965
     00005A69  A$sdc$966 |    00005A6C  A$sdc$967 |    00005A6D  A$sdc$971
     00005A6D  C$sdc.c$1 |    00005A6F  A$sdc$976 |    00005A6F  C$sdc.c$2
     00005A71  A$sdc$977 |    00005A73  A$sdc$978 |    00005A76  A$sdc$979
     00005A77  A$sdc$980 |    00005A79  A$sdc$982 |    00005A7C  A$sdc$983
     00005A7D  A$sdc$985 |    00005A80  A$sdc$986 |    00005A81  A$sdc$987
     00005A82  A$sdc$988 |    00005A83  A$sdc$989 |    00005A86  A$sdc$990
     00005A87  A$sdc$991 |    00005A88  A$sdc$992 |    00005A8B  A$sdc$993
     00005A8E  A$sdc$994 |    00005A8F  A$sdc$995 |    00005A90  A$sdc$999
     00005A90  C$sdc.c$2 |    00005A93  A$sdc$100 |    00005A94  A$sdc$100
     00005A97  A$sdc$100 |    00005A98  A$sdc$100 |    00005A98  C$sdc.c$2
     00005A9B  A$sdc$100 |    00005A9D  A$sdc$100 |    00005AA0  A$sdc$100
     00005AA1  A$sdc$101 |    00005AA2  A$sdc$101 |    00005AA4  A$sdc$101
     00005AA5  A$sdc$101 |    00005AA6  A$sdc$101 |    00005AA9  A$sdc$101
     00005AAA  A$sdc$101 |    00005AAB  A$sdc$101 |    00005AAC  A$sdc$102
     00005AAE  A$sdc$102 |    00005AB0  A$sdc$102 |    00005AB0  C$sdc.c$2
     00005AB0  XG$sdcSet |    00005AB1  Fsdc$__st |    00005AC9  Fsdc$__st
     00005AEC  A$sdc$104 |    00005AEC  C$sdc.c$2 |    00005AEC  G$sdcWait
     00005AEC  _sdcWaitE |    00005AEE  A$sdc$104 |    00005AF2  A$sdc$104
     00005AF4  A$sdc$104 |    00005AF5  A$sdc$105 |    00005AF6  A$sdc$105
     00005AF6  C$sdc.c$2 |    00005AF8  A$sdc$105 |    00005AF9  A$sdc$105
     00005AFA  A$sdc$105 |    00005AFD  A$sdc$105 |    00005AFE  A$sdc$106
     00005B01  A$sdc$106 |    00005B04  A$sdc$106 |    00005B08  A$sdc$106
     00005B0C  A$sdc$106 |    00005B10  A$sdc$106 |    00005B11  A$sdc$106
     00005B14  A$sdc$106 |    00005B15  A$sdc$106 |    00005B16  A$sdc$106
     00005B19  A$sdc$107 |    00005B1A  A$sdc$107 |    00005B1B  A$sdc$107
     00005B1E  A$sdc$107 |    00005B1F  A$sdc$107 |    00005B20  A$sdc$107
     00005B23  A$sdc$107 |    00005B24  A$sdc$107 |    00005B25  A$sdc$107
     00005B26  A$sdc$107 |    00005B28  A$sdc$108 |    00005B2A  A$sdc$108
     00005B2C  A$sdc$108 |    00005B2C  C$sdc.c$2 |    00005B2C  XG$sdcWai
     00005B2D  A$sdc$110 |    00005B2D  C$sdc.c$2 |    00005B2D  C$sdc.c$2
     00005B2D  G$sdcClea |    00005B2D  _sdcClear |    00005B2F  A$sdc$110
     00005B30  A$sdc$110 |    00005B31  A$sdc$110 |    00005B34  A$sdc$110
     00005B35  A$sdc$110 |    00005B36  A$sdc$110 |    00005B38  A$sdc$111
     00005B3A  A$sdc$111 |    00005B3A  C$sdc.c$2 |    00005B3D  A$sdc$111
     00005B3E  A$sdc$111 |    00005B41  A$sdc$111 |    00005B42  A$sdc$111
     00005B44  A$sdc$111 |    00005B45  A$sdc$112 |    00005B46  A$sdc$112
     00005B49  A$sdc$112 |    00005B4A  A$sdc$112 |    00005B4B  A$sdc$112
     00005B4C  A$sdc$112 |    00005B4E  A$sdc$113 |    00005B4E  C$sdc.c$2
     00005B50  A$sdc$113 |    00005B51  A$sdc$113 |    00005B52  A$sdc$113
     00005B55  A$sdc$113 |    00005B56  A$sdc$113 |    00005B57  A$sdc$113
     00005B59  A$sdc$113 |    00005B5B  A$sdc$114 |    00005B5B  C$sdc.c$2
     00005B5E  A$sdc$114 |    00005B5F  A$sdc$114 |    00005B62  A$sdc$114
ASxxxx Linker V03.00 + NoICE + sdld,  page 81.
Hexadecimal  [32-Bits]

Area                       Addr        Size        Decimal Bytes (Attributes)
--------------------       ----        ----        ------- ----- ------------
_CODE                  00000000    000084DB =       34011. bytes (REL,CON)

        Value  Global            Value  Global            Value  Global    
        -----  ------            -----  ------            -----  ------    
     00005B63  A$sdc$114 |    00005B65  A$sdc$114 |    00005B66  A$sdc$114
     00005B67  A$sdc$114 |    00005B6A  A$sdc$114 |    00005B6B  A$sdc$115
     00005B6C  A$sdc$115 |    00005B6D  A$sdc$115 |    00005B6F  A$sdc$115
     00005B6F  C$sdc.c$2 |    00005B72  A$sdc$115 |    00005B74  A$sdc$116
     00005B74  C$sdc.c$2 |    00005B74  XG$sdcCle |    00005B75  A$sdc$117
     00005B75  C$sdc.c$2 |    00005B75  G$sdcQueu |    00005B75  _sdcQueue
     00005B77  A$sdc$117 |    00005B7B  A$sdc$117 |    00005B7D  A$sdc$118
     00005B81  A$sdc$118 |    00005B84  A$sdc$118 |    00005B87  A$sdc$118
     00005B88  A$sdc$118 |    00005B89  A$sdc$118 |    00005B8B  A$sdc$118
     00005B8C  A$sdc$118 |    00005B8E  A$sdc$119 |    00005B8F  A$sdc$119
     00005B90  A$sdc$119 |    00005B91  A$sdc$119 |    00005B92  A$sdc$119
     00005B93  A$sdc$119 |    00005B94  A$sdc$119 |    00005B95  A$sdc$119
     00005B96  A$sdc$119 |    00005B97  A$sdc$119 |    00005B98  A$sdc$120
     00005B99  A$sdc$120 |    00005B9A  A$sdc$120 |    00005B9A  C$sdc.c$2
     00005B9B  A$sdc$120 |    00005B9C  A$sdc$120 |    00005B9D  A$sdc$120
     00005BA0  A$sdc$120 |    00005BA1  A$sdc$121 |    00005BA4  A$sdc$121
     00005BA6  A$sdc$121 |    00005BA7  A$sdc$121 |    00005BA7  C$sdc.c$2
     00005BAA  A$sdc$121 |    00005BAB  A$sdc$121 |    00005BAC  A$sdc$121
     00005BAD  A$sdc$122 |    00005BB0  A$sdc$122 |    00005BB1  A$sdc$122
     00005BB4  A$sdc$122 |    00005BB6  A$sdc$122 |    00005BB7  A$sdc$122
     00005BB7  C$sdc.c$2 |    00005BBA  A$sdc$122 |    00005BBB  A$sdc$123
     00005BBE  A$sdc$123 |    00005BC1  A$sdc$123 |    00005BC2  A$sdc$123
     00005BC3  A$sdc$123 |    00005BC4  A$sdc$123 |    00005BC4  C$sdc.c$2
     00005BC7  A$sdc$123 |    00005BC8  A$sdc$124 |    00005BC9  A$sdc$124
     00005BCA  A$sdc$124 |    00005BCD  A$sdc$124 |    00005BCE  A$sdc$124
     00005BD1  A$sdc$124 |    00005BD3  A$sdc$124 |    00005BD4  A$sdc$125
     00005BD4  C$sdc.c$2 |    00005BD7  A$sdc$125 |    00005BD8  A$sdc$125
     00005BD9  A$sdc$125 |    00005BDA  A$sdc$125 |    00005BDD  A$sdc$125
     00005BDE  A$sdc$125 |    00005BE1  A$sdc$125 |    00005BE3  A$sdc$125
     00005BE4  A$sdc$126 |    00005BE4  C$sdc.c$2 |    00005BE7  A$sdc$126
     00005BE8  A$sdc$126 |    00005BE9  A$sdc$126 |    00005BEA  A$sdc$126
     00005BED  A$sdc$126 |    00005BEE  A$sdc$126 |    00005BF1  A$sdc$126
     00005BF3  A$sdc$127 |    00005BF4  A$sdc$127 |    00005BF4  C$sdc.c$2
     00005BF7  A$sdc$127 |    00005BF8  A$sdc$127 |    00005BFB  A$sdc$127
     00005BFC  A$sdc$128 |    00005BFC  C$sdc.c$2 |    00005BFF  A$sdc$128
     00005BFF  C$sdc.c$2 |    00005C02  A$sdc$128 |    00005C03  A$sdc$128
     00005C04  A$sdc$128 |    00005C05  A$sdc$128 |    00005C07  A$sdc$129
     00005C08  A$sdc$129 |    00005C0A  A$sdc$129 |    00005C0A  C$sdc.c$2
     00005C0A  XG$sdcQue |    00005C0B  A$sdc$130 |    00005C0B  C$sdc.c$2
     00005C0B  G$sdcQueu |    00005C0B  _sdcQueue |    00005C0D  A$sdc$131
     00005C11  A$sdc$131 |    00005C13  A$sdc$131 |    00005C14  A$sdc$131
     00005C14  C$sdc.c$2 |    00005C17  A$sdc$131 |    00005C1A  A$sdc$131
     00005C1B  A$sdc$131 |    00005C1C  A$sdc$132 |    00005C1F  A$sdc$132
     00005C20  A$sdc$132 |    00005C21  A$sdc$132 |    00005C22  A$sdc$132
     00005C24  A$sdc$132 |    00005C27  A$sdc$132 |    00005C2B  A$sdc$132
     00005C2C  A$sdc$132 |    00005C2D  A$sdc$132 |    00005C30  A$sdc$133
     00005C31  A$sdc$133 |    00005C32  A$sdc$133 |    00005C33  A$sdc$133
     00005C35  A$sdc$133 |    00005C36  A$sdc$133 |    00005C38  A$sdc$133
     00005C3B  A$sdc$133 |    00005C3C  A$sdc$133 |    00005C3E  A$sdc$133
     00005C41  A$sdc$134 |    00005C42  A$sdc$134 |    00005C44  A$sdc$134
     00005C45  A$sdc$134 |    00005C46  A$sdc$134 |    00005C48  A$sdc$134
ASxxxx Linker V03.00 + NoICE + sdld,  page 82.
Hexadecimal  [32-Bits]

Area                       Addr        Size        Decimal Bytes (Attributes)
--------------------       ----        ----        ------- ----- ------------
_CODE                  00000000    000084DB =       34011. bytes (REL,CON)

        Value  Global            Value  Global            Value  Global    
        -----  ------            -----  ------            -----  ------    
     00005C49  A$sdc$134 |    00005C4B  A$sdc$134 |    00005C4D  A$sdc$135
     00005C4E  A$sdc$135 |    00005C50  A$sdc$135 |    00005C52  A$sdc$136
     00005C52  C$sdc.c$2 |    00005C52  XG$sdcQue |    00005C53  A$sdc$137
     00005C53  C$sdc.c$2 |    00005C53  C$sdc.c$2 |    00005C53  G$sdcQueu
     00005C53  _sdcQueue |    00005C54  A$sdc$137 |    00005C55  A$sdc$137
     00005C56  A$sdc$137 |    00005C57  A$sdc$137 |    00005C58  A$sdc$137
     00005C59  A$sdc$138 |    00005C5C  A$sdc$138 |    00005C5D  A$sdc$138
     00005C5E  A$sdc$138 |    00005C5F  A$sdc$138 |    00005C60  A$sdc$138
     00005C63  A$sdc$138 |    00005C64  A$sdc$138 |    00005C65  A$sdc$138
     00005C66  A$sdc$138 |    00005C67  A$sdc$139 |    00005C69  A$sdc$139
     00005C6C  A$sdc$139 |    00005C6D  A$sdc$139 |    00005C6E  A$sdc$140
     00005C6E  C$sdc.c$2 |    00005C6E  XG$sdcQue |    00005C6F  A$sdc$141
     00005C6F  C$sdc.c$2 |    00005C6F  C$sdc.c$2 |    00005C6F  G$sdcClea
     00005C6F  _sdcClear |    00005C73  A$sdc$141 |    00005C74  A$sdc$141
     00005C75  A$sdc$142 |    00005C78  A$sdc$142 |    00005C79  A$sdc$142
     00005C7A  A$sdc$142 |    00005C7C  A$sdc$142 |    00005C7D  A$sdc$142
     00005C7F  A$sdc$142 |    00005C80  A$sdc$143 |    00005C80  C$sdc.c$2
     00005C83  A$sdc$143 |    00005C84  A$sdc$143 |    00005C85  A$sdc$143
     00005C88  A$sdc$143 |    00005C89  A$sdc$143 |    00005C8B  A$sdc$143
     00005C8C  A$sdc$143 |    00005C8D  A$sdc$144 |    00005C8D  C$sdc.c$2
     00005C90  A$sdc$144 |    00005C93  A$sdc$144 |    00005C94  A$sdc$144
     00005C96  A$sdc$145 |    00005C96  C$sdc.c$2 |    00005C96  XG$sdcCle
     00005C97  A$sdc$146 |    00005C97  C$sdc.c$2 |    00005C97  C$sdc.c$2
     00005C97  G$sdcSend |    00005C97  _sdcSendC |    00005C9A  A$sdc$146
     00005C9A  C$sdc.c$2 |    00005C9E  A$sdc$147 |    00005CA0  A$sdc$147
     00005CA3  A$sdc$147 |    00005CA6  A$sdc$147 |    00005CA7  A$sdc$147
     00005CAA  A$sdc$147 |    00005CAD  A$sdc$147 |    00005CAE  A$sdc$147
     00005CB0  A$sdc$147 |    00005CB1  A$sdc$147 |    00005CB2  A$sdc$148
     00005CB5  A$sdc$148 |    00005CB6  A$sdc$148 |    00005CB7  A$sdc$148
     00005CB8  A$sdc$148 |    00005CB8  C$sdc.c$2 |    00005CBC  A$sdc$148
     00005CBE  A$sdc$148 |    00005CC1  A$sdc$149 |    00005CC4  A$sdc$149
     00005CC5  A$sdc$149 |    00005CC8  A$sdc$149 |    00005CCB  A$sdc$149
     00005CCC  A$sdc$149 |    00005CCD  A$sdc$149 |    00005CCE  A$sdc$149
     00005CCF  A$sdc$149 |    00005CD2  A$sdc$149 |    00005CD3  A$sdc$150
     00005CD4  A$sdc$150 |    00005CD5  A$sdc$150 |    00005CD5  C$sdc.c$2
     00005CD5  XG$sdcSen |    00005CD6  A$sdc$152 |    00005CD6  C$sdc.c$2
     00005CD6  C$sdc.c$2 |    00005CD6  G$sdcIsBu |    00005CD6  _sdcIsBus
     00005CD9  A$sdc$152 |    00005CDC  A$sdc$152 |    00005CDD  A$sdc$152
     00005CDE  A$sdc$152 |    00005CDF  A$sdc$152 |    00005CE1  A$sdc$152
     00005CE4  A$sdc$153 |    00005CE5  A$sdc$153 |    00005CE6  A$sdc$154
     00005CE6  C$sdc.c$2 |    00005CE6  XG$sdcIsB |    00005CE7  A$sdc$155
     00005CE7  C$sdc.c$2 |    00005CE7  C$sdc.c$2 |    00005CE7  G$sdcIsRe
     00005CE7  _sdcIsRea |    00005CEA  A$sdc$155 |    00005CED  A$sdc$155
     00005CEE  A$sdc$155 |    00005CEF  A$sdc$155 |    00005CF1  A$sdc$155
     00005CF3  A$sdc$156 |    00005CF6  A$sdc$156 |    00005CF7  A$sdc$156
     00005CF8  A$sdc$157 |    00005CF8  C$sdc.c$2 |    00005CF8  XG$sdcIsR
     00005CF9  A$sdc$158 |    00005CF9  C$sdc.c$2 |    00005CF9  C$sdc.c$2
     00005CF9  G$sdcProc |    00005CF9  _sdcProce |    00005CFC  A$sdc$158
     00005CFE  A$sdc$159 |    00005CFE  C$sdc.c$2 |    00005CFE  XG$sdcPro
     00005CFF  A$sdc$160 |    00005CFF  C$sdc.c$2 |    00005CFF  G$sdcProc
     00005CFF  _sdcProce |    00005D01  A$sdc$160 |    00005D05  A$sdc$160
ASxxxx Linker V03.00 + NoICE + sdld,  page 83.
Hexadecimal  [32-Bits]

Area                       Addr        Size        Decimal Bytes (Attributes)
--------------------       ----        ----        ------- ----- ------------
_CODE                  00000000    000084DB =       34011. bytes (REL,CON)

        Value  Global            Value  Global            Value  Global    
        -----  ------            -----  ------            -----  ------    
     00005D07  A$sdc$160 |    00005D0A  A$sdc$160 |    00005D0B  A$sdc$161
     00005D0C  A$sdc$161 |    00005D10  A$sdc$161 |    00005D13  A$sdc$161
     00005D16  A$sdc$161 |    00005D19  A$sdc$161 |    00005D1C  A$sdc$161
     00005D1E  A$sdc$162 |    00005D1F  A$sdc$162 |    00005D22  A$sdc$162
     00005D24  A$sdc$162 |    00005D25  A$sdc$162 |    00005D26  A$sdc$162
     00005D29  A$sdc$162 |    00005D2B  A$sdc$162 |    00005D2C  A$sdc$162
     00005D2E  A$sdc$162 |    00005D2F  A$sdc$163 |    00005D30  A$sdc$163
     00005D31  A$sdc$163 |    00005D32  A$sdc$163 |    00005D33  A$sdc$163
     00005D34  A$sdc$163 |    00005D35  A$sdc$163 |    00005D36  A$sdc$163
     00005D37  A$sdc$163 |    00005D38  A$sdc$163 |    00005D3B  A$sdc$164
     00005D3E  A$sdc$164 |    00005D41  A$sdc$164 |    00005D43  A$sdc$164
     00005D46  A$sdc$164 |    00005D49  A$sdc$164 |    00005D4B  A$sdc$164
     00005D4E  A$sdc$165 |    00005D51  A$sdc$165 |    00005D54  A$sdc$165
     00005D55  A$sdc$165 |    00005D55  C$sdc.c$3 |    00005D58  A$sdc$165
     00005D5A  A$sdc$165 |    00005D5D  A$sdc$165 |    00005D60  A$sdc$166
     00005D62  A$sdc$166 |    00005D65  A$sdc$166 |    00005D66  A$sdc$166
     00005D67  A$sdc$166 |    00005D69  A$sdc$166 |    00005D6A  A$sdc$166
     00005D6C  A$sdc$167 |    00005D6E  A$sdc$167 |    00005D6E  C$sdc.c$3
     00005D71  A$sdc$167 |    00005D74  A$sdc$167 |    00005D77  A$sdc$167
     00005D78  A$sdc$167 |    00005D7B  A$sdc$168 |    00005D7C  A$sdc$168
     00005D7F  A$sdc$168 |    00005D81  A$sdc$168 |    00005D84  A$sdc$168
     00005D84  C$sdc.c$3 |    00005D87  A$sdc$168 |    00005D8A  A$sdc$169
     00005D8C  A$sdc$169 |    00005D8C  C$sdc.c$3 |    00005D8F  A$sdc$169
     00005D92  A$sdc$169 |    00005D95  A$sdc$169 |    00005D96  A$sdc$169
     00005D97  A$sdc$169 |    00005D9A  A$sdc$170 |    00005D9C  A$sdc$170
     00005D9F  A$sdc$170 |    00005DA2  A$sdc$170 |    00005DA3  A$sdc$170
     00005DA4  A$sdc$170 |    00005DA5  A$sdc$170 |    00005DA6  A$sdc$170
     00005DA7  A$sdc$170 |    00005DA8  A$sdc$170 |    00005DA9  A$sdc$171
     00005DAC  A$sdc$171 |    00005DAF  A$sdc$171 |    00005DB0  A$sdc$171
     00005DB3  A$sdc$171 |    00005DB6  A$sdc$171 |    00005DB7  A$sdc$171
     00005DB8  A$sdc$171 |    00005DB9  A$sdc$171 |    00005DBC  A$sdc$171
     00005DBF  A$sdc$172 |    00005DC0  A$sdc$172 |    00005DC1  A$sdc$172
     00005DC1  C$sdc.c$3 |    00005DC4  A$sdc$173 |    00005DC4  C$sdc.c$3
     00005DC5  A$sdc$173 |    00005DC8  A$sdc$173 |    00005DC8  C$sdc.c$3
     00005DCA  A$sdc$173 |    00005DCB  A$sdc$173 |    00005DCC  A$sdc$173
     00005DCF  A$sdc$173 |    00005DD0  A$sdc$174 |    00005DD1  A$sdc$174
     00005DD3  A$sdc$174 |    00005DD6  A$sdc$174 |    00005DDA  A$sdc$174
     00005DDE  A$sdc$174 |    00005DDE  C$sdc.c$3 |    00005DE2  A$sdc$174
     00005DE4  A$sdc$175 |    00005DE7  A$sdc$175 |    00005DEA  A$sdc$175
     00005DED  A$sdc$175 |    00005DF0  A$sdc$175 |    00005DF0  C$sdc.c$3
     00005DF4  A$sdc$175 |    00005DF7  A$sdc$175 |    00005DF8  A$sdc$176
     00005DF9  A$sdc$176 |    00005DFC  A$sdc$176 |    00005DFF  A$sdc$176
     00005E02  A$sdc$176 |    00005E03  A$sdc$176 |    00005E04  A$sdc$176
     00005E07  A$sdc$176 |    00005E09  A$sdc$176 |    00005E0A  A$sdc$176
     00005E0D  A$sdc$177 |    00005E0E  A$sdc$177 |    00005E11  A$sdc$177
     00005E13  A$sdc$177 |    00005E13  C$sdc.c$3 |    00005E17  A$sdc$177
     00005E1A  A$sdc$177 |    00005E1B  A$sdc$177 |    00005E1C  A$sdc$178
     00005E1F  A$sdc$178 |    00005E22  A$sdc$178 |    00005E25  A$sdc$178
     00005E26  A$sdc$178 |    00005E27  A$sdc$178 |    00005E2A  A$sdc$178
     00005E2C  A$sdc$178 |    00005E2D  A$sdc$178 |    00005E30  A$sdc$178
     00005E31  A$sdc$179 |    00005E34  A$sdc$179 |    00005E36  A$sdc$179
ASxxxx Linker V03.00 + NoICE + sdld,  page 84.
Hexadecimal  [32-Bits]

Area                       Addr        Size        Decimal Bytes (Attributes)
--------------------       ----        ----        ------- ----- ------------
_CODE                  00000000    000084DB =       34011. bytes (REL,CON)

        Value  Global            Value  Global            Value  Global    
        -----  ------            -----  ------            -----  ------    
     00005E36  C$sdc.c$3 |    00005E39  A$sdc$179 |    00005E3C  A$sdc$179
     00005E3D  A$sdc$179 |    00005E3E  A$sdc$179 |    00005E40  A$sdc$180
     00005E41  A$sdc$180 |    00005E42  A$sdc$180 |    00005E45  A$sdc$180
     00005E46  A$sdc$180 |    00005E47  A$sdc$180 |    00005E48  A$sdc$180
     00005E49  A$sdc$180 |    00005E4A  A$sdc$180 |    00005E4B  A$sdc$180
     00005E4C  A$sdc$181 |    00005E4D  A$sdc$181 |    00005E4E  A$sdc$181
     00005E4F  A$sdc$181 |    00005E50  A$sdc$181 |    00005E50  C$sdc.c$3
     00005E54  A$sdc$181 |    00005E57  A$sdc$181 |    00005E59  A$sdc$182
     00005E5C  A$sdc$182 |    00005E5E  A$sdc$182 |    00005E61  A$sdc$182
     00005E64  A$sdc$182 |    00005E66  A$sdc$182 |    00005E69  A$sdc$182
     00005E6C  A$sdc$182 |    00005E6F  A$sdc$182 |    00005E70  A$sdc$182
     00005E71  A$sdc$183 |    00005E72  A$sdc$183 |    00005E73  A$sdc$183
     00005E74  A$sdc$183 |    00005E75  A$sdc$183 |    00005E76  A$sdc$183
     00005E79  A$sdc$183 |    00005E7C  A$sdc$183 |    00005E7F  A$sdc$183
     00005E82  A$sdc$184 |    00005E82  C$sdc.c$3 |    00005E85  A$sdc$184
     00005E87  A$sdc$184 |    00005E8A  A$sdc$184 |    00005E8D  A$sdc$184
     00005E8F  A$sdc$184 |    00005E92  A$sdc$185 |    00005E92  C$sdc.c$3
     00005E96  A$sdc$185 |    00005E99  A$sdc$185 |    00005E99  C$sdc.c$3
     00005E9C  A$sdc$185 |    00005E9D  A$sdc$185 |    00005E9E  A$sdc$185
     00005EA1  A$sdc$186 |    00005EA4  A$sdc$186 |    00005EA5  A$sdc$186
     00005EA8  A$sdc$186 |    00005EAB  A$sdc$186 |    00005EAC  A$sdc$186
     00005EAF  A$sdc$186 |    00005EB0  A$sdc$186 |    00005EB1  A$sdc$186
     00005EB4  A$sdc$186 |    00005EB7  A$sdc$187 |    00005EB8  A$sdc$187
     00005EB9  A$sdc$187 |    00005EB9  C$sdc.c$3 |    00005EBC  A$sdc$187
     00005EBD  A$sdc$187 |    00005EC0  A$sdc$187 |    00005EC1  A$sdc$188
     00005EC4  A$sdc$188 |    00005EC7  A$sdc$188 |    00005ECA  A$sdc$188
     00005ECA  C$sdc.c$3 |    00005ECD  A$sdc$188 |    00005ECF  A$sdc$189
     00005ED0  A$sdc$189 |    00005ED3  A$sdc$189 |    00005ED5  A$sdc$189
     00005ED6  A$sdc$189 |    00005ED7  A$sdc$189 |    00005ED9  A$sdc$189
     00005EDB  A$sdc$190 |    00005EDB  C$sdc.c$3 |    00005EDC  A$sdc$190
     00005EDD  A$sdc$190 |    00005EDD  C$sdc.c$3 |    00005EE0  A$sdc$190
     00005EE3  A$sdc$190 |    00005EE6  A$sdc$190 |    00005EE7  A$sdc$190
     00005EE8  A$sdc$191 |    00005EEB  A$sdc$191 |    00005EED  A$sdc$191
     00005EF0  A$sdc$191 |    00005EF3  A$sdc$191 |    00005EF4  A$sdc$191
     00005EF5  A$sdc$191 |    00005EF6  A$sdc$191 |    00005EF7  A$sdc$191
     00005EF8  A$sdc$191 |    00005EF9  A$sdc$192 |    00005EFA  A$sdc$192
     00005EFD  A$sdc$192 |    00005F00  A$sdc$192 |    00005F01  A$sdc$192
     00005F04  A$sdc$192 |    00005F07  A$sdc$192 |    00005F08  A$sdc$192
     00005F09  A$sdc$192 |    00005F0A  A$sdc$192 |    00005F0D  A$sdc$193
     00005F10  A$sdc$193 |    00005F11  A$sdc$193 |    00005F12  A$sdc$193
     00005F12  C$sdc.c$3 |    00005F15  A$sdc$194 |    00005F18  A$sdc$194
     00005F1B  A$sdc$194 |    00005F1E  A$sdc$194 |    00005F1F  A$sdc$194
     00005F20  A$sdc$194 |    00005F20  C$sdc.c$2 |    00005F23  A$sdc$195
     00005F25  A$sdc$195 |    00005F27  A$sdc$195 |    00005F2A  A$sdc$195
     00005F2C  A$sdc$195 |    00005F2E  A$sdc$195 |    00005F2E  C$sdc.c$2
     00005F31  A$sdc$195 |    00005F33  A$sdc$196 |    00005F36  A$sdc$196
     00005F39  A$sdc$196 |    00005F3B  A$sdc$196 |    00005F3E  A$sdc$196
     00005F41  A$sdc$196 |    00005F43  A$sdc$196 |    00005F46  A$sdc$196
     00005F48  A$sdc$196 |    00005F4B  A$sdc$197 |    00005F4E  A$sdc$197
     00005F51  A$sdc$197 |    00005F53  A$sdc$197 |    00005F56  A$sdc$197
     00005F59  A$sdc$197 |    00005F5B  A$sdc$197 |    00005F5B  C$sdc.c$2
ASxxxx Linker V03.00 + NoICE + sdld,  page 85.
Hexadecimal  [32-Bits]

Area                       Addr        Size        Decimal Bytes (Attributes)
--------------------       ----        ----        ------- ----- ------------
_CODE                  00000000    000084DB =       34011. bytes (REL,CON)

        Value  Global            Value  Global            Value  Global    
        -----  ------            -----  ------            -----  ------    
     00005F5E  A$sdc$198 |    00005F61  A$sdc$198 |    00005F64  A$sdc$198
     00005F67  A$sdc$198 |    00005F69  A$sdc$198 |    00005F6C  A$sdc$198
     00005F6F  A$sdc$198 |    00005F71  A$sdc$198 |    00005F74  A$sdc$198
     00005F77  A$sdc$198 |    00005F7A  A$sdc$199 |    00005F7C  A$sdc$199
     00005F7C  C$sdc.c$3 |    00005F7C  C$sdc.c$3 |    00005F7F  A$sdc$200
     00005F7F  C$sdc.c$3 |    00005F81  A$sdc$200 |    00005F82  A$sdc$200
     00005F83  A$sdc$200 |    00005F86  A$sdc$200 |    00005F87  A$sdc$200
     00005F8A  A$sdc$200 |    00005F8B  A$sdc$200 |    00005F8E  A$sdc$201
     00005F8F  A$sdc$201 |    00005F92  A$sdc$201 |    00005F93  A$sdc$201
     00005F96  A$sdc$201 |    00005F97  A$sdc$201 |    00005F9A  A$sdc$201
     00005F9B  A$sdc$201 |    00005F9E  A$sdc$201 |    00005F9F  A$sdc$201
     00005FA2  A$sdc$202 |    00005FA3  A$sdc$202 |    00005FA6  A$sdc$202
     00005FA7  A$sdc$202 |    00005FAA  A$sdc$202 |    00005FAB  A$sdc$202
     00005FAE  A$sdc$202 |    00005FAF  A$sdc$202 |    00005FB2  A$sdc$202
     00005FB5  A$sdc$202 |    00005FB6  A$sdc$203 |    00005FB7  A$sdc$203
     00005FB7  C$sdc.c$3 |    00005FBA  A$sdc$203 |    00005FBB  A$sdc$203
     00005FBD  A$sdc$203 |    00005FC0  A$sdc$203 |    00005FC2  A$sdc$204
     00005FC2  C$sdc.c$3 |    00005FC5  A$sdc$204 |    00005FC8  A$sdc$204
     00005FC9  A$sdc$204 |    00005FCB  A$sdc$205 |    00005FCB  C$sdc.c$3
     00005FCE  A$sdc$205 |    00005FD1  A$sdc$205 |    00005FD2  A$sdc$205
     00005FD3  A$sdc$205 |    00005FD4  A$sdc$205 |    00005FD7  A$sdc$205
     00005FDA  A$sdc$206 |    00005FDA  C$sdc.c$3 |    00005FDD  A$sdc$206
     00005FE0  A$sdc$206 |    00005FE1  A$sdc$206 |    00005FE2  A$sdc$206
     00005FE3  A$sdc$206 |    00005FE4  A$sdc$206 |    00005FE5  A$sdc$206
     00005FE6  A$sdc$206 |    00005FE7  A$sdc$207 |    00005FEA  A$sdc$207
     00005FEB  A$sdc$207 |    00005FEC  A$sdc$207 |    00005FED  A$sdc$207
     00005FF0  A$sdc$207 |    00005FF3  A$sdc$207 |    00005FF6  A$sdc$207
     00005FF9  A$sdc$207 |    00005FFA  A$sdc$207 |    00005FFB  A$sdc$208
     00005FFB  C$sdc.c$3 |    00005FFE  A$sdc$208 |    00005FFE  C$sdc.c$3
     00006001  A$sdc$208 |    00006004  A$sdc$209 |    00006005  A$sdc$209
     00006007  A$sdc$209 |    0000600A  A$sdc$209 |    0000600A  C$sdc.c$3
     0000600D  A$sdc$210 |    00006010  A$sdc$210 |    00006013  A$sdc$210
     00006014  A$sdc$210 |    00006015  A$sdc$210 |    00006018  A$sdc$210
     00006019  A$sdc$210 |    0000601A  A$sdc$210 |    0000601D  A$sdc$210
     0000601E  A$sdc$210 |    0000601F  A$sdc$211 |    00006022  A$sdc$211
     00006023  A$sdc$211 |    00006024  A$sdc$211 |    00006027  A$sdc$211
     0000602A  A$sdc$211 |    0000602D  A$sdc$211 |    00006030  A$sdc$211
     00006031  A$sdc$211 |    00006032  A$sdc$211 |    00006033  A$sdc$212
     00006034  A$sdc$212 |    00006035  A$sdc$212 |    00006036  A$sdc$212
     00006037  A$sdc$212 |    00006038  A$sdc$212 |    0000603B  A$sdc$212
     0000603C  A$sdc$212 |    0000603F  A$sdc$212 |    00006042  A$sdc$212
     00006043  A$sdc$213 |    00006046  A$sdc$213 |    00006049  A$sdc$213
     0000604A  A$sdc$213 |    0000604D  A$sdc$213 |    00006050  A$sdc$213
     00006051  A$sdc$213 |    00006054  A$sdc$213 |    00006057  A$sdc$213
     0000605A  A$sdc$213 |    0000605D  A$sdc$214 |    0000605E  A$sdc$214
     0000605F  A$sdc$214 |    00006060  A$sdc$214 |    00006061  A$sdc$214
     00006062  A$sdc$214 |    00006063  A$sdc$214 |    00006064  A$sdc$214
     00006065  A$sdc$214 |    00006068  A$sdc$214 |    00006069  A$sdc$215
     0000606B  A$sdc$215 |    0000606E  A$sdc$215 |    0000606F  A$sdc$215
     00006071  A$sdc$215 |    00006074  A$sdc$215 |    00006075  A$sdc$215
     00006077  A$sdc$215 |    0000607A  A$sdc$215 |    0000607B  A$sdc$215
ASxxxx Linker V03.00 + NoICE + sdld,  page 86.
Hexadecimal  [32-Bits]

Area                       Addr        Size        Decimal Bytes (Attributes)
--------------------       ----        ----        ------- ----- ------------
_CODE                  00000000    000084DB =       34011. bytes (REL,CON)

        Value  Global            Value  Global            Value  Global    
        -----  ------            -----  ------            -----  ------    
     0000607E  A$sdc$216 |    0000607E  C$sdc.c$3 |    00006081  A$sdc$216
     00006084  A$sdc$216 |    00006087  A$sdc$216 |    00006088  A$sdc$216
     00006089  A$sdc$216 |    0000608A  A$sdc$217 |    0000608C  A$sdc$217
     0000608C  C$sdc.c$3 |    0000608F  A$sdc$217 |    00006092  A$sdc$217
     00006095  A$sdc$217 |    00006096  A$sdc$217 |    00006097  A$sdc$217
     0000609A  A$sdc$218 |    0000609C  A$sdc$218 |    0000609F  A$sdc$218
     000060A2  A$sdc$218 |    000060A3  A$sdc$218 |    000060A4  A$sdc$218
     000060A5  A$sdc$218 |    000060A6  A$sdc$218 |    000060A7  A$sdc$218
     000060A8  A$sdc$218 |    000060A9  A$sdc$219 |    000060AC  A$sdc$219
     000060AF  A$sdc$219 |    000060B0  A$sdc$219 |    000060B3  A$sdc$219
     000060B6  A$sdc$219 |    000060B7  A$sdc$219 |    000060B8  A$sdc$219
     000060B9  A$sdc$219 |    000060BC  A$sdc$219 |    000060BF  A$sdc$220
     000060C0  A$sdc$220 |    000060C1  A$sdc$220 |    000060C1  C$sdc.c$3
     000060C4  A$sdc$221 |    000060C4  C$sdc.c$3 |    000060C7  A$sdc$221
     000060C8  A$sdc$221 |    000060C9  A$sdc$221 |    000060CC  A$sdc$221
     000060CF  A$sdc$221 |    000060D0  A$sdc$221 |    000060D3  A$sdc$221
     000060D6  A$sdc$221 |    000060D7  A$sdc$221 |    000060DA  A$sdc$222
     000060DB  A$sdc$222 |    000060DC  A$sdc$222 |    000060DF  A$sdc$222
     000060E2  A$sdc$222 |    000060E3  A$sdc$222 |    000060E4  A$sdc$222
     000060E4  C$sdc.c$3 |    000060E7  A$sdc$223 |    000060E8  A$sdc$223
     000060EB  A$sdc$223 |    000060EC  A$sdc$223 |    000060F0  A$sdc$224
     000060F0  C$sdc.c$3 |    000060F3  A$sdc$224 |    000060F4  A$sdc$224
     000060F5  A$sdc$224 |    000060F5  C$sdc.c$2 |    000060F7  A$sdc$224
     000060F9  A$sdc$224 |    000060FB  A$sdc$224 |    000060FD  A$sdc$225
     000060FD  C$sdc.c$2 |    00006100  A$sdc$225 |    00006101  A$sdc$225
     00006102  A$sdc$225 |    00006105  A$sdc$225 |    00006106  A$sdc$225
     00006108  A$sdc$225 |    00006109  A$sdc$226 |    0000610A  A$sdc$226
     0000610A  C$sdc.c$2 |    0000610D  A$sdc$226 |    00006110  A$sdc$226
     00006111  A$sdc$226 |    00006113  A$sdc$227 |    00006113  C$sdc.c$3
     00006113  C$sdc.c$3 |    00006116  A$sdc$227 |    00006119  A$sdc$227
     0000611A  A$sdc$227 |    0000611C  A$sdc$228 |    0000611C  C$sdc.c$3
     0000611F  A$sdc$228 |    00006122  A$sdc$228 |    00006123  A$sdc$228
     00006124  A$sdc$228 |    00006125  A$sdc$228 |    00006128  A$sdc$228
     0000612B  A$sdc$229 |    0000612B  C$sdc.c$3 |    0000612E  A$sdc$229
     00006131  A$sdc$229 |    00006132  A$sdc$229 |    00006133  A$sdc$229
     00006134  A$sdc$229 |    00006135  A$sdc$229 |    00006136  A$sdc$229
     00006137  A$sdc$230 |    00006138  A$sdc$230 |    0000613B  A$sdc$230
     0000613C  A$sdc$230 |    0000613D  A$sdc$230 |    0000613E  A$sdc$230
     00006141  A$sdc$230 |    00006144  A$sdc$230 |    00006147  A$sdc$230
     0000614A  A$sdc$230 |    0000614B  A$sdc$231 |    0000614C  A$sdc$231
     0000614C  C$sdc.c$3 |    0000614F  A$sdc$231 |    00006152  A$sdc$232
     00006154  A$sdc$232 |    00006155  A$sdc$232 |    00006158  A$sdc$232
     0000615A  A$sdc$232 |    0000615B  A$sdc$232 |    0000615B  C$sdc.c$3
     0000615C  A$sdc$232 |    0000615D  A$sdc$233 |    0000615F  A$sdc$233
     00006160  A$sdc$233 |    00006163  A$sdc$233 |    00006164  A$sdc$233
     00006167  A$sdc$233 |    00006168  A$sdc$234 |    00006168  C$sdc.c$3
     00006168  C$sdc.c$3 |    00006169  A$sdc$234 |    0000616D  A$sdc$234
     0000616E  A$sdc$234 |    00006170  A$sdc$235 |    00006170  C$sdc.c$3
     00006174  A$sdc$235 |    00006175  A$sdc$235 |    00006176  A$sdc$235
     00006179  A$sdc$235 |    0000617A  A$sdc$235 |    0000617B  A$sdc$235
     0000617D  A$sdc$235 |    0000617E  A$sdc$236 |    00006180  A$sdc$236
ASxxxx Linker V03.00 + NoICE + sdld,  page 87.
Hexadecimal  [32-Bits]

Area                       Addr        Size        Decimal Bytes (Attributes)
--------------------       ----        ----        ------- ----- ------------
_CODE                  00000000    000084DB =       34011. bytes (REL,CON)

        Value  Global            Value  Global            Value  Global    
        -----  ------            -----  ------            -----  ------    
     00006181  A$sdc$236 |    00006182  A$sdc$236 |    00006183  A$sdc$236
     00006184  A$sdc$236 |    00006185  A$sdc$236 |    00006186  A$sdc$236
     00006187  A$sdc$236 |    00006188  A$sdc$236 |    00006189  A$sdc$237
     0000618A  A$sdc$237 |    0000618B  A$sdc$237 |    0000618B  C$sdc.c$3
     0000618C  A$sdc$237 |    0000618D  A$sdc$237 |    00006190  A$sdc$237
     00006191  A$sdc$237 |    00006192  A$sdc$238 |    00006195  A$sdc$238
     00006196  A$sdc$238 |    00006197  A$sdc$238 |    0000619A  A$sdc$238
     0000619B  A$sdc$238 |    0000619C  A$sdc$238 |    0000619F  A$sdc$238
     000061A0  A$sdc$238 |    000061A1  A$sdc$238 |    000061A4  A$sdc$239
     000061A5  A$sdc$239 |    000061A6  A$sdc$239 |    000061A7  A$sdc$239
     000061A8  A$sdc$239 |    000061A9  A$sdc$239 |    000061AA  A$sdc$239
     000061AB  A$sdc$239 |    000061AC  A$sdc$239 |    000061AF  A$sdc$239
     000061B2  A$sdc$240 |    000061B3  A$sdc$240 |    000061B6  A$sdc$240
     000061B9  A$sdc$240 |    000061BA  A$sdc$240 |    000061BB  A$sdc$240
     000061BC  A$sdc$240 |    000061BF  A$sdc$240 |    000061C2  A$sdc$240
     000061C3  A$sdc$240 |    000061C4  A$sdc$241 |    000061C6  A$sdc$241
     000061C6  C$sdc.c$3 |    000061C9  A$sdc$241 |    000061CA  A$sdc$241
     000061CC  A$sdc$242 |    000061CC  C$sdc.c$3 |    000061CF  A$sdc$242
     000061D2  A$sdc$242 |    000061D3  A$sdc$242 |    000061D4  A$sdc$242
     000061D5  A$sdc$242 |    000061D8  A$sdc$242 |    000061DB  A$sdc$243
     000061DB  C$sdc.c$3 |    000061DE  A$sdc$243 |    000061E1  A$sdc$243
     000061E2  A$sdc$243 |    000061E3  A$sdc$243 |    000061E4  A$sdc$243
     000061E5  A$sdc$243 |    000061E6  A$sdc$243 |    000061E7  A$sdc$243
     000061E8  A$sdc$244 |    000061EB  A$sdc$244 |    000061EC  A$sdc$244
     000061ED  A$sdc$244 |    000061EE  A$sdc$244 |    000061F1  A$sdc$244
     000061F4  A$sdc$244 |    000061F7  A$sdc$244 |    000061FA  A$sdc$244
     000061FB  A$sdc$244 |    000061FC  A$sdc$245 |    000061FE  A$sdc$245
     00006200  A$sdc$246 |    00006200  C$sdc.c$3 |    00006200  XG$sdcPro
     00006201  Fsdc$__st |    00006217  Fsdc$__st |    00006236  A$sdc$248
     00006236  C$sdc.c$4 |    00006236  C$sdc.c$4 |    00006236  G$sdcDire
     00006236  _sdcDirec |    00006239  A$sdc$248 |    0000623B  A$sdc$249
     0000623B  C$sdc.c$4 |    0000623B  XG$sdcDir |    0000623C  A$sdc$250
     0000623C  C$sdc.c$4 |    0000623C  G$sdcSetD |    0000623C  _sdcSetDi
     0000623E  A$sdc$250 |    00006242  A$sdc$250 |    00006244  A$sdc$250
     00006244  C$sdc.c$2 |    00006248  A$sdc$250 |    00006249  A$sdc$250
     0000624A  A$sdc$250 |    0000624D  A$sdc$251 |    0000624E  A$sdc$251
     0000624F  A$sdc$251 |    00006251  A$sdc$251 |    00006253  A$sdc$251
     00006255  A$sdc$251 |    00006257  A$sdc$251 |    00006257  C$sdc.c$2
     0000625A  A$sdc$252 |    0000625B  A$sdc$252 |    0000625C  A$sdc$252
     0000625F  A$sdc$252 |    00006260  A$sdc$252 |    00006262  A$sdc$252
     00006263  A$sdc$252 |    00006264  A$sdc$253 |    00006264  C$sdc.c$2
     00006267  A$sdc$253 |    0000626A  A$sdc$253 |    0000626B  A$sdc$253
     0000626D  A$sdc$254 |    0000626D  C$sdc.c$4 |    0000626D  C$sdc.c$4
     00006270  A$sdc$254 |    00006270  C$sdc.c$4 |    00006273  A$sdc$254
     00006276  A$sdc$254 |    00006279  A$sdc$254 |    0000627A  A$sdc$254
     0000627B  A$sdc$255 |    0000627C  A$sdc$255 |    0000627D  A$sdc$255
     00006280  A$sdc$255 |    00006281  A$sdc$255 |    00006284  A$sdc$255
     00006284  C$sdc.c$4 |    00006285  A$sdc$255 |    00006287  A$sdc$256
     00006289  A$sdc$256 |    00006289  C$sdc.c$4 |    0000628A  A$sdc$256
     0000628B  A$sdc$256 |    0000628C  A$sdc$256 |    0000628D  A$sdc$256
     00006290  A$sdc$256 |    00006291  A$sdc$257 |    00006294  A$sdc$257
ASxxxx Linker V03.00 + NoICE + sdld,  page 88.
Hexadecimal  [32-Bits]

Area                       Addr        Size        Decimal Bytes (Attributes)
--------------------       ----        ----        ------- ----- ------------
_CODE                  00000000    000084DB =       34011. bytes (REL,CON)

        Value  Global            Value  Global            Value  Global    
        -----  ------            -----  ------            -----  ------    
     00006295  A$sdc$257 |    00006298  A$sdc$257 |    00006299  A$sdc$257
     0000629C  A$sdc$257 |    0000629D  A$sdc$257 |    000062A0  A$sdc$257
     000062A1  A$sdc$257 |    000062A4  A$sdc$257 |    000062A5  A$sdc$258
     000062A8  A$sdc$258 |    000062A9  A$sdc$258 |    000062AC  A$sdc$258
     000062AD  A$sdc$258 |    000062B0  A$sdc$258 |    000062B1  A$sdc$258
     000062B4  A$sdc$258 |    000062B5  A$sdc$258 |    000062B8  A$sdc$258
     000062B9  A$sdc$259 |    000062BC  A$sdc$259 |    000062BF  A$sdc$259
     000062C0  A$sdc$259 |    000062C1  A$sdc$259 |    000062C3  A$sdc$259
     000062C4  A$sdc$259 |    000062C5  A$sdc$259 |    000062C8  A$sdc$259
     000062C9  A$sdc$259 |    000062CC  A$sdc$260 |    000062CD  A$sdc$260
     000062D0  A$sdc$260 |    000062D1  A$sdc$260 |    000062D4  A$sdc$260
     000062D5  A$sdc$260 |    000062D8  A$sdc$260 |    000062D9  A$sdc$260
     000062DC  A$sdc$260 |    000062DD  A$sdc$260 |    000062E0  A$sdc$261
     000062E1  A$sdc$261 |    000062E4  A$sdc$261 |    000062E5  A$sdc$261
     000062E8  A$sdc$261 |    000062E9  A$sdc$261 |    000062EC  A$sdc$261
     000062ED  A$sdc$261 |    000062F0  A$sdc$261 |    000062F1  A$sdc$261
     000062F4  A$sdc$262 |    000062F7  A$sdc$262 |    000062F8  A$sdc$262
     000062F9  A$sdc$262 |    000062FA  A$sdc$262 |    000062FA  C$sdc.c$4
     000062FB  A$sdc$262 |    000062FD  A$sdc$263 |    000062FE  A$sdc$263
     000062FF  A$sdc$263 |    00006302  A$sdc$263 |    00006303  A$sdc$263
     00006306  A$sdc$263 |    00006307  A$sdc$263 |    0000630A  A$sdc$263
     0000630B  A$sdc$263 |    0000630E  A$sdc$263 |    0000630F  A$sdc$264
     00006312  A$sdc$264 |    00006313  A$sdc$264 |    00006316  A$sdc$264
     00006317  A$sdc$264 |    0000631A  A$sdc$264 |    0000631B  A$sdc$264
     0000631E  A$sdc$264 |    0000631F  A$sdc$264 |    00006322  A$sdc$264
     00006323  A$sdc$265 |    00006326  A$sdc$265 |    00006327  A$sdc$265
     0000632A  A$sdc$265 |    0000632B  A$sdc$265 |    0000632E  A$sdc$265
     00006331  A$sdc$265 |    00006332  A$sdc$265 |    00006333  A$sdc$265
     00006334  A$sdc$266 |    00006334  C$sdc.c$4 |    00006337  A$sdc$266
     00006338  A$sdc$266 |    0000633A  A$sdc$266 |    0000633B  A$sdc$266
     0000633E  A$sdc$266 |    0000633F  A$sdc$266 |    00006341  A$sdc$267
     00006341  C$sdc.c$4 |    00006344  A$sdc$267 |    00006345  A$sdc$267
     00006347  A$sdc$268 |    00006347  C$sdc.c$4 |    00006347  XG$sdcSet
     00006348  A$sdc$269 |    00006348  C$sdc.c$4 |    00006348  C$sdc.c$4
     00006348  G$sdcRead |    00006348  _sdcReadC |    0000634B  A$sdc$269
     0000634D  A$sdc$270 |    0000634D  C$sdc.c$4 |    0000634D  XG$sdcRea
     0000634E  A$sdc$271 |    0000634E  C$sdc.c$4 |    0000634E  G$sdcRead
     0000634E  _sdcReadB |    00006350  A$sdc$271 |    00006354  A$sdc$271
     00006356  A$sdc$272 |    00006356  C$sdc.c$4 |    00006358  A$sdc$272
     00006359  A$sdc$272 |    0000635A  A$sdc$272 |    0000635D  A$sdc$272
     00006360  A$sdc$272 |    00006361  A$sdc$272 |    00006364  A$sdc$272
     00006365  A$sdc$273 |    00006366  A$sdc$273 |    0000636A  A$sdc$273
     0000636B  A$sdc$273 |    0000636C  A$sdc$273 |    0000636F  A$sdc$273
     00006370  A$sdc$273 |    00006371  A$sdc$274 |    00006373  A$sdc$274
     00006375  A$sdc$274 |    00006377  A$sdc$274 |    00006379  A$sdc$274
     00006379  C$sdc.c$2 |    0000637C  A$sdc$274 |    0000637D  A$sdc$274
     0000637E  A$sdc$275 |    00006381  A$sdc$275 |    00006382  A$sdc$275
     00006384  A$sdc$275 |    00006385  A$sdc$275 |    00006386  A$sdc$275
     00006386  C$sdc.c$2 |    00006389  A$sdc$275 |    0000638C  A$sdc$276
     0000638D  A$sdc$276 |    0000638F  A$sdc$276 |    0000638F  C$sdc.c$4
     0000638F  C$sdc.c$4 |    00006392  A$sdc$277 |    00006392  C$sdc.c$4
ASxxxx Linker V03.00 + NoICE + sdld,  page 89.
Hexadecimal  [32-Bits]

Area                       Addr        Size        Decimal Bytes (Attributes)
--------------------       ----        ----        ------- ----- ------------
_CODE                  00000000    000084DB =       34011. bytes (REL,CON)

        Value  Global            Value  Global            Value  Global    
        -----  ------            -----  ------            -----  ------    
     00006394  A$sdc$277 |    00006395  A$sdc$277 |    00006396  A$sdc$277
     00006399  A$sdc$277 |    0000639A  A$sdc$277 |    0000639D  A$sdc$277
     0000639E  A$sdc$278 |    000063A1  A$sdc$278 |    000063A2  A$sdc$278
     000063A5  A$sdc$278 |    000063A6  A$sdc$278 |    000063A9  A$sdc$278
     000063AA  A$sdc$278 |    000063AD  A$sdc$278 |    000063AE  A$sdc$278
     000063B1  A$sdc$278 |    000063B2  A$sdc$279 |    000063B5  A$sdc$279
     000063B6  A$sdc$279 |    000063B9  A$sdc$279 |    000063BA  A$sdc$279
     000063BD  A$sdc$279 |    000063BE  A$sdc$279 |    000063C1  A$sdc$279
     000063C2  A$sdc$279 |    000063C5  A$sdc$279 |    000063C8  A$sdc$280
     000063C9  A$sdc$280 |    000063CA  A$sdc$280 |    000063CA  C$sdc.c$4
     000063CB  A$sdc$280 |    000063CC  A$sdc$280 |    000063CD  A$sdc$280
     000063D0  A$sdc$280 |    000063D1  A$sdc$281 |    000063D4  A$sdc$281
     000063D5  A$sdc$281 |    000063D8  A$sdc$281 |    000063D9  A$sdc$281
     000063DC  A$sdc$281 |    000063DD  A$sdc$281 |    000063E0  A$sdc$281
     000063E1  A$sdc$281 |    000063E4  A$sdc$281 |    000063E5  A$sdc$282
     000063E8  A$sdc$282 |    000063E9  A$sdc$282 |    000063EC  A$sdc$282
     000063EF  A$sdc$282 |    000063F0  A$sdc$282 |    000063F3  A$sdc$282
     000063F6  A$sdc$282 |    000063F7  A$sdc$282 |    000063FA  A$sdc$282
     000063FB  A$sdc$283 |    000063FE  A$sdc$283 |    000063FF  A$sdc$283
     00006402  A$sdc$283 |    00006405  A$sdc$283 |    00006406  A$sdc$283
     00006407  A$sdc$284 |    00006407  C$sdc.c$4 |    00006409  A$sdc$284
     0000640A  A$sdc$284 |    0000640B  A$sdc$284 |    0000640E  A$sdc$284
     0000640F  A$sdc$284 |    00006410  A$sdc$284 |    00006411  A$sdc$284
     00006412  A$sdc$284 |    00006413  A$sdc$284 |    00006415  A$sdc$285
     00006418  A$sdc$285 |    0000641A  A$sdc$285 |    0000641A  C$sdc.c$2
     0000641E  A$sdc$286 |    0000641E  C$sdc.c$4 |    0000641F  A$sdc$286
     00006420  A$sdc$286 |    00006423  A$sdc$286 |    00006424  A$sdc$286
     00006425  A$sdc$286 |    00006427  A$sdc$286 |    00006429  A$sdc$286
     0000642A  A$sdc$286 |    0000642B  A$sdc$286 |    0000642E  A$sdc$287
     0000642F  A$sdc$287 |    00006430  A$sdc$287 |    00006431  A$sdc$287
     00006432  A$sdc$287 |    00006433  A$sdc$287 |    00006434  A$sdc$287
     00006435  A$sdc$287 |    00006436  A$sdc$287 |    00006438  A$sdc$287
     00006439  A$sdc$288 |    0000643A  A$sdc$288 |    0000643B  A$sdc$288
     0000643C  A$sdc$288 |    0000643E  A$sdc$288 |    0000643E  C$sdc.c$4
     00006441  A$sdc$288 |    00006444  A$sdc$288 |    00006445  A$sdc$289
     00006448  A$sdc$289 |    00006449  A$sdc$289 |    00006449  C$sdc.c$4
     0000644B  A$sdc$289 |    0000644D  A$sdc$290 |    0000644D  C$sdc.c$4
     0000644F  A$sdc$290 |    00006451  A$sdc$291 |    00006451  C$sdc.c$4
     00006451  XG$sdcRea |    00006452  A$sdc$292 |    00006452  C$sdc.c$4
     00006452  C$sdc.c$4 |    00006452  G$sdcTfrI |    00006452  _sdcTfrIn
     00006455  A$sdc$292 |    00006456  A$sdc$292 |    00006459  A$sdc$293
     00006459  C$sdc.c$4 |    0000645C  A$sdc$293 |    0000645D  A$sdc$293
     00006460  A$sdc$293 |    00006460  C$sdc.c$4 |    00006463  A$sdc$293
     00006464  A$sdc$293 |    00006467  A$sdc$294 |    00006467  C$sdc.c$4
     0000646A  A$sdc$294 |    0000646B  A$sdc$294 |    0000646E  A$sdc$294
     0000646F  A$sdc$294 |    00006470  A$sdc$294 |    00006471  A$sdc$294
     00006472  A$sdc$294 |    00006473  A$sdc$295 |    00006475  A$sdc$295
     00006476  A$sdc$295 |    00006477  A$sdc$295 |    0000647A  A$sdc$295
     0000647B  A$sdc$295 |    0000647B  C$sdc.c$4 |    0000647C  A$sdc$295
     0000647F  A$sdc$296 |    00006480  A$sdc$296 |    00006483  A$sdc$296
     00006484  A$sdc$297 |    00006484  C$sdc.c$4 |    00006484  XG$sdcTfr
ASxxxx Linker V03.00 + NoICE + sdld,  page 90.
Hexadecimal  [32-Bits]

Area                       Addr        Size        Decimal Bytes (Attributes)
--------------------       ----        ----        ------- ----- ------------
_CODE                  00000000    000084DB =       34011. bytes (REL,CON)

        Value  Global            Value  Global            Value  Global    
        -----  ------            -----  ------            -----  ------    
     00006485  A$sdc$298 |    00006485  C$sdc.c$5 |    00006485  C$sdc.c$5
     00006485  G$sdcTfrO |    00006485  _sdcTfrOu |    00006488  A$sdc$298
     00006489  A$sdc$298 |    0000648C  A$sdc$298 |    0000648C  C$sdc.c$5
     0000648F  A$sdc$299 |    00006490  A$sdc$299 |    00006493  A$sdc$299
     00006493  C$sdc.c$5 |    00006496  A$sdc$299 |    00006497  A$sdc$299
     0000649A  A$sdc$300 |    0000649A  C$sdc.c$5 |    0000649D  A$sdc$300
     0000649E  A$sdc$300 |    000064A1  A$sdc$300 |    000064A2  A$sdc$300
     000064A3  A$sdc$300 |    000064A4  A$sdc$300 |    000064A5  A$sdc$300
     000064A6  A$sdc$300 |    000064A8  A$sdc$301 |    000064A9  A$sdc$301
     000064AA  A$sdc$301 |    000064AD  A$sdc$301 |    000064AE  A$sdc$301
     000064AE  C$sdc.c$5 |    000064AF  A$sdc$301 |    000064B2  A$sdc$301
     000064B3  A$sdc$302 |    000064B6  A$sdc$302 |    000064B7  A$sdc$302
     000064B7  C$sdc.c$5 |    000064B7  XG$sdcTfr |    000064B8  A$sdc$304
     000064B8  C$sdc.c$5 |    000064B8  C$sdc.c$5 |    000064B8  G$sdcWrit
     000064B8  XG$sdcWri |    000064B8  _sdcWrite |    000064B9  A$sdc$305
     000064B9  C$sdc.c$5 |    000064B9  G$sdcWrit |    000064B9  _sdcWrite
     000064BB  A$sdc$305 |    000064BF  A$sdc$305 |    000064C1  A$sdc$306
     000064C1  C$sdc.c$5 |    000064C3  A$sdc$306 |    000064C4  A$sdc$306
     000064C5  A$sdc$306 |    000064C8  A$sdc$306 |    000064CB  A$sdc$306
     000064CC  A$sdc$306 |    000064CF  A$sdc$306 |    000064D0  A$sdc$307
     000064D1  A$sdc$307 |    000064D1  C$sdc.c$5 |    000064D4  A$sdc$307
     000064D7  A$sdc$307 |    000064D8  A$sdc$307 |    000064DB  A$sdc$307
     000064DC  A$sdc$308 |    000064E0  A$sdc$308 |    000064E1  A$sdc$308
     000064E2  A$sdc$308 |    000064E5  A$sdc$308 |    000064E6  A$sdc$308
     000064E7  A$sdc$308 |    000064E9  A$sdc$308 |    000064EB  A$sdc$309
     000064ED  A$sdc$309 |    000064EF  A$sdc$309 |    000064EF  C$sdc.c$2
     000064F2  A$sdc$309 |    000064F3  A$sdc$309 |    000064F4  A$sdc$309
     000064F7  A$sdc$309 |    000064F8  A$sdc$310 |    000064FA  A$sdc$310
     000064FB  A$sdc$310 |    000064FC  A$sdc$310 |    000064FC  C$sdc.c$2
     000064FF  A$sdc$310 |    00006502  A$sdc$310 |    00006503  A$sdc$310
     00006505  A$sdc$311 |    00006505  C$sdc.c$5 |    00006505  C$sdc.c$5
     00006508  A$sdc$312 |    00006508  C$sdc.c$5 |    0000650A  A$sdc$312
     0000650B  A$sdc$312 |    0000650C  A$sdc$312 |    0000650F  A$sdc$312
     00006510  A$sdc$312 |    00006513  A$sdc$312 |    00006514  A$sdc$312
     00006517  A$sdc$312 |    00006518  A$sdc$313 |    0000651B  A$sdc$313
     0000651C  A$sdc$313 |    0000651F  A$sdc$313 |    00006520  A$sdc$313
     00006523  A$sdc$313 |    00006524  A$sdc$313 |    00006527  A$sdc$313
     00006528  A$sdc$313 |    0000652B  A$sdc$313 |    0000652C  A$sdc$314
     0000652F  A$sdc$314 |    00006530  A$sdc$314 |    00006533  A$sdc$314
     00006534  A$sdc$314 |    00006537  A$sdc$314 |    00006538  A$sdc$314
     0000653B  A$sdc$314 |    0000653E  A$sdc$314 |    0000653F  A$sdc$314
     00006540  A$sdc$315 |    00006540  C$sdc.c$5 |    00006541  A$sdc$315
     00006542  A$sdc$315 |    00006543  A$sdc$315 |    00006546  A$sdc$315
     00006547  A$sdc$315 |    0000654A  A$sdc$315 |    0000654B  A$sdc$316
     0000654E  A$sdc$316 |    0000654F  A$sdc$316 |    00006552  A$sdc$316
     00006553  A$sdc$316 |    00006556  A$sdc$316 |    00006557  A$sdc$316
     0000655A  A$sdc$316 |    0000655B  A$sdc$316 |    0000655E  A$sdc$316
     0000655F  A$sdc$317 |    00006562  A$sdc$317 |    00006565  A$sdc$317
     00006566  A$sdc$317 |    00006569  A$sdc$317 |    0000656C  A$sdc$317
     0000656D  A$sdc$317 |    00006570  A$sdc$317 |    00006571  A$sdc$317
     00006574  A$sdc$317 |    00006575  A$sdc$318 |    00006578  A$sdc$318
ASxxxx Linker V03.00 + NoICE + sdld,  page 91.
Hexadecimal  [32-Bits]

Area                       Addr        Size        Decimal Bytes (Attributes)
--------------------       ----        ----        ------- ----- ------------
_CODE                  00000000    000084DB =       34011. bytes (REL,CON)

        Value  Global            Value  Global            Value  Global    
        -----  ------            -----  ------            -----  ------    
     0000657B  A$sdc$318 |    0000657C  A$sdc$318 |    0000657D  A$sdc$318
     0000657D  C$sdc.c$5 |    0000657F  A$sdc$318 |    00006580  A$sdc$319
     00006581  A$sdc$319 |    00006584  A$sdc$319 |    00006585  A$sdc$319
     00006586  A$sdc$319 |    00006587  A$sdc$319 |    00006588  A$sdc$319
     00006589  A$sdc$319 |    0000658B  A$sdc$319 |    0000658E  A$sdc$319
     00006590  A$sdc$320 |    00006590  C$sdc.c$2 |    00006594  A$sdc$320
     00006594  C$sdc.c$5 |    00006595  A$sdc$320 |    00006596  A$sdc$321
     00006599  A$sdc$321 |    0000659A  A$sdc$321 |    0000659B  A$sdc$321
     0000659D  A$sdc$321 |    0000659F  A$sdc$321 |    000065A0  A$sdc$321
     000065A1  A$sdc$321 |    000065A4  A$sdc$321 |    000065A5  A$sdc$321
     000065A6  A$sdc$322 |    000065A7  A$sdc$322 |    000065A8  A$sdc$322
     000065A9  A$sdc$322 |    000065AA  A$sdc$322 |    000065AB  A$sdc$322
     000065AC  A$sdc$322 |    000065AE  A$sdc$322 |    000065AF  A$sdc$322
     000065B0  A$sdc$322 |    000065B1  A$sdc$323 |    000065B2  A$sdc$323
     000065B4  A$sdc$323 |    000065B5  A$sdc$323 |    000065B7  A$sdc$323
     000065B9  A$sdc$323 |    000065BA  A$sdc$324 |    000065BC  A$sdc$324
     000065BC  C$sdc.c$5 |    000065BC  XG$sdcWri |    000065BD  A$sdc$326
     000065BD  C$sdc.c$5 |    000065BD  C$sdc.c$5 |    000065BD  G$sdcSetL
     000065BD  _sdcSetLa |    000065C0  A$sdc$326 |    000065C1  A$sdc$326
     000065C5  A$sdc$326 |    000065C7  A$sdc$326 |    000065CA  A$sdc$326
     000065CD  A$sdc$326 |    000065CE  A$sdc$326 |    000065D1  A$sdc$326
     000065D4  A$sdc$326 |    000065D5  A$sdc$327 |    000065D8  A$sdc$327
     000065D9  A$sdc$327 |    000065DC  A$sdc$327 |    000065DD  A$sdc$327
     000065DE  A$sdc$327 |    000065DF  A$sdc$327 |    000065E0  A$sdc$327
     000065E1  A$sdc$327 |    000065E2  A$sdc$327 |    000065E4  A$sdc$328
     000065E8  A$sdc$328 |    000065EB  A$sdc$328 |    000065EC  A$sdc$328
     000065ED  A$sdc$328 |    000065F0  A$sdc$328 |    000065F1  A$sdc$328
     000065F4  A$sdc$328 |    000065F6  A$sdc$328 |    000065FA  A$sdc$328
     000065FC  A$sdc$329 |    000065FF  A$sdc$329 |    00006602  A$sdc$329
     00006605  A$sdc$329 |    00006608  A$sdc$329 |    00006609  A$sdc$329
     00006609  C$sdc.c$5 |    0000660C  A$sdc$330 |    0000660D  A$sdc$330
     0000660E  A$sdc$330 |    0000660E  C$sdc.c$5 |    0000660E  XG$sdcSet
     0000660F  Fsdc$__st |    0000662B  A$sdc$332 |    0000662B  C$sdc.c$5
     0000662B  G$sdcGetL |    0000662B  _sdcGetLa |    0000662D  A$sdc$332
     00006631  A$sdc$332 |    00006633  A$sdc$332 |    00006636  A$sdc$332
     00006637  A$sdc$332 |    00006638  A$sdc$333 |    00006638  C$sdc.c$5
     0000663C  A$sdc$333 |    00006640  A$sdc$333 |    00006644  A$sdc$333
     00006648  A$sdc$333 |    00006649  A$sdc$333 |    0000664C  A$sdc$333
     0000664F  A$sdc$333 |    00006652  A$sdc$334 |    00006655  A$sdc$334
     00006659  A$sdc$334 |    0000665D  A$sdc$334 |    00006661  A$sdc$334
     00006665  A$sdc$334 |    00006665  C$sdc.c$5 |    00006668  A$sdc$334
     0000666B  A$sdc$335 |    0000666C  A$sdc$335 |    0000666D  A$sdc$335
     0000666E  A$sdc$335 |    0000666F  A$sdc$335 |    00006670  A$sdc$335
     00006671  A$sdc$335 |    00006672  A$sdc$335 |    00006673  A$sdc$335
     00006674  A$sdc$335 |    00006675  A$sdc$336 |    00006676  A$sdc$336
     00006677  A$sdc$336 |    0000667A  A$sdc$336 |    0000667A  C$sdc.c$5
     0000667D  A$sdc$336 |    0000667E  A$sdc$336 |    00006681  A$sdc$336
     00006682  A$sdc$337 |    00006682  C$sdc.c$5 |    00006682  C$sdc.c$5
     00006685  A$sdc$337 |    00006686  A$sdc$337 |    00006689  A$sdc$338
     0000668C  A$sdc$338 |    0000668D  A$sdc$338 |    00006690  A$sdc$338
     00006693  A$sdc$338 |    00006694  A$sdc$338 |    00006697  A$sdc$338
ASxxxx Linker V03.00 + NoICE + sdld,  page 92.
Hexadecimal  [32-Bits]

Area                       Addr        Size        Decimal Bytes (Attributes)
--------------------       ----        ----        ------- ----- ------------
_CODE                  00000000    000084DB =       34011. bytes (REL,CON)

        Value  Global            Value  Global            Value  Global    
        -----  ------            -----  ------            -----  ------    
     00006698  A$sdc$338 |    0000669B  A$sdc$338 |    0000669C  A$sdc$338
     0000669D  A$sdc$339 |    0000669E  A$sdc$339 |    0000669F  A$sdc$339
     000066A0  A$sdc$339 |    000066A1  A$sdc$339 |    000066A4  A$sdc$339
     000066A4  C$sdc.c$5 |    000066A7  A$sdc$339 |    000066A9  A$sdc$340
     000066AC  A$sdc$340 |    000066AF  A$sdc$340 |    000066B1  A$sdc$340
     000066B4  A$sdc$340 |    000066B7  A$sdc$340 |    000066B9  A$sdc$340
     000066BC  A$sdc$340 |    000066BF  A$sdc$340 |    000066C1  A$sdc$340
     000066C4  A$sdc$341 |    000066C4  C$sdc.c$5 |    000066C7  A$sdc$341
     000066CA  A$sdc$341 |    000066CC  A$sdc$341 |    000066CF  A$sdc$341
     000066D2  A$sdc$341 |    000066D4  A$sdc$341 |    000066D7  A$sdc$342
     000066DA  A$sdc$342 |    000066DC  A$sdc$342 |    000066DF  A$sdc$342
     000066E2  A$sdc$342 |    000066E4  A$sdc$342 |    000066E7  A$sdc$342
     000066EA  A$sdc$342 |    000066EB  A$sdc$342 |    000066EE  A$sdc$343
     000066F1  A$sdc$343 |    000066F2  A$sdc$343 |    000066F5  A$sdc$343
     000066F8  A$sdc$343 |    000066F9  A$sdc$343 |    000066FC  A$sdc$343
     000066FF  A$sdc$343 |    00006700  A$sdc$343 |    00006702  A$sdc$343
     00006703  A$sdc$344 |    00006705  A$sdc$344 |    00006706  A$sdc$344
     00006708  A$sdc$344 |    00006709  A$sdc$344 |    0000670B  A$sdc$344
     0000670C  A$sdc$344 |    0000670E  A$sdc$345 |    0000670E  C$sdc.c$5
     00006711  A$sdc$345 |    00006714  A$sdc$345 |    00006717  A$sdc$345
     00006719  A$sdc$345 |    0000671B  A$sdc$345 |    0000671D  A$sdc$345
     0000671F  A$sdc$345 |    00006721  A$sdc$346 |    00006723  A$sdc$346
     00006724  A$sdc$346 |    00006725  A$sdc$346 |    00006728  A$sdc$346
     00006729  A$sdc$346 |    0000672A  A$sdc$346 |    0000672D  A$sdc$346
     00006730  A$sdc$346 |    00006731  A$sdc$346 |    00006734  A$sdc$347
     00006737  A$sdc$347 |    00006738  A$sdc$347 |    0000673B  A$sdc$347
     0000673C  A$sdc$347 |    0000673D  A$sdc$347 |    00006740  A$sdc$347
     00006743  A$sdc$347 |    00006744  A$sdc$347 |    00006745  A$sdc$348
     00006745  C$sdc.c$5 |    00006748  A$sdc$348 |    00006749  A$sdc$348
     0000674C  A$sdc$348 |    0000674D  A$sdc$348 |    0000674D  C$sdc.c$5
     00006750  A$sdc$349 |    00006753  A$sdc$349 |    00006756  A$sdc$349
     00006759  A$sdc$349 |    0000675C  A$sdc$349 |    0000675C  C$sdc.c$5
     0000675E  A$sdc$349 |    00006760  A$sdc$350 |    00006762  A$sdc$350
     00006764  A$sdc$350 |    00006765  A$sdc$350 |    00006768  A$sdc$350
     00006769  A$sdc$350 |    0000676A  A$sdc$350 |    0000676D  A$sdc$350
     0000676E  A$sdc$350 |    0000676F  A$sdc$350 |    00006772  A$sdc$351
     00006773  A$sdc$351 |    00006774  A$sdc$351 |    00006777  A$sdc$351
     00006778  A$sdc$351 |    0000677B  A$sdc$351 |    0000677E  A$sdc$351
     00006781  A$sdc$351 |    00006784  A$sdc$351 |    00006787  A$sdc$352
     00006787  C$sdc.c$5 |    0000678A  A$sdc$352 |    0000678D  A$sdc$352
     0000678F  A$sdc$352 |    00006792  A$sdc$352 |    00006795  A$sdc$352
     00006797  A$sdc$352 |    0000679A  A$sdc$353 |    0000679D  A$sdc$353
     0000679F  A$sdc$353 |    000067A2  A$sdc$353 |    000067A5  A$sdc$353
     000067A7  A$sdc$353 |    000067AA  A$sdc$353 |    000067AD  A$sdc$353
     000067AE  A$sdc$353 |    000067B1  A$sdc$354 |    000067B4  A$sdc$354
     000067B5  A$sdc$354 |    000067B8  A$sdc$354 |    000067BB  A$sdc$354
     000067BC  A$sdc$354 |    000067BF  A$sdc$354 |    000067C2  A$sdc$354
     000067C3  A$sdc$354 |    000067C5  A$sdc$354 |    000067C6  A$sdc$355
     000067C8  A$sdc$355 |    000067C9  A$sdc$355 |    000067CB  A$sdc$355
     000067CC  A$sdc$355 |    000067CE  A$sdc$355 |    000067CF  A$sdc$355
     000067D1  A$sdc$356 |    000067D1  C$sdc.c$5 |    000067D4  A$sdc$356
ASxxxx Linker V03.00 + NoICE + sdld,  page 93.
Hexadecimal  [32-Bits]

Area                       Addr        Size        Decimal Bytes (Attributes)
--------------------       ----        ----        ------- ----- ------------
_CODE                  00000000    000084DB =       34011. bytes (REL,CON)

        Value  Global            Value  Global            Value  Global    
        -----  ------            -----  ------            -----  ------    
     000067D7  A$sdc$356 |    000067DA  A$sdc$356 |    000067DC  A$sdc$356
     000067DE  A$sdc$356 |    000067E0  A$sdc$356 |    000067E2  A$sdc$356
     000067E4  A$sdc$357 |    000067E6  A$sdc$357 |    000067E7  A$sdc$357
     000067E8  A$sdc$357 |    000067EB  A$sdc$357 |    000067EC  A$sdc$357
     000067ED  A$sdc$357 |    000067F0  A$sdc$357 |    000067F3  A$sdc$357
     000067F4  A$sdc$357 |    000067F7  A$sdc$358 |    000067FA  A$sdc$358
     000067FB  A$sdc$358 |    000067FE  A$sdc$358 |    000067FF  A$sdc$358
     00006800  A$sdc$358 |    00006803  A$sdc$358 |    00006806  A$sdc$358
     00006807  A$sdc$358 |    00006808  A$sdc$359 |    00006808  C$sdc.c$5
     0000680B  A$sdc$359 |    0000680C  A$sdc$359 |    0000680F  A$sdc$359
     00006810  A$sdc$359 |    00006810  C$sdc.c$5 |    00006813  A$sdc$360
     00006816  A$sdc$360 |    00006819  A$sdc$360 |    0000681C  A$sdc$360
     0000681E  A$sdc$360 |    0000681E  C$sdc.c$5 |    00006821  A$sdc$360
     00006822  A$sdc$361 |    00006823  A$sdc$361 |    00006826  A$sdc$361
     00006827  A$sdc$361 |    0000682A  A$sdc$361 |    0000682C  A$sdc$361
     0000682C  C$sdc.c$5 |    0000682F  A$sdc$361 |    00006832  A$sdc$362
     00006833  A$sdc$362 |    00006836  A$sdc$362 |    00006839  A$sdc$362
     0000683A  A$sdc$362 |    0000683D  A$sdc$362 |    00006840  A$sdc$362
     00006841  A$sdc$362 |    00006844  A$sdc$362 |    00006847  A$sdc$362
     00006848  A$sdc$363 |    0000684A  A$sdc$363 |    0000684C  A$sdc$363
     0000684E  A$sdc$363 |    00006850  A$sdc$363 |    00006851  A$sdc$363
     00006854  A$sdc$363 |    00006857  A$sdc$363 |    00006858  A$sdc$363
     0000685B  A$sdc$363 |    0000685E  A$sdc$364 |    0000685F  A$sdc$364
     00006862  A$sdc$364 |    00006865  A$sdc$364 |    00006866  A$sdc$364
     00006869  A$sdc$364 |    0000686C  A$sdc$364 |    0000686F  A$sdc$365
     0000686F  C$sdc.c$5 |    00006870  A$sdc$365 |    00006871  A$sdc$365
     00006873  A$sdc$365 |    00006875  A$sdc$366 |    00006875  C$sdc.c$5
     00006875  XG$sdcGet |    00006876  Fsdc$__st |    00006894  Fsdc$__st
     000068BC  A$sdc$368 |    000068BC  C$sdc.c$6 |    000068BC  C$sdc.c$6
     000068BC  G$sdcEras |    000068BC  _sdcErase |    000068BF  A$sdc$368
     000068C1  A$sdc$369 |    000068C1  C$sdc.c$6 |    000068C1  XG$sdcEra
     000068C2  A$sdc$370 |    000068C2  C$sdc.c$6 |    000068C2  G$sdcBloc
     000068C2  _sdcBlock |    000068C4  A$sdc$370 |    000068C8  A$sdc$370
     000068CA  A$sdc$370 |    000068CA  C$sdc.c$6 |    000068CD  A$sdc$371
     000068CE  A$sdc$371 |    000068D1  A$sdc$371 |    000068D1  C$sdc.c$6
     000068D3  A$sdc$371 |    000068D4  A$sdc$371 |    000068D5  A$sdc$371
     000068D8  A$sdc$371 |    000068DB  A$sdc$372 |    000068DC  A$sdc$372
     000068DF  A$sdc$372 |    000068E0  A$sdc$372 |    000068E1  A$sdc$372
     000068E1  C$sdc.c$2 |    000068E5  A$sdc$372 |    000068E6  A$sdc$372
     000068E7  A$sdc$373 |    000068EA  A$sdc$373 |    000068EB  A$sdc$373
     000068EC  A$sdc$373 |    000068EE  A$sdc$373 |    000068F0  A$sdc$373
     000068F2  A$sdc$373 |    000068F4  A$sdc$374 |    000068F4  C$sdc.c$2
     000068F7  A$sdc$374 |    000068F8  A$sdc$374 |    000068F9  A$sdc$374
     000068FC  A$sdc$374 |    000068FD  A$sdc$374 |    000068FF  A$sdc$374
     00006900  A$sdc$374 |    00006901  A$sdc$375 |    00006901  C$sdc.c$2
     00006904  A$sdc$375 |    00006907  A$sdc$375 |    00006908  A$sdc$375
     0000690A  A$sdc$376 |    0000690A  C$sdc.c$6 |    0000690A  C$sdc.c$6
     0000690D  A$sdc$376 |    0000690D  C$sdc.c$6 |    0000690F  A$sdc$376
     00006910  A$sdc$376 |    00006911  A$sdc$376 |    00006914  A$sdc$377
     00006915  A$sdc$377 |    00006918  A$sdc$377 |    00006919  A$sdc$377
     0000691C  A$sdc$377 |    0000691D  A$sdc$377 |    00006920  A$sdc$377
ASxxxx Linker V03.00 + NoICE + sdld,  page 94.
Hexadecimal  [32-Bits]

Area                       Addr        Size        Decimal Bytes (Attributes)
--------------------       ----        ----        ------- ----- ------------
_CODE                  00000000    000084DB =       34011. bytes (REL,CON)

        Value  Global            Value  Global            Value  Global    
        -----  ------            -----  ------            -----  ------    
     00006921  A$sdc$377 |    00006924  A$sdc$377 |    00006925  A$sdc$377
     00006928  A$sdc$378 |    00006929  A$sdc$378 |    0000692C  A$sdc$378
     0000692D  A$sdc$378 |    00006930  A$sdc$378 |    00006931  A$sdc$378
     00006934  A$sdc$378 |    00006935  A$sdc$378 |    00006938  A$sdc$378
     00006939  A$sdc$378 |    0000693C  A$sdc$379 |    0000693D  A$sdc$379
     00006940  A$sdc$379 |    00006943  A$sdc$379 |    00006944  A$sdc$379
     00006945  A$sdc$379 |    00006945  C$sdc.c$6 |    00006947  A$sdc$379
     00006948  A$sdc$380 |    00006949  A$sdc$380 |    0000694C  A$sdc$380
     0000694D  A$sdc$380 |    00006950  A$sdc$380 |    00006951  A$sdc$380
     00006954  A$sdc$380 |    00006955  A$sdc$380 |    00006958  A$sdc$380
     00006959  A$sdc$380 |    0000695C  A$sdc$381 |    0000695D  A$sdc$381
     00006960  A$sdc$381 |    00006961  A$sdc$381 |    00006964  A$sdc$381
     00006965  A$sdc$381 |    00006968  A$sdc$381 |    0000696B  A$sdc$381
     0000696C  A$sdc$381 |    0000696F  A$sdc$381 |    00006972  A$sdc$382
     00006973  A$sdc$382 |    00006976  A$sdc$382 |    00006977  A$sdc$382
     0000697A  A$sdc$382 |    0000697B  A$sdc$382 |    0000697E  A$sdc$382
     00006981  A$sdc$382 |    00006982  A$sdc$382 |    00006983  A$sdc$383
     00006983  C$sdc.c$6 |    00006985  A$sdc$383 |    00006986  A$sdc$383
     00006987  A$sdc$383 |    0000698A  A$sdc$383 |    0000698B  A$sdc$383
     0000698E  A$sdc$383 |    0000698F  A$sdc$383 |    00006992  A$sdc$384
     00006993  A$sdc$384 |    00006996  A$sdc$384 |    00006997  A$sdc$384
     0000699A  A$sdc$384 |    0000699B  A$sdc$384 |    0000699E  A$sdc$384
     0000699F  A$sdc$384 |    000069A2  A$sdc$384 |    000069A3  A$sdc$384
     000069A6  A$sdc$385 |    000069A9  A$sdc$385 |    000069AA  A$sdc$385
     000069AD  A$sdc$385 |    000069B0  A$sdc$385 |    000069B1  A$sdc$385
     000069B4  A$sdc$385 |    000069B5  A$sdc$385 |    000069B8  A$sdc$385
     000069B9  A$sdc$385 |    000069BC  A$sdc$386 |    000069BF  A$sdc$386
     000069C0  A$sdc$386 |    000069C1  A$sdc$386 |    000069C1  C$sdc.c$6
     000069C3  A$sdc$386 |    000069C4  A$sdc$386 |    000069C5  A$sdc$386
     000069C8  A$sdc$387 |    000069C9  A$sdc$387 |    000069CC  A$sdc$387
     000069CD  A$sdc$387 |    000069D0  A$sdc$387 |    000069D1  A$sdc$387
     000069D4  A$sdc$387 |    000069D5  A$sdc$387 |    000069D8  A$sdc$387
     000069D9  A$sdc$387 |    000069DC  A$sdc$388 |    000069DD  A$sdc$388
     000069E0  A$sdc$388 |    000069E1  A$sdc$388 |    000069E4  A$sdc$388
     000069E5  A$sdc$388 |    000069E8  A$sdc$388 |    000069E9  A$sdc$388
     000069EC  A$sdc$388 |    000069ED  A$sdc$388 |    000069F0  A$sdc$389
     000069F1  A$sdc$389 |    000069F4  A$sdc$389 |    000069F7  A$sdc$389
     000069F8  A$sdc$389 |    000069F9  A$sdc$389 |    000069F9  C$sdc.c$6
     000069FC  A$sdc$390 |    000069FD  A$sdc$390 |    000069FF  A$sdc$390
     00006A02  A$sdc$390 |    00006A04  A$sdc$390 |    00006A04  C$sdc.c$6
     00006A07  A$sdc$390 |    00006A08  A$sdc$391 |    00006A0B  A$sdc$391
     00006A0C  A$sdc$391 |    00006A0E  A$sdc$392 |    00006A0E  C$sdc.c$6
     00006A0E  XG$sdcBlo |    00006A0F  Fsdc$__st |    00006A25  Fsdc$__st
     00006A34  A$stdio_u |    00006A34  C$stdio_u |    00006A34  C$stdio_u
     00006A34  C$stdio_u |    00006A34  G$uartPro |    00006A34  _uartProc
     00006A36  A$stdio_u |    00006A37  A$stdio_u |    00006A38  A$stdio_u
     00006A3B  A$stdio_u |    00006A3C  A$stdio_u |    00006A3D  A$stdio_u
     00006A3E  A$stdio_u |    00006A3F  A$stdio_u |    00006A3F  C$stdio_u
     00006A41  A$stdio_u |    00006A45  A$stdio_u |    00006A48  A$stdio_u
     00006A4A  A$stdio_u |    00006A4A  C$stdio_u |    00006A4D  A$stdio_u
     00006A50  A$stdio_u |    00006A53  A$stdio_u |    00006A55  A$stdio_u
ASxxxx Linker V03.00 + NoICE + sdld,  page 95.
Hexadecimal  [32-Bits]

Area                       Addr        Size        Decimal Bytes (Attributes)
--------------------       ----        ----        ------- ----- ------------
_CODE                  00000000    000084DB =       34011. bytes (REL,CON)

        Value  Global            Value  Global            Value  Global    
        -----  ------            -----  ------            -----  ------    
     00006A56  A$stdio_u |    00006A57  A$stdio_u |    00006A58  A$stdio_u
     00006A59  A$stdio_u |    00006A5A  A$stdio_u |    00006A5D  A$stdio_u
     00006A5E  A$stdio_u |    00006A5F  A$stdio_u |    00006A60  A$stdio_u
     00006A61  A$stdio_u |    00006A63  A$stdio_u |    00006A63  C$stdio_u
     00006A64  A$stdio_u |    00006A65  A$stdio_u |    00006A66  A$stdio_u
     00006A69  A$stdio_u |    00006A6A  A$stdio_u |    00006A6A  C$stdio_u
     00006A6A  XG$uartPr |    00006A6C  A$stdio_u |    00006A6C  C$stdio_u
     00006A6C  C$stdio_u |    00006A6C  C$stdio_u |    00006A6C  G$stdioIn
     00006A6C  XG$stdioI |    00006A6C  _stdioIni |    00006A6F  A$stdio_u
     00006A6F  C$stdio_u |    00006A6F  C$stdio_u |    00006A6F  G$putchar
     00006A6F  _putchar  |    00006A71  A$stdio_u |    00006A72  A$stdio_u
     00006A73  A$stdio_u |    00006A76  A$stdio_u |    00006A77  A$stdio_u
     00006A79  A$stdio_u |    00006A7B  A$stdio_u |    00006A7B  C$stdio_u
     00006A7E  A$stdio_u |    00006A7F  A$stdio_u |    00006A80  A$stdio_u
     00006A80  C$stdio_u |    00006A81  A$stdio_u |    00006A82  A$stdio_u
     00006A83  A$stdio_u |    00006A84  A$stdio_u |    00006A85  A$stdio_u
     00006A88  A$stdio_u |    00006A89  A$stdio_u |    00006A89  C$stdio_u
     00006A8D  A$stdio_u |    00006A8F  A$stdio_u |    00006A92  A$stdio_u
     00006A94  A$stdio_u |    00006A97  A$stdio_u |    00006A99  A$stdio_u
     00006A9C  A$stdio_u |    00006A9D  A$stdio_u |    00006AA0  A$stdio_u
     00006AA1  A$stdio_u |    00006AA1  C$stdio_u |    00006AA4  A$stdio_u
     00006AA4  C$stdio_u |    00006AA4  XG$putcha |    00006AA5  A$stdio_u
     00006AA5  C$stdio_u |    00006AA5  C$stdio_u |    00006AA5  G$uartAva
     00006AA5  _uartAvai |    00006AA9  A$stdio_u |    00006AAC  A$stdio_u
     00006AAC  C$stdio_u |    00006AAC  XG$uartAv |    00006AAD  A$stdio_u
     00006AAD  C$stdio_u |    00006AAD  C$stdio_u |    00006AAD  G$getchar
     00006AAD  _getchar  |    00006AB0  A$stdio_u |    00006AB1  A$stdio_u
     00006AB2  A$stdio_u |    00006AB2  C$stdio_u |    00006AB5  A$stdio_u
     00006AB6  A$stdio_u |    00006AB8  A$stdio_u |    00006ABB  A$stdio_u
     00006ABC  A$stdio_u |    00006ABC  C$stdio_u |    00006ABE  A$stdio_u
     00006AC2  A$stdio_u |    00006AC5  A$stdio_u |    00006AC7  A$stdio_u
     00006AC7  C$stdio_u |    00006AC8  A$stdio_u |    00006AC9  A$stdio_u
     00006ACA  A$stdio_u |    00006ACB  A$stdio_u |    00006ACC  A$stdio_u
     00006ACF  A$stdio_u |    00006AD1  A$stdio_u |    00006AD2  A$stdio_u
     00006AD2  C$stdio_u |    00006AD5  A$stdio_u |    00006AD6  A$stdio_u
     00006AD6  C$stdio_u |    00006AD8  A$stdio_u |    00006AD9  A$stdio_u
     00006AD9  C$stdio_u |    00006AD9  XG$getcha |    00006ADA  A$stdio_u
     00006ADA  C$stdio_u |    00006ADA  C$stdio_u |    00006ADA  G$inbound
     00006ADA  _inboundF |    00006ADD  A$stdio_u |    00006ADE  A$stdio_u
     00006AE1  A$stdio_u |    00006AE2  A$stdio_u |    00006AE2  C$stdio_u
     00006AE5  A$stdio_u |    00006AE7  A$stdio_u |    00006AE7  C$stdio_u
     00006AE7  XG$inboun |    00006AE8  A$stdio_u |    00006AE8  C$stdio_u
     00006AE8  C$stdio_u |    00006AE8  G$outboun |    00006AE8  _outbound
     00006AEA  A$stdio_u |    00006AEB  A$stdio_u |    00006AEC  A$stdio_u
     00006AEF  A$stdio_u |    00006AF0  A$stdio_u |    00006AF2  A$stdio_u
     00006AF3  A$stdio_u |    00006AF6  A$stdio_u |    00006AF6  C$stdio_u
     00006AF6  XG$outbou |    00006AF8  A$system$ |    00006AF8  C$system.
     00006AF8  C$system. |    00006AF8  G$sramRea |    00006AF8  _sramRead
     00006AFA  A$system$ |    00006AFB  A$system$ |    00006AFC  A$system$
     00006AFF  A$system$ |    00006B00  A$system$ |    00006B01  A$system$
     00006B03  A$system$ |    00006B05  A$system$ |    00006B07  A$system$
ASxxxx Linker V03.00 + NoICE + sdld,  page 96.
Hexadecimal  [32-Bits]

Area                       Addr        Size        Decimal Bytes (Attributes)
--------------------       ----        ----        ------- ----- ------------
_CODE                  00000000    000084DB =       34011. bytes (REL,CON)

        Value  Global            Value  Global            Value  Global    
        -----  ------            -----  ------            -----  ------    
     00006B0A  A$system$ |    00006B0B  A$system$ |    00006B0C  A$system$
     00006B0C  C$system. |    00006B0C  XG$sramRe |    00006B0D  A$system$
     00006B0D  C$system. |    00006B0D  C$system. |    00006B0D  G$cpcRese
     00006B0D  _cpcReset |    00006B10  A$system$ |    00006B10  C$system.
     00006B10  C$system. |    00006B10  XG$cpcRes |    00006B13  A$system$
     00006B13  C$system. |    00006B13  C$system. |    00006B13  G$cpcRese
     00006B13  _cpcReset |    00006B16  A$system$ |    00006B17  A$system$
     00006B1A  A$system$ |    00006B1A  C$system. |    00006B1C  A$system$
     00006B1D  A$system$ |    00006B1E  A$system$ |    00006B21  A$system$
     00006B22  A$system$ |    00006B24  A$system$ |    00006B25  A$system$
     00006B26  A$system$ |    00006B27  A$system$ |    00006B29  A$system$
     00006B2A  A$system$ |    00006B2B  A$system$ |    00006B2E  A$system$
     00006B2F  A$system$ |    00006B2F  C$system. |    00006B2F  XG$cpcRes
     00006B30  Fsystem$_ |    00006B3F  A$system$ |    00006B3F  C$system.
     00006B3F  C$system. |    00006B3F  G$cpcRese |    00006B3F  _cpcReset
     00006B42  A$system$ |    00006B43  A$system$ |    00006B46  A$system$
     00006B46  C$system. |    00006B48  A$system$ |    00006B49  A$system$
     00006B4A  A$system$ |    00006B4D  A$system$ |    00006B4E  A$system$
     00006B51  A$system$ |    00006B52  A$system$ |    00006B55  A$system$
     00006B56  A$system$ |    00006B56  C$system. |    00006B56  XG$cpcRes
     00006B57  Fsystem$_ |    00006B69  A$system$ |    00006B69  C$system.
     00006B69  C$system. |    00006B69  G$cpcInRe |    00006B69  _cpcInRes
     00006B6B  A$system$ |    00006B6C  A$system$ |    00006B6D  A$system$
     00006B70  A$system$ |    00006B71  A$system$ |    00006B73  A$system$
     00006B75  A$system$ |    00006B78  A$system$ |    00006B79  A$system$
     00006B7C  A$system$ |    00006B7C  C$system. |    00006B7C  XG$cpcInR
     00006B7D  A$usb$83  |    00006B7D  C$usb.c$3 |    00006B7D  C$usb.c$3
     00006B7D  G$usbInit |    00006B7D  _usbInit  |    00006B80  A$usb$84 
     00006B81  A$usb$85  |    00006B84  A$usb$86  |    00006B85  A$usb$90 
     00006B85  C$usb.c$3 |    00006B87  A$usb$92  |    00006B88  A$usb$93 
     00006B89  A$usb$94  |    00006B8A  A$usb$95  |    00006B8B  A$usb$96 
     00006B8C  A$usb$97  |    00006B8E  A$usb$101 |    00006B8E  C$usb.c$4
     00006B91  A$usb$105 |    00006B91  C$usb.c$4 |    00006B94  A$usb$106
     00006B95  A$usb$107 |    00006B98  A$usb$111 |    00006B98  C$usb.c$4
     00006B9A  A$usb$112 |    00006B9B  A$usb$113 |    00006B9C  A$usb$114
     00006B9F  A$usb$115 |    00006BA0  A$usb$119 |    00006BA0  C$usb.c$4
     00006BA1  A$usb$120 |    00006BA3  A$usb$121 |    00006BA4  A$usb$122
     00006BA6  A$usb$123 |    00006BA7  A$usb$124 |    00006BA8  A$usb$125
     00006BA9  A$usb$126 |    00006BAA  A$usb$127 |    00006BAB  A$usb$128
     00006BAD  A$usb$129 |    00006BAE  A$usb$130 |    00006BB0  A$usb$131
     00006BB1  A$usb$132 |    00006BB2  A$usb$133 |    00006BB5  A$usb$134
     00006BB6  A$usb$135 |    00006BB7  A$usb$136 |    00006BB8  A$usb$137
     00006BB9  A$usb$138 |    00006BBC  A$usb$139 |    00006BBD  A$usb$140
     00006BBE  A$usb$141 |    00006BC1  A$usb$142 |    00006BC4  A$usb$143
     00006BC5  A$usb$144 |    00006BC6  A$usb$148 |    00006BC6  C$usb.c$4
     00006BC9  A$usb$149 |    00006BCA  A$usb$150 |    00006BCD  A$usb$151
     00006BCE  A$usb$155 |    00006BCE  C$usb.c$5 |    00006BD1  A$usb$156
     00006BD3  A$usb$164 |    00006BD3  C$usb.c$5 |    00006BD3  XG$usbIni
     00006BD4  Fusb$__st |    00006BEB  A$usb$181 |    00006BEB  C$usb.c$5
     00006BEB  C$usb.c$5 |    00006BEB  G$deviceR |    00006BEB  _deviceRe
     00006BEE  A$usb$182 |    00006BEF  A$usb$183 |    00006BF2  A$usb$184
ASxxxx Linker V03.00 + NoICE + sdld,  page 97.
Hexadecimal  [32-Bits]

Area                       Addr        Size        Decimal Bytes (Attributes)
--------------------       ----        ----        ------- ----- ------------
_CODE                  00000000    000084DB =       34011. bytes (REL,CON)

        Value  Global            Value  Global            Value  Global    
        -----  ------            -----  ------            -----  ------    
     00006BF3  A$usb$188 |    00006BF3  C$usb.c$6 |    00006BF6  A$usb$190
     00006BF7  A$usb$191 |    00006BF8  A$usb$192 |    00006BF9  A$usb$193
     00006BFB  A$usb$197 |    00006BFB  C$usb.c$6 |    00006BFE  A$usb$198
     00006BFF  A$usb$199 |    00006C02  A$usb$200 |    00006C03  A$usb$204
     00006C03  C$usb.c$6 |    00006C06  A$usb$206 |    00006C07  A$usb$207
     00006C08  A$usb$208 |    00006C09  A$usb$209 |    00006C0B  A$usb$220
     00006C0B  C$usb.c$6 |    00006C0B  C$usb.c$6 |    00006C0B  XG$device
     00006C0C  Fusb$__st |    00006C14  Fusb$__st |    00006C1F  A$usb$238
     00006C1F  C$usb.c$7 |    00006C1F  G$usbIn$0 |    00006C1F  _usbIn   
     00006C21  A$usb$239 |    00006C25  A$usb$240 |    00006C27  A$usb$241
     00006C2A  A$usb$242 |    00006C2B  A$usb$243 |    00006C2C  A$usb$247
     00006C2C  C$usb.c$7 |    00006C2D  A$usb$248 |    00006C30  A$usb$249
     00006C33  A$usb$250 |    00006C36  A$usb$251 |    00006C39  A$usb$255
     00006C39  C$usb.c$7 |    00006C3C  A$usb$256 |    00006C3F  A$usb$257
     00006C42  A$usb$258 |    00006C45  A$usb$260 |    00006C48  A$usb$261
     00006C4A  A$usb$262 |    00006C4D  A$usb$263 |    00006C4F  A$usb$264
     00006C52  A$usb$265 |    00006C54  A$usb$266 |    00006C57  A$usb$270
     00006C57  C$usb.c$8 |    00006C5A  A$usb$271 |    00006C5B  A$usb$272
     00006C5E  A$usb$276 |    00006C5E  C$usb.c$8 |    00006C61  A$usb$277
     00006C62  A$usb$278 |    00006C65  A$usb$279 |    00006C66  A$usb$283
     00006C66  C$usb.c$8 |    00006C69  A$usb$284 |    00006C6B  A$usb$285
     00006C6C  A$usb$286 |    00006C6F  A$usb$287 |    00006C70  A$usb$291
     00006C70  C$usb.c$8 |    00006C73  A$usb$292 |    00006C75  A$usb$293
     00006C76  A$usb$294 |    00006C79  A$usb$298 |    00006C79  C$usb.c$8
     00006C7C  A$usb$299 |    00006C7D  A$usb$300 |    00006C80  A$usb$304
     00006C80  C$usb.c$8 |    00006C83  A$usb$305 |    00006C84  A$usb$306
     00006C87  A$usb$310 |    00006C87  C$usb.c$8 |    00006C8A  A$usb$311
     00006C8B  A$usb$312 |    00006C8E  A$usb$313 |    00006C8F  A$usb$317
     00006C8F  C$usb.c$9 |    00006C92  A$usb$318 |    00006C95  A$usb$319
     00006C98  A$usb$320 |    00006C9B  A$usb$322 |    00006C9C  A$usb$323
     00006C9D  A$usb$324 |    00006C9F  A$usb$325 |    00006CA0  A$usb$326
     00006CA1  A$usb$327 |    00006CA4  A$usb$328 |    00006CA5  A$usb$329
     00006CA6  A$usb$330 |    00006CA7  A$usb$331 |    00006CA9  A$usb$332
     00006CAB  A$usb$333 |    00006CAC  A$usb$334 |    00006CAE  A$usb$335
     00006CAF  A$usb$336 |    00006CB1  A$usb$337 |    00006CB2  A$usb$338
     00006CB4  A$usb$339 |    00006CB5  A$usb$340 |    00006CB7  A$usb$341
     00006CB9  A$usb$342 |    00006CBA  A$usb$343 |    00006CBC  A$usb$344
     00006CBD  A$usb$345 |    00006CBF  A$usb$346 |    00006CC0  A$usb$347
     00006CC2  A$usb$349 |    00006CC5  A$usb$350 |    00006CC8  A$usb$351
     00006CCB  A$usb$352 |    00006CCE  A$usb$356 |    00006CCE  C$usb.c$9
     00006CD0  A$usb$357 |    00006CD1  A$usb$358 |    00006CD2  A$usb$359
     00006CD5  A$usb$360 |    00006CD6  A$usb$361 |    00006CD8  A$usb$362
     00006CDB  A$usb$363 |    00006CDD  A$usb$364 |    00006CDE  A$usb$365
     00006CDF  A$usb$366 |    00006CE2  A$usb$367 |    00006CE3  A$usb$368
     00006CE4  A$usb$369 |    00006CE6  A$usb$370 |    00006CE9  A$usb$374
     00006CE9  C$usb.c$9 |    00006CEB  A$usb$375 |    00006CEC  A$usb$376
     00006CED  A$usb$377 |    00006CF0  A$usb$378 |    00006CF1  A$usb$379
     00006CF4  A$usb$383 |    00006CF4  C$usb.c$9 |    00006CF7  A$usb$384
     00006CFA  A$usb$385 |    00006CFE  A$usb$386 |    00006D00  A$usb$388
     00006D01  A$usb$389 |    00006D04  A$usb$390 |    00006D06  A$usb$394
     00006D06  C$usb.c$9 |    00006D07  A$usb$395 |    00006D08  A$usb$396
ASxxxx Linker V03.00 + NoICE + sdld,  page 98.
Hexadecimal  [32-Bits]

Area                       Addr        Size        Decimal Bytes (Attributes)
--------------------       ----        ----        ------- ----- ------------
_CODE                  00000000    000084DB =       34011. bytes (REL,CON)

        Value  Global            Value  Global            Value  Global    
        -----  ------            -----  ------            -----  ------    
     00006D0A  A$usb$397 |    00006D0B  A$usb$398 |    00006D0C  A$usb$399
     00006D0F  A$usb$400 |    00006D10  A$usb$401 |    00006D11  A$usb$402
     00006D12  A$usb$403 |    00006D13  A$usb$404 |    00006D14  A$usb$408
     00006D14  C$usb.c$9 |    00006D15  A$usb$412 |    00006D15  C$usb.c$1
     00006D18  A$usb$416 |    00006D18  C$usb.c$9 |    00006D19  A$usb$417
     00006D1B  A$usb$422 |    00006D1B  C$usb.c$1 |    00006D1E  A$usb$423
     00006D20  A$usb$428 |    00006D20  C$usb.c$1 |    00006D22  A$usb$433
     00006D24  A$usb$434 |    00006D26  A$usb$439 |    00006D26  C$usb.c$1
     00006D26  XG$usbIn$ |    00006D27  A$usb$452 |    00006D27  C$usb.c$1
     00006D27  C$usb.c$1 |    00006D27  G$usbProc |    00006D27  _usbProce
     00006D29  A$usb$453 |    00006D2A  A$usb$454 |    00006D2B  A$usb$455
     00006D2E  A$usb$456 |    00006D2F  A$usb$457 |    00006D30  A$usb$458
     00006D31  A$usb$459 |    00006D33  A$usb$460 |    00006D34  A$usb$461
     00006D35  A$usb$466 |    00006D35  C$usb.c$1 |    00006D38  A$usb$470
     00006D38  C$usb.c$1 |    00006D3A  A$usb$471 |    00006D3B  A$usb$472
     00006D3C  A$usb$473 |    00006D3F  A$usb$474 |    00006D40  A$usb$475
     00006D41  A$usb$476 |    00006D42  A$usb$477 |    00006D44  A$usb$478
     00006D45  A$usb$479 |    00006D46  A$usb$484 |    00006D46  C$usb.c$1
     00006D48  A$usb$485 |    00006D49  A$usb$486 |    00006D4A  A$usb$487
     00006D4D  A$usb$488 |    00006D4E  A$usb$489 |    00006D4F  A$usb$490
     00006D51  A$usb$491 |    00006D53  A$usb$495 |    00006D53  C$usb.c$1
     00006D56  A$usb$496 |    00006D57  A$usb$497 |    00006D5A  A$usb$498
     00006D5B  A$usb$503 |    00006D5B  C$usb.c$1 |    00006D5D  A$usb$504
     00006D5E  A$usb$505 |    00006D5F  A$usb$506 |    00006D62  A$usb$507
     00006D63  A$usb$508 |    00006D64  A$usb$512 |    00006D64  C$usb.c$1
     00006D65  A$usb$513 |    00006D67  A$usb$514 |    00006D68  A$usb$515
     00006D69  A$usb$520 |    00006D69  C$usb.c$1 |    00006D6B  A$usb$521
     00006D6C  A$usb$522 |    00006D6D  A$usb$523 |    00006D70  A$usb$524
     00006D71  A$usb$525 |    00006D72  A$usb$526 |    00006D74  A$usb$527
     00006D77  A$usb$528 |    00006D79  A$usb$530 |    00006D7C  A$usb$532
     00006D7D  A$usb$533 |    00006D80  A$usb$534 |    00006D83  A$usb$535
     00006D84  A$usb$536 |    00006D85  A$usb$537 |    00006D88  A$usb$538
     00006D8B  A$usb$539 |    00006D8C  A$usb$540 |    00006D8D  A$usb$544
     00006D8D  C$usb.c$1 |    00006D90  A$usb$545 |    00006D91  A$usb$546
     00006D94  A$usb$547 |    00006D95  A$usb$551 |    00006D95  C$usb.c$1
     00006D97  A$usb$559 |    00006D97  C$usb.c$1 |    00006D97  XG$usbPro
     00006D98  Fusb$__st |    00006DCA  Fusb$__st |    00006DD4  Fusb$__st
     00006DF2  Fusb$__st |    00006DF6  Fusb$__st |    00006DFB  A$usb$589
     00006DFB  C$usb.c$1 |    00006DFB  G$_usbOut |    00006DFB  __usbOut 
     00006DFD  A$usb$590 |    00006E01  A$usb$591 |    00006E03  A$usb$592
     00006E06  A$usb$593 |    00006E07  A$usb$594 |    00006E08  A$usb$598
     00006E08  C$usb.c$1 |    00006E0B  A$usb$599 |    00006E0E  A$usb$600
     00006E11  A$usb$601 |    00006E14  A$usb$602 |    00006E17  A$usb$603
     00006E1A  A$usb$604 |    00006E1E  A$usb$609 |    00006E1E  C$usb.c$1
     00006E21  A$usb$610 |    00006E22  A$usb$611 |    00006E25  A$usb$615
     00006E25  C$usb.c$1 |    00006E28  A$usb$616 |    00006E29  A$usb$617
     00006E2C  A$usb$618 |    00006E2D  A$usb$622 |    00006E2D  C$usb.c$1
     00006E30  A$usb$623 |    00006E32  A$usb$624 |    00006E33  A$usb$625
     00006E36  A$usb$626 |    00006E37  A$usb$630 |    00006E37  C$usb.c$1
     00006E3A  A$usb$631 |    00006E3C  A$usb$632 |    00006E3D  A$usb$633
     00006E40  A$usb$634 |    00006E41  A$usb$638 |    00006E41  C$usb.c$1
ASxxxx Linker V03.00 + NoICE + sdld,  page 99.
Hexadecimal  [32-Bits]

Area                       Addr        Size        Decimal Bytes (Attributes)
--------------------       ----        ----        ------- ----- ------------
_CODE                  00000000    000084DB =       34011. bytes (REL,CON)

        Value  Global            Value  Global            Value  Global    
        -----  ------            -----  ------            -----  ------    
     00006E45  A$usb$640 |    00006E48  A$usb$641 |    00006E4B  A$usb$642
     00006E4D  A$usb$646 |    00006E4D  C$usb.c$1 |    00006E50  A$usb$647
     00006E53  A$usb$648 |    00006E56  A$usb$649 |    00006E59  A$usb$650
     00006E5B  A$usb$651 |    00006E5E  A$usb$652 |    00006E61  A$usb$653
     00006E64  A$usb$654 |    00006E65  A$usb$658 |    00006E65  C$usb.c$1
     00006E66  A$usb$659 |    00006E67  A$usb$660 |    00006E69  A$usb$661
     00006E6A  A$usb$662 |    00006E6B  A$usb$663 |    00006E6E  A$usb$664
     00006E6F  A$usb$668 |    00006E6F  C$usb.c$1 |    00006E72  A$usb$669
     00006E74  A$usb$674 |    00006E74  C$usb.c$1 |    00006E77  A$usb$675
     00006E79  A$usb$676 |    00006E7A  A$usb$677 |    00006E7D  A$usb$681
     00006E7D  C$usb.c$1 |    00006E80  A$usb$682 |    00006E81  A$usb$683
     00006E84  A$usb$687 |    00006E84  C$usb.c$1 |    00006E87  A$usb$688
     00006E88  A$usb$689 |    00006E8B  A$usb$690 |    00006E8C  A$usb$695
     00006E8C  C$usb.c$1 |    00006E8E  A$usb$696 |    00006E8F  A$usb$697
     00006E90  A$usb$698 |    00006E93  A$usb$699 |    00006E94  A$usb$700
     00006E96  A$usb$701 |    00006E98  A$usb$705 |    00006E98  C$usb.c$1
     00006E9A  A$usb$706 |    00006E9B  A$usb$707 |    00006E9C  A$usb$708
     00006E9F  A$usb$709 |    00006EA0  A$usb$710 |    00006EA2  A$usb$711
     00006EA4  A$usb$715 |    00006EA4  C$usb.c$1 |    00006EA6  A$usb$716
     00006EA7  A$usb$717 |    00006EA8  A$usb$718 |    00006EAB  A$usb$719
     00006EAC  A$usb$723 |    00006EAC  C$usb.c$1 |    00006EAF  A$usb$724
     00006EB2  A$usb$725 |    00006EB4  A$usb$726 |    00006EB6  A$usb$727
     00006EB8  A$usb$728 |    00006EBA  A$usb$733 |    00006EBA  C$usb.c$1
     00006EBD  A$usb$735 |    00006EBE  A$usb$736 |    00006EBF  A$usb$737
     00006EC0  A$usb$738 |    00006EC1  A$usb$739 |    00006EC2  A$usb$740
     00006EC3  A$usb$741 |    00006EC4  A$usb$742 |    00006EC5  A$usb$743
     00006EC7  A$usb$744 |    00006ECA  A$usb$749 |    00006ECA  C$usb.c$1
     00006ECC  A$usb$754 |    00006ECE  A$usb$755 |    00006ED0  A$usb$760
     00006ED0  C$usb.c$1 |    00006ED0  XG$_usbOu |    00006ED1  Fusb$__st
     00006EE1  Fusb$__st |    00006EE7  Fusb$__st |    00006EF9  A$usb$782
     00006EF9  C$usb.c$1 |    00006EF9  G$getDesc |    00006EF9  _getDescr
     00006EFB  A$usb$783 |    00006EFF  A$usb$784 |    00006F01  A$usb$785
     00006F04  A$usb$786 |    00006F05  A$usb$787 |    00006F06  A$usb$791
     00006F06  C$usb.c$1 |    00006F09  A$usb$792 |    00006F0A  A$usb$793
     00006F0B  A$usb$794 |    00006F0C  A$usb$795 |    00006F0E  A$usb$796
     00006F0F  A$usb$797 |    00006F10  A$usb$798 |    00006F11  A$usb$799
     00006F13  A$usb$800 |    00006F14  A$usb$801 |    00006F15  A$usb$802
     00006F16  A$usb$803 |    00006F17  A$usb$804 |    00006F1A  A$usb$805
     00006F1B  A$usb$806 |    00006F1C  A$usb$807 |    00006F1D  A$usb$808
     00006F1E  A$usb$809 |    00006F1F  A$usb$810 |    00006F20  A$usb$811
     00006F23  A$usb$812 |    00006F24  A$usb$813 |    00006F27  A$usb$814
     00006F28  A$usb$815 |    00006F2A  A$usb$816 |    00006F2D  A$usb$817
     00006F2E  A$usb$818 |    00006F30  A$usb$819 |    00006F33  A$usb$820
     00006F34  A$usb$821 |    00006F37  A$usb$822 |    00006F38  A$usb$823
     00006F3B  A$usb$824 |    00006F3C  A$usb$825 |    00006F3F  A$usb$826
     00006F40  A$usb$830 |    00006F40  C$usb.c$1 |    00006F43  A$usb$831
     00006F45  A$usb$832 |    00006F47  A$usb$833 |    00006F4A  A$usb$834
     00006F4C  A$usb$836 |    00006F4F  A$usb$838 |    00006F52  A$usb$842
     00006F52  C$usb.c$1 |    00006F56  A$usb$846 |    00006F56  C$usb.c$1
     00006F58  A$usb$847 |    00006F59  A$usb$848 |    00006F5A  A$usb$849
     00006F5B  A$usb$850 |    00006F5E  A$usb$851 |    00006F5F  A$usb$852
ASxxxx Linker V03.00 + NoICE + sdld,  page 100.
Hexadecimal  [32-Bits]

Area                       Addr        Size        Decimal Bytes (Attributes)
--------------------       ----        ----        ------- ----- ------------
_CODE                  00000000    000084DB =       34011. bytes (REL,CON)

        Value  Global            Value  Global            Value  Global    
        -----  ------            -----  ------            -----  ------    
     00006F62  A$usb$853 |    00006F63  A$usb$854 |    00006F64  A$usb$855
     00006F67  A$usb$856 |    00006F68  A$usb$857 |    00006F69  A$usb$858
     00006F6A  A$usb$859 |    00006F6D  A$usb$860 |    00006F6E  A$usb$861
     00006F6F  A$usb$862 |    00006F72  A$usb$866 |    00006F72  C$usb.c$1
     00006F75  A$usb$867 |    00006F78  A$usb$868 |    00006F7B  A$usb$869
     00006F7E  A$usb$871 |    00006F81  A$usb$872 |    00006F82  A$usb$873
     00006F85  A$usb$877 |    00006F85  C$usb.c$2 |    00006F88  A$usb$878
     00006F8B  A$usb$879 |    00006F8C  A$usb$880 |    00006F8E  A$usb$881
     00006F91  A$usb$882 |    00006F92  A$usb$883 |    00006F93  A$usb$884
     00006F94  A$usb$885 |    00006F95  A$usb$886 |    00006F96  A$usb$887
     00006F99  A$usb$888 |    00006F9A  A$usb$889 |    00006F9B  A$usb$890
     00006F9E  A$usb$891 |    00006F9F  A$usb$892 |    00006FA0  A$usb$893
     00006FA1  A$usb$900 |    00006FA1  C$usb.c$2 |    00006FA1  C$usb.c$2
     00006FA2  A$usb$901 |    00006FA4  A$usb$902 |    00006FA5  A$usb$903
     00006FA8  A$usb$908 |    00006FA8  C$usb.c$2 |    00006FAB  A$usb$909
     00006FAC  A$usb$910 |    00006FAE  A$usb$911 |    00006FB1  A$usb$912
     00006FB4  A$usb$913 |    00006FB5  A$usb$914 |    00006FB8  A$usb$919
     00006FB8  C$usb.c$2 |    00006FBB  A$usb$920 |    00006FBD  A$usb$921
     00006FBF  A$usb$922 |    00006FC0  A$usb$923 |    00006FC3  A$usb$924
     00006FC6  A$usb$925 |    00006FC9  A$usb$926 |    00006FCD  A$usb$927
     00006FD1  A$usb$928 |    00006FD3  A$usb$929 |    00006FD6  A$usb$930
     00006FD8  A$usb$932 |    00006FDB  A$usb$934 |    00006FDE  A$usb$935
     00006FDF  A$usb$936 |    00006FE2  A$usb$940 |    00006FE2  C$usb.c$2
     00006FE6  A$usb$941 |    00006FE8  A$usb$942 |    00006FEC  A$usb$943
     00006FF0  A$usb$944 |    00006FF2  A$usb$946 |    00006FF5  A$usb$947
     00006FF8  A$usb$948 |    00006FFB  A$usb$949 |    00006FFE  A$usb$951
     00007001  A$usb$952 |    00007004  A$usb$953 |    00007007  A$usb$954
     0000700A  A$usb$955 |    0000700D  A$usb$956 |    00007010  A$usb$957
     00007013  A$usb$958 |    00007016  A$usb$963 |    00007016  C$usb.c$2
     00007019  A$usb$965 |    0000701C  A$usb$966 |    0000701E  A$usb$967
     0000701F  A$usb$968 |    00007020  A$usb$969 |    00007021  A$usb$970
     00007022  A$usb$971 |    00007024  A$usb$972 |    00007025  A$usb$973
     00007027  A$usb$978 |    00007027  C$usb.c$2 |    0000702A  A$usb$979
     0000702C  A$usb$984 |    0000702C  C$usb.c$2 |    0000702E  A$usb$989
     00007030  A$usb$990 |    00007032  A$usb$995 |    00007032  C$usb.c$2
     00007032  XG$getDes |    00007033  Fusb$__st |    0000703F  Fusb$__st
     00007051  Fusb$__st |    00007057  A$usb$101 |    00007057  C$usb.c$2
     00007057  G$setAddr |    00007057  _setAddre |    0000705A  A$usb$101
     0000705B  A$usb$101 |    0000705C  A$usb$102 |    0000705C  C$usb.c$2
     0000705F  A$usb$102 |    00007060  A$usb$102 |    00007061  A$usb$102
     00007062  A$usb$102 |    00007063  A$usb$102 |    00007064  A$usb$102
     00007065  A$usb$103 |    00007066  A$usb$103 |    00007068  A$usb$103
     00007069  A$usb$103 |    0000706A  A$usb$103 |    0000706B  A$usb$103
     0000706C  A$usb$103 |    0000706F  A$usb$103 |    00007070  A$usb$103
     00007071  A$usb$103 |    00007072  A$usb$104 |    00007073  A$usb$104
     00007074  A$usb$104 |    00007075  A$usb$104 |    00007076  A$usb$104
     00007077  A$usb$104 |    00007078  A$usb$104 |    00007079  A$usb$104
     0000707C  A$usb$104 |    0000707D  A$usb$104 |    0000707F  A$usb$105
     00007082  A$usb$105 |    00007083  A$usb$105 |    00007085  A$usb$105
     00007088  A$usb$105 |    00007089  A$usb$105 |    0000708B  A$usb$105
     0000708E  A$usb$105 |    0000708F  A$usb$105 |    00007091  A$usb$106
ASxxxx Linker V03.00 + NoICE + sdld,  page 101.
Hexadecimal  [32-Bits]

Area                       Addr        Size        Decimal Bytes (Attributes)
--------------------       ----        ----        ------- ----- ------------
_CODE                  00000000    000084DB =       34011. bytes (REL,CON)

        Value  Global            Value  Global            Value  Global    
        -----  ------            -----  ------            -----  ------    
     00007091  C$usb.c$2 |    00007093  A$usb$106 |    00007094  A$usb$106
     00007095  A$usb$106 |    00007096  A$usb$106 |    00007099  A$usb$106
     0000709A  A$usb$106 |    0000709B  A$usb$106 |    0000709C  A$usb$107
     0000709D  A$usb$107 |    000070A0  A$usb$107 |    000070A1  A$usb$107
     000070A2  A$usb$107 |    000070A3  A$usb$107 |    000070A4  A$usb$107
     000070A5  A$usb$107 |    000070A7  A$usb$108 |    000070A7  C$usb.c$2
     000070AA  A$usb$108 |    000070AB  A$usb$108 |    000070AC  A$usb$108
     000070AD  A$usb$108 |    000070AE  A$usb$108 |    000070AF  A$usb$108
     000070B2  A$usb$108 |    000070B3  A$usb$108 |    000070B6  A$usb$109
     000070B7  A$usb$109 |    000070B8  A$usb$109 |    000070B9  A$usb$109
     000070BA  A$usb$109 |    000070BC  A$usb$109 |    000070BC  C$usb.c$2
     000070BE  A$usb$109 |    000070C0  A$usb$110 |    000070C0  C$usb.c$2
     000070C2  A$usb$110 |    000070C4  A$usb$111 |    000070C4  C$usb.c$2
     000070C6  A$usb$111 |    000070C7  A$usb$111 |    000070C8  A$usb$111
     000070C9  A$usb$111 |    000070CA  A$usb$112 |    000070CA  C$usb.c$2
     000070CA  XG$setAdd |    000070CB  Fusb$__st |    000070D7  A$usb$113
     000070D7  C$usb.c$2 |    000070D7  G$usbGetS |    000070D7  _usbGetSt
     000070D9  A$usb$113 |    000070DD  A$usb$113 |    000070DF  A$usb$114
     000070E0  A$usb$114 |    000070E1  A$usb$114 |    000070E1  C$usb.c$2
     000070E4  A$usb$114 |    000070E6  A$usb$114 |    000070E7  A$usb$114
     000070EA  A$usb$114 |    000070EB  A$usb$115 |    000070EC  A$usb$115
     000070EF  A$usb$115 |    000070F0  A$usb$115 |    000070F3  A$usb$115
     000070F6  A$usb$115 |    000070F7  A$usb$115 |    000070FA  A$usb$115
     000070FB  A$usb$115 |    000070FC  A$usb$115 |    000070FD  A$usb$116
     000070FE  A$usb$116 |    000070FF  A$usb$116 |    00007100  A$usb$116
     00007102  A$usb$116 |    00007102  C$usb.c$2 |    00007105  A$usb$116
     00007108  A$usb$117 |    00007108  C$usb.c$2 |    00007109  A$usb$117
     0000710B  A$usb$117 |    0000710C  A$usb$117 |    0000710F  A$usb$117
     00007110  A$usb$117 |    00007112  A$usb$117 |    00007115  A$usb$118
     00007116  A$usb$118 |    00007117  A$usb$118 |    00007118  A$usb$118
     0000711C  A$usb$119 |    0000711C  C$usb.c$2 |    0000711F  A$usb$119
     00007122  A$usb$119 |    00007125  A$usb$119 |    00007128  A$usb$119
     0000712A  A$usb$119 |    0000712D  A$usb$120 |    00007130  A$usb$120
     00007131  A$usb$120 |    00007133  A$usb$120 |    00007133  C$usb.c$2
     00007136  A$usb$120 |    00007138  A$usb$120 |    00007139  A$usb$120
     0000713A  A$usb$121 |    0000713B  A$usb$121 |    0000713C  A$usb$121
     0000713D  A$usb$121 |    00007140  A$usb$121 |    00007143  A$usb$121
     00007144  A$usb$121 |    00007144  C$usb.c$2 |    00007147  A$usb$122
     00007149  A$usb$122 |    00007149  C$usb.c$2 |    0000714C  A$usb$122
     0000714F  A$usb$122 |    00007151  A$usb$123 |    00007151  C$usb.c$2
     00007154  A$usb$123 |    00007157  A$usb$123 |    00007159  A$usb$123
     00007159  C$usb.c$2 |    0000715C  A$usb$123 |    0000715F  A$usb$124
     00007161  A$usb$124 |    00007161  C$usb.c$2 |    00007163  A$usb$124
     00007165  A$usb$125 |    00007165  C$usb.c$2 |    00007165  XG$usbGet
     00007166  Fusb$__st |    0000716F  A$usb$126 |    0000716F  C$usb.c$2
     0000716F  G$setConf |    0000716F  _setConfi |    00007172  A$usb$126
     00007173  A$usb$127 |    00007174  A$usb$127 |    00007174  C$usb.c$2
     00007177  A$usb$127 |    00007178  A$usb$127 |    00007179  A$usb$127
     0000717A  A$usb$127 |    0000717B  A$usb$127 |    0000717C  A$usb$128
     0000717D  A$usb$128 |    0000717E  A$usb$128 |    00007180  A$usb$128
     00007181  A$usb$128 |    00007182  A$usb$128 |    00007183  A$usb$128
ASxxxx Linker V03.00 + NoICE + sdld,  page 102.
Hexadecimal  [32-Bits]

Area                       Addr        Size        Decimal Bytes (Attributes)
--------------------       ----        ----        ------- ----- ------------
_CODE                  00000000    000084DB =       34011. bytes (REL,CON)

        Value  Global            Value  Global            Value  Global    
        -----  ------            -----  ------            -----  ------    
     00007184  A$usb$128 |    00007187  A$usb$128 |    00007188  A$usb$128
     00007189  A$usb$129 |    0000718A  A$usb$129 |    0000718B  A$usb$129
     0000718C  A$usb$129 |    0000718D  A$usb$129 |    0000718E  A$usb$129
     0000718F  A$usb$129 |    00007190  A$usb$129 |    00007191  A$usb$129
     00007194  A$usb$129 |    00007195  A$usb$130 |    00007197  A$usb$130
     0000719A  A$usb$130 |    0000719B  A$usb$130 |    0000719D  A$usb$130
     000071A0  A$usb$130 |    000071A1  A$usb$130 |    000071A3  A$usb$130
     000071A6  A$usb$130 |    000071A7  A$usb$130 |    000071A9  A$usb$131
     000071A9  C$usb.c$2 |    000071AB  A$usb$131 |    000071AC  A$usb$131
     000071AD  A$usb$131 |    000071AE  A$usb$131 |    000071B1  A$usb$131
     000071B2  A$usb$131 |    000071B5  A$usb$132 |    000071B6  A$usb$132
     000071B7  A$usb$132 |    000071B8  A$usb$132 |    000071B9  A$usb$132
     000071BC  A$usb$132 |    000071BD  A$usb$132 |    000071BE  A$usb$132
     000071BF  A$usb$132 |    000071C0  A$usb$132 |    000071C1  A$usb$133
     000071C3  A$usb$133 |    000071C3  C$usb.c$2 |    000071C6  A$usb$133
     000071C7  A$usb$133 |    000071C8  A$usb$133 |    000071C9  A$usb$133
     000071CA  A$usb$133 |    000071CB  A$usb$134 |    000071CE  A$usb$134
     000071CF  A$usb$134 |    000071D2  A$usb$134 |    000071D3  A$usb$134
     000071D4  A$usb$134 |    000071D5  A$usb$134 |    000071D6  A$usb$134
     000071D8  A$usb$135 |    000071D8  C$usb.c$2 |    000071DA  A$usb$135
     000071DC  A$usb$135 |    000071DC  C$usb.c$2 |    000071DE  A$usb$135
     000071E0  A$usb$136 |    000071E0  C$usb.c$2 |    000071E2  A$usb$136
     000071E3  A$usb$136 |    000071E4  A$usb$137 |    000071E5  A$usb$137
     000071E6  A$usb$137 |    000071E6  C$usb.c$2 |    000071E6  XG$setCon
     000071E7  Fusb$__st |    000071F2  A$usb$139 |    000071F2  C$usb.c$2
     000071F2  G$enumera |    000071F2  _enumerat |    000071F4  A$usb$139
     000071F8  A$usb$139 |    000071FA  A$usb$139 |    000071FD  A$usb$139
     000071FE  A$usb$139 |    000071FF  A$usb$139 |    000071FF  C$usb.c$2
     00007202  A$usb$140 |    00007203  A$usb$140 |    00007204  A$usb$140
     00007205  A$usb$140 |    00007208  A$usb$140 |    00007209  A$usb$140
     0000720A  A$usb$140 |    0000720D  A$usb$140 |    0000720E  A$usb$140
     0000720F  A$usb$141 |    00007210  A$usb$141 |    00007211  A$usb$141
     00007213  A$usb$141 |    00007213  C$usb.c$2 |    00007214  A$usb$141
     00007216  A$usb$141 |    00007217  A$usb$141 |    00007218  A$usb$142
     0000721B  A$usb$142 |    0000721C  A$usb$142 |    0000721E  A$usb$142
     0000721F  A$usb$142 |    00007220  A$usb$142 |    00007221  A$usb$142
     00007222  A$usb$142 |    00007224  A$usb$142 |    00007227  A$usb$142
     00007228  A$usb$143 |    00007229  A$usb$143 |    0000722A  A$usb$143
     0000722B  A$usb$143 |    0000722C  A$usb$143 |    0000722D  A$usb$143
     0000722E  A$usb$143 |    0000722F  A$usb$143 |    00007231  A$usb$144
     00007231  C$usb.c$2 |    00007232  A$usb$144 |    00007233  A$usb$144
     00007235  A$usb$144 |    00007236  A$usb$144 |    00007238  A$usb$144
     0000723A  A$usb$145 |    0000723A  C$usb.c$2 |    0000723B  A$usb$145
     0000723C  A$usb$145 |    0000723F  A$usb$145 |    00007242  A$usb$145
     00007242  C$usb.c$2 |    00007243  A$usb$145 |    00007245  A$usb$146
     00007245  C$usb.c$2 |    00007246  A$usb$146 |    00007248  A$usb$146
     00007249  A$usb$146 |    0000724C  A$usb$147 |    0000724C  C$usb.c$3
     0000724F  A$usb$147 |    00007252  A$usb$147 |    00007255  A$usb$147
     00007256  A$usb$147 |    00007257  A$usb$147 |    00007258  A$usb$147
     00007259  A$usb$147 |    0000725C  A$usb$147 |    0000725F  A$usb$148
     00007260  A$usb$148 |    00007263  A$usb$148 |    00007264  A$usb$148
ASxxxx Linker V03.00 + NoICE + sdld,  page 103.
Hexadecimal  [32-Bits]

Area                       Addr        Size        Decimal Bytes (Attributes)
--------------------       ----        ----        ------- ----- ------------
_CODE                  00000000    000084DB =       34011. bytes (REL,CON)

        Value  Global            Value  Global            Value  Global    
        -----  ------            -----  ------            -----  ------    
     00007265  A$usb$148 |    00007266  A$usb$148 |    00007269  A$usb$148
     0000726A  A$usb$148 |    0000726B  A$usb$148 |    0000726E  A$usb$148
     0000726F  A$usb$149 |    00007270  A$usb$149 |    00007273  A$usb$149
     00007276  A$usb$149 |    00007279  A$usb$149 |    0000727A  A$usb$149
     0000727D  A$usb$149 |    0000727E  A$usb$149 |    0000727F  A$usb$149
     00007282  A$usb$149 |    00007285  A$usb$150 |    00007286  A$usb$150
     00007287  A$usb$150 |    0000728A  A$usb$150 |    0000728B  A$usb$150
     0000728E  A$usb$150 |    0000728F  A$usb$150 |    00007290  A$usb$151
     00007290  C$usb.c$3 |    00007293  A$usb$151 |    00007296  A$usb$151
     00007299  A$usb$151 |    0000729A  A$usb$151 |    0000729B  A$usb$151
     0000729E  A$usb$151 |    0000729E  C$usb.c$3 |    000072A1  A$usb$152
     000072A4  A$usb$152 |    000072A7  A$usb$152 |    000072A8  A$usb$152
     000072A9  A$usb$152 |    000072AC  A$usb$152 |    000072AC  C$usb.c$3
     000072AF  A$usb$152 |    000072B2  A$usb$153 |    000072B5  A$usb$153
     000072B6  A$usb$153 |    000072B7  A$usb$153 |    000072B7  C$usb.c$3
     000072B8  A$usb$153 |    000072B9  A$usb$153 |    000072BC  A$usb$153
     000072BD  A$usb$154 |    000072BE  A$usb$154 |    000072BE  C$usb.c$3
     000072BF  A$usb$154 |    000072C0  A$usb$154 |    000072C1  A$usb$154
     000072C2  A$usb$154 |    000072C4  A$usb$154 |    000072C5  A$usb$155
     000072C6  A$usb$155 |    000072C7  A$usb$155 |    000072CA  A$usb$155
     000072CB  A$usb$155 |    000072CC  A$usb$155 |    000072CD  A$usb$155
     000072CE  A$usb$155 |    000072CF  A$usb$156 |    000072CF  C$usb.c$3
     000072D0  A$usb$156 |    000072D2  A$usb$156 |    000072D3  A$usb$156
     000072D6  A$usb$156 |    000072D6  C$usb.c$3 |    000072D9  A$usb$157
     000072DA  A$usb$157 |    000072DC  A$usb$157 |    000072DC  C$usb.c$3
     000072DF  A$usb$157 |    000072E0  A$usb$157 |    000072E3  A$usb$157
     000072E6  A$usb$157 |    000072E7  A$usb$158 |    000072E8  A$usb$158
     000072EB  A$usb$158 |    000072EE  A$usb$158 |    000072EF  A$usb$158
     000072F0  A$usb$158 |    000072F2  A$usb$158 |    000072F3  A$usb$158
     000072F4  A$usb$158 |    000072F7  A$usb$158 |    000072FA  A$usb$159
     000072FB  A$usb$159 |    000072FD  A$usb$159 |    000072FE  A$usb$159
     000072FF  A$usb$159 |    00007302  A$usb$159 |    00007305  A$usb$159
     00007306  A$usb$159 |    00007309  A$usb$159 |    0000730A  A$usb$159
     0000730B  A$usb$160 |    0000730E  A$usb$160 |    0000730F  A$usb$160
     00007310  A$usb$160 |    00007311  A$usb$160 |    00007312  A$usb$160
     00007315  A$usb$160 |    00007318  A$usb$160 |    0000731B  A$usb$160
     0000731E  A$usb$160 |    00007321  A$usb$161 |    00007324  A$usb$161
     00007327  A$usb$161 |    00007328  A$usb$161 |    0000732B  A$usb$161
     0000732C  A$usb$161 |    0000732F  A$usb$161 |    00007332  A$usb$161
     00007333  A$usb$161 |    00007336  A$usb$161 |    00007339  A$usb$162
     0000733A  A$usb$162 |    0000733B  A$usb$162 |    0000733E  A$usb$162
     0000733F  A$usb$162 |    00007342  A$usb$162 |    00007343  A$usb$162
     00007344  A$usb$162 |    00007345  A$usb$163 |    00007345  C$usb.c$3
     00007348  A$usb$163 |    00007349  A$usb$163 |    0000734B  A$usb$163
     0000734B  C$usb.c$3 |    0000734E  A$usb$163 |    0000734F  A$usb$164
     00007350  A$usb$164 |    00007352  A$usb$164 |    00007353  A$usb$164
     00007354  A$usb$164 |    00007356  A$usb$164 |    00007357  A$usb$164
     00007358  A$usb$164 |    00007359  A$usb$164 |    0000735B  A$usb$164
     0000735C  A$usb$165 |    0000735D  A$usb$165 |    0000735F  A$usb$165
     00007362  A$usb$165 |    00007363  A$usb$165 |    00007364  A$usb$165
     00007367  A$usb$165 |    00007368  A$usb$165 |    00007369  A$usb$165
ASxxxx Linker V03.00 + NoICE + sdld,  page 104.
Hexadecimal  [32-Bits]

Area                       Addr        Size        Decimal Bytes (Attributes)
--------------------       ----        ----        ------- ----- ------------
_CODE                  00000000    000084DB =       34011. bytes (REL,CON)

        Value  Global            Value  Global            Value  Global    
        -----  ------            -----  ------            -----  ------    
     0000736A  A$usb$165 |    0000736B  A$usb$166 |    0000736E  A$usb$166
     00007371  A$usb$166 |    00007374  A$usb$166 |    00007377  A$usb$166
     0000737A  A$usb$166 |    0000737D  A$usb$166 |    00007380  A$usb$166
     00007381  A$usb$166 |    00007384  A$usb$166 |    00007385  A$usb$167
     00007388  A$usb$167 |    0000738B  A$usb$167 |    0000738C  A$usb$167
     0000738F  A$usb$167 |    00007392  A$usb$167 |    00007393  A$usb$167
     00007394  A$usb$167 |    00007397  A$usb$167 |    00007398  A$usb$167
     0000739B  A$usb$168 |    0000739C  A$usb$168 |    0000739D  A$usb$168
     0000739E  A$usb$168 |    0000739E  C$usb.c$3 |    0000739F  A$usb$168
     000073A0  A$usb$168 |    000073A2  A$usb$169 |    000073A2  C$usb.c$3
     000073A5  A$usb$169 |    000073A6  A$usb$169 |    000073A7  A$usb$169
     000073A9  A$usb$169 |    000073AA  A$usb$169 |    000073AC  A$usb$169
     000073AD  A$usb$170 |    000073AE  A$usb$170 |    000073AF  A$usb$170
     000073B1  A$usb$170 |    000073B2  A$usb$170 |    000073B3  A$usb$170
     000073B5  A$usb$170 |    000073B6  A$usb$170 |    000073B7  A$usb$170
     000073B8  A$usb$170 |    000073BB  A$usb$171 |    000073BC  A$usb$171
     000073BD  A$usb$171 |    000073BE  A$usb$171 |    000073BF  A$usb$171
     000073C0  A$usb$171 |    000073C3  A$usb$171 |    000073C6  A$usb$171
     000073C7  A$usb$171 |    000073C8  A$usb$171 |    000073CB  A$usb$172
     000073CE  A$usb$172 |    000073CF  A$usb$172 |    000073D0  A$usb$172
     000073D3  A$usb$172 |    000073D4  A$usb$172 |    000073D7  A$usb$172
     000073D8  A$usb$172 |    000073D9  A$usb$173 |    000073D9  C$usb.c$3
     000073DA  A$usb$173 |    000073DB  A$usb$173 |    000073DC  A$usb$173
     000073DF  A$usb$173 |    000073E0  A$usb$173 |    000073E2  A$usb$173
     000073E3  A$usb$173 |    000073E5  A$usb$174 |    000073E6  A$usb$174
     000073E7  A$usb$174 |    000073E8  A$usb$174 |    000073EB  A$usb$174
     000073EC  A$usb$174 |    000073ED  A$usb$174 |    000073EE  A$usb$174
     000073EF  A$usb$174 |    000073F0  A$usb$174 |    000073F1  A$usb$175
     000073F1  C$usb.c$3 |    000073F2  A$usb$175 |    000073F4  A$usb$175
     000073F5  A$usb$175 |    000073F8  A$usb$176 |    000073F8  C$usb.c$3
     000073F9  A$usb$176 |    000073FA  A$usb$176 |    000073FA  C$usb.c$3
     000073FD  A$usb$176 |    00007400  A$usb$176 |    00007401  A$usb$176
     00007402  A$usb$177 |    00007403  A$usb$177 |    00007404  A$usb$177
     00007405  A$usb$177 |    00007406  A$usb$177 |    00007406  C$usb.c$3
     00007409  A$usb$177 |    0000740C  A$usb$177 |    0000740D  A$usb$178
     0000740E  A$usb$178 |    0000740F  A$usb$178 |    00007410  A$usb$178
     00007411  A$usb$178 |    00007412  A$usb$178 |    00007415  A$usb$178
     00007415  C$usb.c$3 |    00007417  A$usb$179 |    00007418  A$usb$179
     00007419  A$usb$179 |    0000741A  A$usb$179 |    0000741B  A$usb$179
     0000741E  A$usb$179 |    0000741F  A$usb$179 |    00007421  A$usb$179
     00007422  A$usb$179 |    00007423  A$usb$179 |    00007424  A$usb$180
     00007427  A$usb$180 |    00007428  A$usb$180 |    00007429  A$usb$180
     0000742A  A$usb$180 |    0000742B  A$usb$180 |    0000742C  A$usb$180
     0000742D  A$usb$181 |    0000742D  C$usb.c$3 |    0000742E  A$usb$181
     00007430  A$usb$181 |    00007431  A$usb$181 |    00007434  A$usb$181
     00007434  C$usb.c$3 |    00007435  A$usb$181 |    00007436  A$usb$182
     00007439  A$usb$182 |    0000743C  A$usb$182 |    0000743D  A$usb$182
     0000743F  A$usb$182 |    00007440  A$usb$182 |    00007441  A$usb$182
     00007441  C$usb.c$3 |    00007442  A$usb$183 |    00007444  A$usb$183
     00007447  A$usb$183 |    00007449  A$usb$183 |    0000744B  A$usb$183
     0000744C  A$usb$183 |    0000744E  A$usb$183 |    00007451  A$usb$183
ASxxxx Linker V03.00 + NoICE + sdld,  page 105.
Hexadecimal  [32-Bits]

Area                       Addr        Size        Decimal Bytes (Attributes)
--------------------       ----        ----        ------- ----- ------------
_CODE                  00000000    000084DB =       34011. bytes (REL,CON)

        Value  Global            Value  Global            Value  Global    
        -----  ------            -----  ------            -----  ------    
     00007452  A$usb$183 |    00007454  A$usb$183 |    00007455  A$usb$184
     00007457  A$usb$184 |    0000745A  A$usb$184 |    0000745B  A$usb$184
     0000745D  A$usb$184 |    0000745D  C$usb.c$3 |    0000745F  A$usb$184
     00007461  A$usb$185 |    00007461  C$usb.c$3 |    00007464  A$usb$185
     00007467  A$usb$185 |    00007468  A$usb$185 |    0000746B  A$usb$185
     0000746C  A$usb$185 |    0000746E  A$usb$186 |    00007471  A$usb$186
     00007472  A$usb$186 |    00007472  C$usb.c$3 |    00007473  A$usb$186
     00007474  A$usb$186 |    00007475  A$usb$186 |    00007476  A$usb$187
     00007478  A$usb$187 |    0000747A  A$usb$187 |    0000747A  C$usb.c$3
     0000747D  A$usb$187 |    00007480  A$usb$187 |    00007481  A$usb$187
     00007484  A$usb$187 |    00007485  A$usb$188 |    00007487  A$usb$188
     0000748A  A$usb$188 |    0000748B  A$usb$188 |    0000748D  A$usb$188
     0000748D  C$usb.c$3 |    00007490  A$usb$188 |    00007492  A$usb$189
     00007493  A$usb$189 |    00007494  A$usb$189 |    00007497  A$usb$189
     00007498  A$usb$189 |    00007499  A$usb$189 |    0000749A  A$usb$189
     0000749C  A$usb$189 |    0000749E  A$usb$189 |    0000749F  A$usb$190
     0000749F  C$usb.c$3 |    000074A0  A$usb$190 |    000074A2  A$usb$190
     000074A5  A$usb$190 |    000074A6  A$usb$190 |    000074A9  A$usb$190
     000074AA  A$usb$191 |    000074AA  C$usb.c$3 |    000074AC  A$usb$191
     000074AE  A$usb$191 |    000074B0  A$usb$192 |    000074B0  C$usb.c$3
     000074B0  XG$enumer |    000074B1  Fusb$__st |    000074CC  Fusb$__st
     000074E6  Fusb$__st |    000074FA  Fusb$__st |    0000750A  Fusb$__st
     00007520  Fusb$__st |    00007533  Fusb$__st |    00007548  Fusb$__st
     00007558  Fusb$__st |    00007567  Fusb$__st |    00007581  Fusb$__st
     00007598  Fusb$__st |    000075AC  Fusb$__st |    000075E8  Fusb$__st
     00007612  Fusb$__st |    0000762F  Fusb$__st |    0000764F  A$usb$199
     0000764F  C$usb.c$3 |    0000764F  G$getRepo |    0000764F  _getRepor
     00007651  A$usb$199 |    00007655  A$usb$199 |    00007657  A$usb$200
     00007657  C$usb.c$3 |    0000765A  A$usb$200 |    0000765C  A$usb$200
     0000765D  A$usb$200 |    0000765E  A$usb$200 |    0000765F  A$usb$200
     00007660  A$usb$200 |    00007661  A$usb$201 |    00007663  A$usb$201
     00007666  A$usb$201 |    00007668  A$usb$201 |    00007668  C$usb.c$3
     0000766B  A$usb$201 |    0000766E  A$usb$201 |    00007671  A$usb$202
     00007674  A$usb$202 |    00007676  A$usb$202 |    00007676  C$usb.c$3
     00007679  A$usb$202 |    0000767B  A$usb$203 |    0000767B  C$usb.c$3
     0000767E  A$usb$203 |    00007681  A$usb$203 |    00007683  A$usb$204
     00007683  C$usb.c$3 |    00007683  XG$getRep |    00007684  A$usb$205
     00007684  C$usb.c$3 |    00007684  C$usb.c$3 |    00007684  G$usbProc
     00007684  _usbProce |    00007687  A$usb$205 |    0000768A  A$usb$205
     0000768B  A$usb$205 |    0000768C  A$usb$205 |    0000768D  A$usb$205
     0000768F  A$usb$206 |    0000768F  C$usb.c$3 |    00007692  A$usb$206
     00007695  A$usb$206 |    00007696  A$usb$206 |    00007697  A$usb$206
     0000769A  A$usb$206 |    0000769B  A$usb$206 |    0000769C  A$usb$207
     0000769D  A$usb$207 |    0000769E  A$usb$207 |    0000769F  A$usb$207
     0000769F  C$usb.c$3 |    000076A2  A$usb$207 |    000076A5  A$usb$207
     000076A6  A$usb$207 |    000076A8  A$usb$208 |    000076A8  C$usb.c$3
     000076A9  A$usb$208 |    000076A9  C$usb.c$3 |    000076AC  A$usb$208
     000076AF  A$usb$209 |    000076B0  A$usb$209 |    000076B1  A$usb$209
     000076B2  A$usb$209 |    000076B4  A$usb$209 |    000076B4  C$usb.c$3
     000076B7  A$usb$209 |    000076BA  A$usb$209 |    000076BB  A$usb$210
     000076BC  A$usb$210 |    000076BF  A$usb$210 |    000076C0  A$usb$210
ASxxxx Linker V03.00 + NoICE + sdld,  page 106.
Hexadecimal  [32-Bits]

Area                       Addr        Size        Decimal Bytes (Attributes)
--------------------       ----        ----        ------- ----- ------------
_CODE                  00000000    000084DB =       34011. bytes (REL,CON)

        Value  Global            Value  Global            Value  Global    
        -----  ------            -----  ------            -----  ------    
     000076C1  A$usb$210 |    000076C2  A$usb$210 |    000076C3  A$usb$210
     000076C4  A$usb$211 |    000076C4  C$usb.c$4 |    000076C7  A$usb$211
     000076C8  A$usb$211 |    000076CB  A$usb$211 |    000076CC  A$usb$211
     000076CF  A$usb$211 |    000076D0  A$usb$211 |    000076D1  A$usb$211
     000076D2  A$usb$211 |    000076D3  A$usb$212 |    000076D5  A$usb$212
     000076D5  C$usb.c$4 |    000076D8  A$usb$212 |    000076D9  A$usb$212
     000076DC  A$usb$212 |    000076DD  A$usb$212 |    000076DF  A$usb$213
     000076DF  C$usb.c$4 |    000076E2  A$usb$213 |    000076E3  A$usb$213
     000076E6  A$usb$213 |    000076E7  A$usb$213 |    000076E9  A$usb$214
     000076E9  C$usb.c$4 |    000076EC  A$usb$214 |    000076ED  A$usb$214
     000076F0  A$usb$214 |    000076F1  A$usb$214 |    000076F3  A$usb$214
     000076F3  C$usb.c$4 |    000076F6  A$usb$214 |    000076F7  A$usb$215
     000076FA  A$usb$215 |    000076FB  A$usb$215 |    000076FD  A$usb$215
     000076FD  C$usb.c$4 |    00007700  A$usb$215 |    00007701  A$usb$215
     00007704  A$usb$215 |    00007705  A$usb$216 |    00007707  A$usb$216
     00007707  C$usb.c$4 |    0000770A  A$usb$216 |    0000770B  A$usb$216
     0000770E  A$usb$216 |    0000770F  A$usb$216 |    00007711  A$usb$217
     00007711  C$usb.c$4 |    00007714  A$usb$217 |    00007715  A$usb$217
     00007718  A$usb$217 |    00007719  A$usb$217 |    0000771B  A$usb$218
     0000771B  C$usb.c$4 |    0000771E  A$usb$218 |    0000771F  A$usb$218
     00007722  A$usb$218 |    00007723  A$usb$218 |    00007724  A$usb$218
     00007724  C$usb.c$4 |    00007727  A$usb$219 |    0000772A  A$usb$219
     0000772B  A$usb$219 |    0000772C  A$usb$219 |    0000772F  A$usb$219
     00007730  A$usb$219 |    00007731  A$usb$219 |    00007732  A$usb$219
     00007733  A$usb$219 |    00007734  A$usb$220 |    00007736  A$usb$220
     00007737  A$usb$220 |    00007739  A$usb$220 |    0000773B  A$usb$220
     0000773B  C$usb.c$4 |    0000773E  A$usb$220 |    00007740  A$usb$220
     00007741  A$usb$221 |    00007741  C$usb.c$4 |    00007743  A$usb$221
     00007744  A$usb$221 |    00007745  A$usb$221 |    00007748  A$usb$221
     00007749  A$usb$221 |    0000774B  A$usb$222 |    0000774D  A$usb$222
     0000774D  C$usb.c$4 |    00007750  A$usb$222 |    00007753  A$usb$222
     00007754  A$usb$222 |    00007755  A$usb$222 |    00007756  A$usb$222
     00007757  A$usb$223 |    00007758  A$usb$223 |    00007759  A$usb$223
     0000775A  A$usb$223 |    0000775B  A$usb$223 |    0000775C  A$usb$223
     0000775D  A$usb$223 |    0000775F  A$usb$224 |    0000775F  C$usb.c$4
     00007762  A$usb$224 |    00007765  A$usb$224 |    00007766  A$usb$224
     00007767  A$usb$224 |    00007768  A$usb$224 |    00007769  A$usb$224
     0000776A  A$usb$225 |    0000776A  C$usb.c$4 |    0000776D  A$usb$225
     00007770  A$usb$225 |    00007771  A$usb$225 |    00007772  A$usb$225
     00007773  A$usb$225 |    00007774  A$usb$225 |    00007775  A$usb$225
     00007777  A$usb$226 |    00007778  A$usb$226 |    0000777A  A$usb$226
     0000777B  A$usb$226 |    0000777B  C$usb.c$4 |    0000777E  A$usb$226
     0000777F  A$usb$226 |    00007782  A$usb$226 |    00007783  A$usb$227
     00007783  C$usb.c$4 |    00007786  A$usb$227 |    00007789  A$usb$227
     0000778A  A$usb$227 |    0000778C  A$usb$228 |    0000778C  C$usb.c$4
     0000778F  A$usb$228 |    00007792  A$usb$228 |    00007793  A$usb$228
     00007795  A$usb$228 |    00007795  C$usb.c$4 |    00007798  A$usb$228
     0000779B  A$usb$228 |    0000779C  A$usb$229 |    0000779D  A$usb$229
     0000779E  A$usb$229 |    0000779F  A$usb$229 |    000077A0  A$usb$230
     000077A0  C$usb.c$4 |    000077A0  XG$usbPro |    000077A1  Fusb$__st
     000077D2  _vsprintf |    00007807  _sprintf  |    0000783B  _strncmp 
ASxxxx Linker V03.00 + NoICE + sdld,  page 107.
Hexadecimal  [32-Bits]

Area                       Addr        Size        Decimal Bytes (Attributes)
--------------------       ----        ----        ------- ----- ------------
_CODE                  00000000    000084DB =       34011. bytes (REL,CON)

        Value  Global            Value  Global            Value  Global    
        -----  ------            -----  ------            -----  ------    
     000078BF  ___sdcc_c |    000078C0  _puts     |    000078F3  _vprintf 
     00007913  _printf   |    00007930  _strlen   |    00007A5A  __print_f
     000084C1  __mulint  |    000084C7  __mul16  
ASxxxx Linker V03.00 + NoICE + sdld,  page 108.
Hexadecimal  [32-Bits]

Area                       Addr        Size        Decimal Bytes (Attributes)
--------------------       ----        ----        ------- ----- ------------
_VECT00                00000000    00000006 =           6. bytes (ABS,CON)

        Value  Global            Value  Global            Value  Global    
        -----  ------            -----  ------            -----  ------    
     00000000  A$_boot$2 |    00000003  A$_boot$2
ASxxxx Linker V03.00 + NoICE + sdld,  page 109.
Hexadecimal  [32-Bits]

Area                       Addr        Size        Decimal Bytes (Attributes)
--------------------       ----        ----        ------- ----- ------------
_VECT11                00000000    00000002 =           2. bytes (ABS,CON)

        Value  Global            Value  Global            Value  Global    
        -----  ------            -----  ------            -----  ------    
     00000008  A$_boot$3
ASxxxx Linker V03.00 + NoICE + sdld,  page 110.
Hexadecimal  [32-Bits]

Area                       Addr        Size        Decimal Bytes (Attributes)
--------------------       ----        ----        ------- ----- ------------
_VECT22                00000000    00000002 =           2. bytes (ABS,CON)

        Value  Global            Value  Global            Value  Global    
        -----  ------            -----  ------            -----  ------    
     00000010  A$_boot$3
ASxxxx Linker V03.00 + NoICE + sdld,  page 111.
Hexadecimal  [32-Bits]

Area                       Addr        Size        Decimal Bytes (Attributes)
--------------------       ----        ----        ------- ----- ------------
_VECT33                00000000    00000002 =           2. bytes (ABS,CON)

        Value  Global            Value  Global            Value  Global    
        -----  ------            -----  ------            -----  ------    
     00000018  A$_boot$4
ASxxxx Linker V03.00 + NoICE + sdld,  page 112.
Hexadecimal  [32-Bits]

Area                       Addr        Size        Decimal Bytes (Attributes)
--------------------       ----        ----        ------- ----- ------------
_VECT44                00000000    00000002 =           2. bytes (ABS,CON)

        Value  Global            Value  Global            Value  Global    
        -----  ------            -----  ------            -----  ------    
     00000020  A$_boot$4
ASxxxx Linker V03.00 + NoICE + sdld,  page 113.
Hexadecimal  [32-Bits]

Area                       Addr        Size        Decimal Bytes (Attributes)
--------------------       ----        ----        ------- ----- ------------
_VECT55                00000000    00000002 =           2. bytes (ABS,CON)

        Value  Global            Value  Global            Value  Global    
        -----  ------            -----  ------            -----  ------    
     00000028  A$_boot$4
ASxxxx Linker V03.00 + NoICE + sdld,  page 114.
Hexadecimal  [32-Bits]

Area                       Addr        Size        Decimal Bytes (Attributes)
--------------------       ----        ----        ------- ----- ------------
_VECT66                00000000    00000002 =           2. bytes (ABS,CON)

        Value  Global            Value  Global            Value  Global    
        -----  ------            -----  ------            -----  ------    
     00000030  A$_boot$5
ASxxxx Linker V03.00 + NoICE + sdld,  page 115.
Hexadecimal  [32-Bits]

Area                       Addr        Size        Decimal Bytes (Attributes)
--------------------       ----        ----        ------- ----- ------------
_VECT77                00000000    0000002D =          45. bytes (ABS,CON)

        Value  Global            Value  Global            Value  Global    
        -----  ------            -----  ------            -----  ------    
     00000038  A$_boot$5 |    0000003C  A$_boot$5 |    0000003F  A$_boot$5
     00000040  A$_boot$6 |    00000041  A$_boot$6 |    00000044  A$_boot$6
     00000045  A$_boot$6 |    00000046  A$_boot$6 |    0000004A  A$_boot$6
     0000004B  A$_boot$6
ASxxxx Linker V03.00 + NoICE + sdld,  page 116.
Hexadecimal  [32-Bits]

Area                       Addr        Size        Decimal Bytes (Attributes)
--------------------       ----        ----        ------- ----- ------------
_VECT_NMI8             00000000    00000026 =          38. bytes (ABS,CON)

        Value  Global            Value  Global            Value  Global    
        -----  ------            -----  ------            -----  ------    
     00000066  A$_boot$7 |    0000006A  A$_boot$7 |    0000006D  A$_boot$7
     0000006E  A$_boot$7 |    0000006F  A$_boot$8 |    00000072  A$_boot$8
     00000073  A$_boot$8 |    00000074  A$_boot$8 |    00000078  A$_boot$8
ASxxxx Linker V03.00 + NoICE + sdld,  page 117.
Hexadecimal  [32-Bits]

Area                       Addr        Size        Decimal Bytes (Attributes)
--------------------       ----        ----        ------- ----- ------------
_SYSTEM_CODE           000084DB    000001D8 =         472. bytes (REL,CON)

        Value  Global            Value  Global            Value  Global    
        -----  ------            -----  ------            -----  ------    
     000084DB  A$_boot$1 |    000084DC  A$_boot$1 |    000084DE  A$_boot$1
     000084E0  A$_boot$1 |    000084E3  A$_boot$1 |    000084E5  A$_boot$1
     000084E8  A$_boot$1 |    000084EA  A$_boot$1 |    000084ED  A$_boot$1
     000084F0  A$_boot$1 |    000084F2  A$_boot$1 |    000084F5  A$_boot$1
     000084F7  A$_boot$1 |    000084FA  A$_boot$1 |    000084FD  A$_boot$1
     00008500  A$_boot$1 |    00008501  A$_boot$1 |    00008502  A$_boot$1
     00008503  A$_boot$1 |    00008506  A$_boot$1 |    00008509  A$_boot$1
     0000850C  A$_boot$1 |    0000850D  A$_boot$1 |    0000850E  A$_boot$1
     00008512  A$_boot$1 |    00008516  A$_boot$1 |    00008517  A$_boot$1
     00008518  A$_boot$1 |    00008518  _OUT_     |    00008519  A$_boot$1
     0000851A  A$_boot$1 |    0000851C  A$_boot$1 |    00008520  A$_boot$1
     00008522  A$_boot$1 |    00008525  A$_boot$1 |    00008528  A$_boot$1
     0000852A  A$_boot$1 |    0000852C  A$_boot$2 |    0000852D  A$_boot$2
     0000852E  A$_boot$2 |    0000852F  A$_boot$2 |    0000852F  _IN_     
     00008530  A$_boot$2 |    00008531  A$_boot$2 |    00008533  A$_boot$2
     00008537  A$_boot$2 |    00008539  A$_boot$2 |    0000853C  A$_boot$2
     0000853E  A$_boot$2 |    00008540  A$_boot$2 |    00008541  A$_boot$2
     00008543  A$_boot$2 |    00008544  A$_boot$2 |    00008545  A$_boot$2
     00008546  A$_boot$2 |    00008546  _OUTI     |    00008547  A$_boot$2
     00008548  A$_boot$2 |    00008549  A$_boot$2 |    0000854B  A$_boot$2
     0000854F  A$_boot$2 |    00008551  A$_boot$2 |    00008554  A$_boot$2
     00008557  A$_boot$2 |    0000855A  A$_boot$2 |    0000855D  A$_boot$2
     0000855F  A$_boot$2 |    00008561  A$_boot$2 |    00008562  A$_boot$2
     00008563  A$_boot$2 |    00008564  A$_boot$2 |    00008565  A$_boot$2
     00008565  _INI      |    00008566  A$_boot$2 |    00008567  A$_boot$2
     00008568  A$_boot$2 |    0000856A  A$_boot$2 |    0000856E  A$_boot$2
     00008570  A$_boot$2 |    00008573  A$_boot$2 |    00008576  A$_boot$2
     00008579  A$_boot$2 |    0000857C  A$_boot$2 |    0000857E  A$_boot$2
     00008580  A$_boot$2 |    00008581  A$_boot$2 |    00008582  A$_boot$2
     00008583  A$_boot$2 |    00008584  A$_boot$2 |    00008584  _memset  
     00008585  A$_boot$2 |    00008586  A$_boot$2 |    00008587  A$_boot$2
     00008588  A$_boot$2 |    0000858A  A$_boot$2 |    0000858E  A$_boot$2
     00008590  A$_boot$2 |    00008593  A$_boot$2 |    00008596  A$_boot$2
     00008599  A$_boot$2 |    0000859C  A$_boot$2 |    0000859F  A$_boot$2
     000085A2  A$_boot$2 |    000085A5  A$_boot$2 |    000085A6  A$_boot$2
     000085A7  A$_boot$2 |    000085A8  A$_boot$2 |    000085A9  A$_boot$2
     000085AA  A$_boot$2 |    000085AC  A$_boot$2 |    000085AE  A$_boot$2
     000085B0  A$_boot$2 |    000085B0  _memcpy   |    000085B1  A$_boot$2
     000085B2  A$_boot$2 |    000085B3  A$_boot$2 |    000085B4  A$_boot$2
     000085B6  A$_boot$3 |    000085BA  A$_boot$3 |    000085BC  A$_boot$3
     000085BF  A$_boot$3 |    000085C2  A$_boot$3 |    000085C5  A$_boot$3
     000085C8  A$_boot$3 |    000085CB  A$_boot$3 |    000085CE  A$_boot$3
     000085CF  A$_boot$3 |    000085D0  A$_boot$3 |    000085D2  A$_boot$3
     000085D4  A$_boot$3 |    000085D6  A$_boot$3 |    000085D7  A$_boot$3
     000085D8  A$_boot$3 |    000085D9  A$_boot$3 |    000085DA  A$_boot$3
     000085DB  A$_boot$3 |    000085DB  debug     |    000085DE  A$_boot$3
     000085E0  A$_boot$3 |    000085E3  A$_boot$3 |    000085E5  A$_boot$3
     000085E7  A$_boot$3 |    000085E9  A$_boot$3 |    000085EC  A$_boot$3
     000085EE  A$_boot$3 |    000085F1  A$_boot$3 |    000085F3  A$_boot$3
     000085F4  A$_boot$3 |    000085F6  A$_boot$3 |    000085F7  A$_boot$3
ASxxxx Linker V03.00 + NoICE + sdld,  page 118.
Hexadecimal  [32-Bits]

Area                       Addr        Size        Decimal Bytes (Attributes)
--------------------       ----        ----        ------- ----- ------------
_SYSTEM_CODE           000084DB    000001D8 =         472. bytes (REL,CON)

        Value  Global            Value  Global            Value  Global    
        -----  ------            -----  ------            -----  ------    
     000085F9  A$_boot$3 |    000085FA  A$_boot$3 |    000085FC  A$_boot$3
     000085FF  A$_boot$3 |    00008601  A$_boot$3 |    00008604  A$_boot$3
     00008606  A$_boot$3 |    00008607  A$_boot$3 |    00008609  A$_boot$3
     0000860B  A$_boot$3 |    0000860D  A$_boot$3 |    0000860F  A$_boot$3
     00008612  A$_boot$3 |    00008614  A$_boot$3 |    00008617  A$_boot$3
     00008619  A$_boot$3 |    0000861C  A$_boot$3 |    0000861E  A$_boot$3
     00008620  A$_boot$3 |    00008622  A$_boot$3 |    00008624  A$_boot$3
     00008625  A$_boot$3 |    00008628  A$_boot$3 |    0000862A  A$_boot$3
     0000862D  A$_boot$3 |    0000862F  A$_boot$3 |    00008631  A$_boot$3
     00008633  A$_boot$3 |    00008635  A$_boot$3 |    00008637  A$_boot$3
     0000863A  A$_boot$3 |    0000863C  A$_boot$3 |    0000863D  A$_boot$4
     00008640  A$_boot$4 |    00008643  A$_boot$4 |    00008646  A$_boot$4
     00008647  A$_boot$4 |    00008648  A$_boot$4 |    00008649  A$_boot$4
     0000864A  A$_boot$4 |    0000864B  A$_boot$4 |    0000864C  A$_boot$4
     0000864D  A$_boot$4 |    0000864E  A$_boot$4 |    0000864F  A$_boot$4
     00008650  A$_boot$4 |    00008652  A$_boot$4 |    00008655  A$_boot$4
     00008657  A$_boot$4 |    0000865A  A$_boot$4 |    0000865C  A$_boot$4
     0000865F  A$_boot$4 |    00008661  A$_boot$4 |    00008664  A$_boot$4
     00008666  A$_boot$4 |    00008669  A$_boot$4 |    0000866B  A$_boot$4
     0000866E  A$_boot$4 |    00008670  A$_boot$4 |    00008673  A$_boot$4
     00008675  A$_boot$4 |    00008678  A$_boot$4 |    0000867A  A$_boot$4
     0000867D  A$_boot$4 |    0000867F  A$_boot$4 |    00008681  A$_boot$4
     00008683  A$_boot$4 |    00008685  A$_boot$4 |    00008686  A$_boot$4
     00008687  A$_boot$4 |    00008688  A$_boot$4 |    00008689  A$_boot$4
     0000868C  A$_boot$4 |    0000868E  A$_boot$4 |    00008690  A$_boot$4
     00008692  A$_boot$4 |    00008694  A$_boot$4 |    00008697  A$_boot$4
     00008699  A$_boot$4 |    0000869B  A$_boot$4 |    0000869D  A$_boot$4
     0000869F  A$_boot$4 |    000086A0  A$_boot$4 |    000086A1  A$_boot$4
     000086A2  A$_boot$4 |    000086A5  A$_boot$4 |    000086A7  A$_boot$4
     000086AA  A$_boot$4 |    000086AC  A$_boot$4 |    000086AE  A$_boot$4
     000086B0  A$_boot$4 |    000086B2  A$_boot$4
ASxxxx Linker V03.00 + NoICE + sdld,  page 119.
Hexadecimal  [32-Bits]

Area                       Addr        Size        Decimal Bytes (Attributes)
--------------------       ----        ----        ------- ----- ------------
_GSINIT                000086B3    00000017 =          23. bytes (REL,CON)

        Value  Global            Value  Global            Value  Global    
        -----  ------            -----  ------            -----  ------    
     000086B3  A$_boot$1 |    000086B6  A$_boot$1 |    000086B9  A$_boot$1
     000086BB  A$_boot$1 |    000086BC  A$_boot$1 |    000086BD  A$_boot$1
     000086BE  A$_boot$1 |    000086BF  A$_boot$1 |    000086C1  A$_boot$1
     000086C4  A$_boot$1 |    000086C7  A$_boot$1 |    000086C9  A$_boot$1
ASxxxx Linker V03.00 + NoICE + sdld,  page 120.
Hexadecimal  [32-Bits]

Area                       Addr        Size        Decimal Bytes (Attributes)
--------------------       ----        ----        ------- ----- ------------
_INITIALIZER           000086CA    00000140 =         320. bytes (REL,CON)

        Value  Global            Value  Global            Value  Global    
        -----  ------            -----  ------            -----  ------    
     000086CA  Flibrary$ |    000086CE  Fmain$__x |    00008809  Fusb$__xi
ASxxxx Linker V03.00 + NoICE + sdld,  page 121.
Hexadecimal  [32-Bits]

Area                       Addr        Size        Decimal Bytes (Attributes)
--------------------       ----        ----        ------- ----- ------------
_END_INITIALIZER       0000880A    00000100 =         256. bytes (REL,CON)

        Value  Global            Value  Global            Value  Global    
        -----  ------            -----  ------            -----  ------    
ASxxxx Linker V03.00 + NoICE + sdld,  page 122.
Hexadecimal  [32-Bits]

Area                       Addr        Size        Decimal Bytes (Attributes)
--------------------       ----        ----        ------- ----- ------------
_DATA                  0000890A    00001573 =        5491. bytes (REL,CON)

        Value  Global            Value  Global            Value  Global    
        -----  ------            -----  ------            -----  ------    
     0000890A  G$dsb$0$0 |    0000890A  _dsb      |    00008C0A  G$fdcStre
     00008C0A  _fdcStrea |    00008E0A  G$fdcStre |    00008E0A  _fdcStrea
     00008E0C  G$fdcBuff |    00008E0C  _fdcBuffe |    00008E0E  G$lbuffer
     00008E0E  _lbuffer  |    00008E4E  G$lbuffer |    00008E4E  _lbuffer_
     00008E4F  G$keynums |    00008E4F  _keynums  |    00008E50  Flibrary$
     00009DE5  G$dummy$0 |    00009DE5  _dummy    |    00009DE9  G$cmd_buf
     00009DE9  _cmd_buff |    00009DEB  G$sdcAbor |    00009DEB  _sdcAbort
     00009DEC  Fstdio_ua |    00009E6C  Fstdio_ua |    00009E6D  G$lastRep
     00009E6D  _lastRepo |    00009E75  G$buffer$ |    00009E75  _buffer  
ASxxxx Linker V03.00 + NoICE + sdld,  page 123.
Hexadecimal  [32-Bits]

Area                       Addr        Size        Decimal Bytes (Attributes)
--------------------       ----        ----        ------- ----- ------------
_INITIALIZED           00009E7D    00000140 =         320. bytes (REL,CON)

        Value  Global            Value  Global            Value  Global    
        -----  ------            -----  ------            -----  ------    
     00009E7D  Flibrary$ |    00009E81  G$rom_dat |    00009E81  _rom_data
     00009FBC  G$unreadR |    00009FBC  _unreadRe
ASxxxx Linker V03.00 + NoICE + sdld,  page 124.
Hexadecimal  [32-Bits]

Area                       Addr        Size        Decimal Bytes (Attributes)
--------------------       ----        ----        ------- ----- ------------
_HOME                  00009FBD    00000213 =         531. bytes (REL,CON)

        Value  Global            Value  Global            Value  Global    
        -----  ------            -----  ------            -----  ------    
     00009FBD  __divulon |    0000A04F  __mullong
ASxxxx Linker V03.00 + NoICE + sdld,  page 125.

Files Linked                              [ module(s) ]

_boot.rel                                 [ bootblk ]
asmi.rel                                  [ asmi ]
config.rel                                [ config ]
fat2l.rel                                 [ fat2l ]
fdc.rel                                   [ fdc ]
hdmi.rel                                  [ hdmi ]
interrupt.rel                             [ interrupt ]
keyboard.rel                              [ keyboard ]
library.rel                               [ library ]
main.rel                                  [ main ]
phy.rel                                   [ phy ]
rommgr.rel                                [ rommgr ]
sdc.rel                                   [ sdc ]
stdio_uart.rel                            [ stdio_uart ]
system.rel                                [ system ]
usb.rel                                   [ usb ]


Libraries Linked                          [ object file ]

/usr/share/sdcc/lib/z80/z80.lib           [ sprintf.rel ]
/usr/share/sdcc/lib/z80/z80.lib           [ _strncmp.rel ]
/usr/share/sdcc/lib/z80/z80.lib           [ _divulong.rel ]
/usr/share/sdcc/lib/z80/z80.lib           [ __sdcc_call_hl.rel ]
/usr/share/sdcc/lib/z80/z80.lib           [ puts.rel ]
/usr/share/sdcc/lib/z80/z80.lib           [ vprintf.rel ]
/usr/share/sdcc/lib/z80/z80.lib           [ strlen.rel ]
/usr/share/sdcc/lib/z80/z80.lib           [ _mullong.rel ]
/usr/share/sdcc/lib/z80/z80.lib           [ printf_large.rel ]
/usr/share/sdcc/lib/z80/z80.lib           [ mul.rel ]


